(lp0
((dp1
I1
F1.0000000000000007
sI2
F1.0000000000000007
sI3
F0.0
sI4
F0.0
sI5
F0.0
sI6
F0.0
sI7
F0.0
sI8
F0.0
sI9
F0.0
sI10
F1.0000000000000007
scnumpy.core.multiarray
scalar
p2
(cnumpy
dtype
p3
(S'f8'
p4
I0
I1
tp5
Rp6
(I3
S'<'
p7
NNNI-1
I-1
I0
tp8
bS'\xef9\xfa\xfeB.\xe6?'
p9
tp10
Rp11
F0.30681896209716797
I100
S'polynomial'
p12
I1
F0.5
tp13
a((dp14
I1
F1.0000000000000007
sI2
F1.0000000000000007
sI3
F0.0
sI4
F0.0
sI5
F0.0
sI6
F0.0
sI7
F0.0
sI8
F0.0
sI9
F0.0
sI10
F1.0000000000000007
sg2
(g6
S'\xef9\xfa\xfeB.\xe6?'
p15
tp16
Rp17
F0.3902699947357178
I100
S'polynomial'
p18
I2
F0.5
tp19
a((dp20
I1
F1.0000000000000007
sI2
F1.0000000000000007
sI3
F0.0
sI4
F0.0
sI5
F0.0
sI6
F0.0
sI7
F0.0
sI8
F0.0
sI9
F0.0
sI10
F1.0000000000000007
sg2
(g6
S'\xef9\xfa\xfeB.\xe6?'
p21
tp22
Rp23
F0.3998751640319824
I100
S'polynomial'
p24
I3
F0.5
tp25
a((dp26
I1
F1.0000000000000007
sI2
F1.0000000000000007
sI3
F0.0
sI4
F0.0
sI5
F0.0
sI6
F0.0
sI7
F0.0
sI8
F0.0
sI9
F0.0
sI10
F1.0000000000000007
sg2
(g6
S'\xef9\xfa\xfeB.\xe6?'
p27
tp28
Rp29
F0.40082311630249023
I100
S'polynomial'
p30
I4
F0.5
tp31
a((dp32
I1
F1.0000000000000007
sI2
F1.0000000000000007
sI3
F0.0
sI4
F0.0
sI5
F0.0
sI6
F0.0
sI7
F0.0
sI8
F0.0
sI9
F0.0
sI10
F1.0000000000000007
sg2
(g6
S'\xef9\xfa\xfeB.\xe6?'
p33
tp34
Rp35
F0.3957250118255615
I100
S'polynomial'
p36
I5
F0.5
tp37
a.