(lp0
(I0
F0.20554900169372559
(dp1
I1
F0.01
sI2
F0.0
sI3
F0.0
sI4
F0.01
sI5
F0.0
sI6
F0.0
sI7
F0.0
sI8
F0.0
sI9
F0.0
sI10
F0.0
scnumpy.core.multiarray
scalar
p2
(cnumpy
dtype
p3
(S'f8'
p4
I0
I1
tp5
Rp6
(I3
S'<'
p7
NNNI-1
I-1
I0
tp8
bS'\x01cL)\xbfyx?'
p9
tp10
Rp11
S'sampler'
p12
I50
tp13
a(I1
F0.4028439521789551
(dp14
I1
F0.02
sI2
F0.0
sI3
F0.0
sI4
F0.02
sI5
F0.0
sI6
F0.0
sI7
F0.0
sI8
F0.0
sI9
F0.0
sI10
F0.0
sg2
(g6
S'p`\x8b\xd4<l\x88?'
p15
tp16
Rp17
g12
I50
tp18
a(I2
F0.5965909957885742
(dp19
I1
F0.03
sI2
F0.0
sI3
F0.0
sI4
F0.03
sI5
F0.0
sI6
F0.0
sI7
F0.0
sI8
F0.0
sI9
F0.0
sI10
F0.0
sg2
(g6
S'n\xc6\xd7\xdf\x0bG\x92?'
p20
tp21
Rp22
g12
I50
tp23
a(I3
F0.7885429859161377
(dp24
I1
F0.04
sI2
F0.0
sI3
F0.0
sI4
F0.04
sI5
F0.0
sI6
F0.0
sI7
F0.0
sI8
F0.0
sI9
F0.0
sI10
F0.0
sg2
(g6
S'e[\t+8Q\x98?'
p25
tp26
Rp27
g12
I50
tp28
a(I4
F0.9848160743713379
(dp29
I1
F0.05
sI2
F0.0
sI3
F0.0
sI4
F0.05
sI5
F0.0
sI6
F0.0
sI7
F0.0
sI8
F0.0
sI9
F0.0
sI10
F0.0
sg2
(g6
S'\x19o\xdaK\xa3T\x9e?'
p30
tp31
Rp32
g12
I50
tp33
a(I5
F1.178821086883545
(dp34
I1
F0.060000000000000005
sI2
F0.0
sI3
F0.0
sI4
F0.060000000000000005
sI5
F0.0
sI6
F0.0
sI7
F0.0
sI8
F0.0
sI9
F0.0
sI10
F0.0
sg2
(g6
S'\xc8\x80%\xa1\xa6(\xa2?'
p35
tp36
Rp37
g12
I50
tp38
a(I6
F1.3723480701446533
(dp39
I1
F0.07
sI2
F0.0
sI3
F0.0
sI4
F0.07
sI5
F0.0
sI6
F0.0
sI7
F0.0
sI8
F0.0
sI9
F0.0
sI10
F0.0
sg2
(g6
S'a\x89-\x07\x9b#\xa5?'
p40
tp41
Rp42
g12
I50
tp43
a(I7
F1.5651209354400635
(dp44
I1
F0.08
sI2
F0.0
sI3
F0.0
sI4
F0.08
sI5
F0.0
sI6
F0.0
sI7
F0.0
sI8
F0.0
sI9
F0.0
sI10
F0.0
sg2
(g6
S'[Q\x05\xd8.\x1b\xa8?'
p45
tp46
Rp47
g12
I50
tp48
a(I8
F1.7583708763122559
(dp49
I1
F0.09
sI2
F0.0
sI3
F0.0
sI4
F0.09
sI5
F0.0
sI6
F0.0
sI7
F0.0
sI8
F0.0
sI9
F0.0
sI10
F0.0
sg2
(g6
S'\xb4\xd8\xac\x13b\x0f\xab?'
p50
tp51
Rp52
g12
I50
tp53
a(I9
F1.951859951019287
(dp54
I1
F0.09999999999999999
sI2
F0.0
sI3
F0.0
sI4
F0.09999999999999999
sI5
F0.0
sI6
F0.0
sI7
F0.0
sI8
F0.0
sI9
F0.0
sI10
F0.0
sg2
(g6
S'j\x1f$\xba4\x00\xae?'
p55
tp56
Rp57
g12
I50
tp58
a(I10
F2.1453969478607178
(dp59
I1
F0.10999999999999999
sI2
F0.0
sI3
F0.0
sI4
F0.10999999999999999
sI5
F0.0
sI6
F0.0
sI7
F0.0
sI8
F0.0
sI9
F0.0
sI10
F0.0
sg2
(g6
S'\xc1\x92\xb5e\xd3v\xb0?'
p60
tp61
Rp62
g12
I50
tp63
a(I11
F2.3384439945220947
(dp64
I1
F0.11999999999999998
sI2
F0.0
sI3
F0.0
sI4
F0.11999999999999998
sI5
F0.0
sI6
F0.0
sI7
F0.0
sI8
F0.0
sI9
F0.0
sI10
F0.0
sg2
(g6
S'}\xf5\xc0#\xdc\xeb\xb1?'
p65
tp66
Rp67
g12
I50
tp68
a(I12
F2.531975030899048
(dp69
I1
F0.12999999999999998
sI2
F0.0
sI3
F0.0
sI4
F0.12999999999999998
sI5
F0.0
sI6
F0.0
sI7
F0.0
sI8
F0.0
sI9
F0.0
sI10
F0.0
sg2
(g6
S'\xe874\x974_\xb3?'
p70
tp71
Rp72
g12
I50
tp73
a(I13
F2.72531795501709
(dp74
I1
F0.13999999999999999
sI2
F0.0
sI3
F0.0
sI4
F0.13999999999999999
sI5
F0.0
sI6
F0.0
sI7
F0.0
sI8
F0.0
sI9
F0.0
sI10
F0.0
sg2
(g6
S'\x03Z\x0f\xc0\xdc\xd0\xb4?'
p75
tp76
Rp77
g12
I50
tp78
a(I14
F2.9188709259033203
(dp79
I1
F0.15
sI2
F0.0
sI3
F0.0
sI4
F0.15
sI5
F0.0
sI6
F0.0
sI7
F0.0
sI8
F0.0
sI9
F0.0
sI10
F0.0
sg2
(g6
S'\xd0[R\x9e\xd4@\xb6?'
p80
tp81
Rp82
g12
I50
tp83
a(I15
F3.1168479919433594
(dp84
I1
F0.16
sI2
F0.0
sI3
F0.0
sI4
F0.16
sI5
F0.0
sI6
F0.0
sI7
F0.0
sI8
F0.0
sI9
F0.0
sI10
F0.0
sg2
(g6
S'K=\xfd1\x1c\xaf\xb7?'
p85
tp86
Rp87
g12
I50
tp88
a(I16
F3.3152859210968018
(dp89
I1
F0.17
sI2
F0.0
sI3
F0.0
sI4
F0.17
sI5
F0.0
sI6
F0.0
sI7
F0.0
sI8
F0.0
sI9
F0.0
sI10
F0.0
sg2
(g6
S'v\xfe\x0f{\xb3\x1b\xb9?'
p90
tp91
Rp92
g12
I50
tp93
a(I17
F3.5131618976593018
(dp94
I1
F0.18000000000000002
sI2
F0.0
sI3
F0.0
sI4
F0.18000000000000002
sI5
F0.0
sI6
F0.0
sI7
F0.0
sI8
F0.0
sI9
F0.0
sI10
F0.0
sg2
(g6
S'Q\x9f\x8ay\x9a\x86\xba?'
p95
tp96
Rp97
g12
I50
tp98
a(I18
F3.7098429203033447
(dp99
I1
F0.19000000000000003
sI2
F0.0
sI3
F0.0
sI4
F0.19000000000000003
sI5
F0.0
sI6
F0.0
sI7
F0.0
sI8
F0.0
sI9
F0.0
sI10
F0.0
sg2
(g6
S'\xdd\x1fm-\xd1\xef\xbb?'
p100
tp101
Rp102
g12
I50
tp103
a(I19
F3.907409906387329
(dp104
I1
F0.20000000000000004
sI2
F0.0
sI3
F0.0
sI4
F0.20000000000000004
sI5
F0.0
sI6
F0.0
sI7
F0.0
sI8
F0.0
sI9
F0.0
sI10
F0.0
sg2
(g6
S'\x17\x80\xb7\x96WW\xbd?'
p105
tp106
Rp107
g12
I50
tp108
a(I20
F4.104779958724976
(dp109
I1
F0.21000000000000005
sI2
F0.0
sI3
F0.0
sI4
F0.21000000000000005
sI5
F0.0
sI6
F0.0
sI7
F0.0
sI8
F0.0
sI9
F0.0
sI10
F0.0
sg2
(g6
S'\x01\xc0i\xb5-\xbd\xbe?'
p110
tp111
Rp112
g12
I50
tp113
a(I21
F4.303323984146118
(dp114
I1
F0.22000000000000006
sI2
F0.0
sI3
F0.0
sI4
F0.22000000000000006
sI5
F0.0
sI6
F0.0
sI7
F0.0
sI8
F0.0
sI9
F0.0
sI10
F0.0
sg2
(g6
S'\xce\xef\xc1\xc4\xa9\x10\xc0?'
p115
tp116
Rp117
g12
I50
tp118
a(I22
F4.499274969100952
(dp119
I1
F0.23000000000000007
sI2
F0.0
sI3
F0.0
sI4
F0.23000000000000007
sI5
F0.0
sI6
F0.0
sI7
F0.0
sI8
F0.0
sI9
F0.0
sI10
F0.0
sg2
(g6
S's\xef\x82\x89\xe4\xc1\xc0?'
p120
tp121
Rp122
g12
I50
tp123
a(I23
F4.69398307800293
(dp124
I1
F0.24000000000000007
sI2
F0.0
sI3
F0.0
sI4
F0.24000000000000007
sI5
F0.0
sI6
F0.0
sI7
F0.0
sI8
F0.0
sI9
F0.0
sI10
F0.0
sg2
(g6
S'\xef\xde\xf7(Gr\xc1?'
p125
tp126
Rp127
g12
I50
tp128
a(I24
F4.891581058502197
(dp129
I1
F0.25000000000000006
sI2
F0.0
sI3
F0.0
sI4
F0.25000000000000006
sI5
F0.0
sI6
F0.0
sI7
F0.0
sI8
F0.0
sI9
F0.0
sI10
F0.0
sg2
(g6
S'D\xbe \xa3\xd1!\xc2?'
p130
tp131
Rp132
g12
I50
tp133
a(I25
F5.086694002151489
(dp134
I1
F0.26000000000000006
sI2
F0.0
sI3
F0.0
sI4
F0.26000000000000006
sI5
F0.0
sI6
F0.0
sI7
F0.0
sI8
F0.0
sI9
F0.0
sI10
F0.0
sg2
(g6
S'r\x8d\xfd\xf7\x83\xd0\xc2?'
p135
tp136
Rp137
g12
I50
tp138
a(I26
F5.282242059707642
(dp139
I1
F0.2700000000000001
sI2
F0.0
sI3
F0.0
sI4
F0.2700000000000001
sI5
F0.0
sI6
F0.0
sI7
F0.0
sI8
F0.0
sI9
F0.0
sI10
F0.0
sg2
(g6
S"uL\x8e'^~\xc3?"
p140
tp141
Rp142
g12
I50
tp143
a(I27
F5.47659707069397
(dp144
I1
F0.2800000000000001
sI2
F0.0
sI3
F0.0
sI4
F0.2800000000000001
sI5
F0.0
sI6
F0.0
sI7
F0.0
sI8
F0.0
sI9
F0.0
sI10
F0.0
sg2
(g6
S'S\xfb\xd21`+\xc4?'
p145
tp146
Rp147
g12
I50
tp148
a(I28
F5.668626070022583
(dp149
I1
F0.2900000000000001
sI2
F0.0
sI3
F0.0
sI4
F0.2900000000000001
sI5
F0.0
sI6
F0.0
sI7
F0.0
sI8
F0.0
sI9
F0.0
sI10
F0.0
sg2
(g6
S'\x06\x9a\xcb\x16\x8a\xd7\xc4?'
p150
tp151
Rp152
g12
I50
tp153
a(I29
F5.862045049667358
(dp154
I1
F0.3000000000000001
sI2
F0.0
sI3
F0.0
sI4
F0.3000000000000001
sI5
F0.0
sI6
F0.0
sI7
F0.0
sI8
F0.0
sI9
F0.0
sI10
F0.0
sg2
(g6
S'\x92(x\xd6\xdb\x82\xc5?'
p155
tp156
Rp157
g12
I50
tp158
a(I30
F6.059215068817139
(dp159
I1
F0.3100000000000001
sI2
F0.0
sI3
F0.0
sI4
F0.3100000000000001
sI5
F0.0
sI6
F0.0
sI7
F0.0
sI8
F0.0
sI9
F0.0
sI10
F0.0
sg2
(g6
S'\xf6\xa6\xd8pU-\xc6?'
p160
tp161
Rp162
g12
I50
tp163
a(I31
F6.254487037658691
(dp164
I1
F0.3200000000000001
sI2
F0.0
sI3
F0.0
sI4
F0.3200000000000001
sI5
F0.0
sI6
F0.0
sI7
F0.0
sI8
F0.0
sI9
F0.0
sI10
F0.0
sg2
(g6
S'3\x15\xed\xe5\xf6\xd6\xc6?'
p165
tp166
Rp167
g12
I50
tp168
a(I32
F6.449023008346558
(dp169
I1
F0.3300000000000001
sI2
F0.0
sI3
F0.0
sI4
F0.3300000000000001
sI5
F0.0
sI6
F0.0
sI7
F0.0
sI8
F0.0
sI9
F0.0
sI10
F0.0
sg2
(g6
S'Fs\xb55\xc0\x7f\xc7?'
p170
tp171
Rp172
g12
I50
tp173
a(I33
F6.642502069473267
(dp174
I1
F0.34000000000000014
sI2
F0.0
sI3
F0.0
sI4
F0.34000000000000014
sI5
F0.0
sI6
F0.0
sI7
F0.0
sI8
F0.0
sI9
F0.0
sI10
F0.0
sg2
(g6
S"3\xc11`\xb1'\xc8?"
p175
tp176
Rp177
g12
I50
tp178
a(I34
F6.834625959396362
(dp179
I1
F0.35000000000000014
sI2
F0.0
sI3
F0.0
sI4
F0.35000000000000014
sI5
F0.0
sI6
F0.0
sI7
F0.0
sI8
F0.0
sI9
F0.0
sI10
F0.0
sg2
(g6
S'\xf7\xfeae\xca\xce\xc8?'
p180
tp181
Rp182
g12
I50
tp183
a(I35
F7.0322558879852295
(dp184
I1
F0.36000000000000015
sI2
F0.0
sI3
F0.0
sI4
F0.36000000000000015
sI5
F0.0
sI6
F0.0
sI7
F0.0
sI8
F0.0
sI9
F0.0
sI10
F0.0
sg2
(g6
S'\x92,FE\x0bu\xc9?'
p185
tp186
Rp187
g12
I50
tp188
a(I36
F7.224842071533203
(dp189
I1
F0.37000000000000016
sI2
F0.0
sI3
F0.0
sI4
F0.37000000000000016
sI5
F0.0
sI6
F0.0
sI7
F0.0
sI8
F0.0
sI9
F0.0
sI10
F0.0
sg2
(g6
S'\x06J\xde\xffs\x1a\xca?'
p190
tp191
Rp192
g12
I50
tp193
a(I37
F7.418139934539795
(dp194
I1
F0.38000000000000017
sI2
F0.0
sI3
F0.0
sI4
F0.38000000000000017
sI5
F0.0
sI6
F0.0
sI7
F0.0
sI8
F0.0
sI9
F0.0
sI10
F0.0
sg2
(g6
S'QW*\x95\x04\xbf\xca?'
p195
tp196
Rp197
g12
I50
tp198
a(I38
F7.610738039016724
(dp199
I1
F0.3900000000000002
sI2
F0.0
sI3
F0.0
sI4
F0.3900000000000002
sI5
F0.0
sI6
F0.0
sI7
F0.0
sI8
F0.0
sI9
F0.0
sI10
F0.0
sg2
(g6
S'tT*\x05\xbdb\xcb?'
p200
tp201
Rp202
g12
I50
tp203
a(I39
F7.807132959365845
(dp204
I1
F0.4000000000000002
sI2
F0.0
sI3
F0.0
sI4
F0.4000000000000002
sI5
F0.0
sI6
F0.0
sI7
F0.0
sI8
F0.0
sI9
F0.0
sI10
F0.0
sg2
(g6
S'pA\xdeO\x9d\x05\xcc?'
p205
tp206
Rp207
g12
I50
tp208
a(I40
F8.005656957626343
(dp209
I1
F0.4100000000000002
sI2
F0.0
sI3
F0.0
sI4
F0.4100000000000002
sI5
F0.0
sI6
F0.0
sI7
F0.0
sI8
F0.0
sI9
F0.0
sI10
F0.0
sg2
(g6
S'B\x1eFu\xa5\xa7\xcc?'
p210
tp211
Rp212
g12
I50
tp213
a(I41
F8.204180002212524
(dp214
I1
F0.4200000000000002
sI2
F0.0
sI3
F0.0
sI4
F0.4200000000000002
sI5
F0.0
sI6
F0.0
sI7
F0.0
sI8
F0.0
sI9
F0.0
sI10
F0.0
sg2
(g6
S'\xee\xeaau\xd5H\xcd?'
p215
tp216
Rp217
g12
I50
tp218
a(I42
F8.403671026229858
(dp219
I1
F0.4300000000000002
sI2
F0.0
sI3
F0.0
sI4
F0.4300000000000002
sI5
F0.0
sI6
F0.0
sI7
F0.0
sI8
F0.0
sI9
F0.0
sI10
F0.0
sg2
(g6
S'r\xa71P-\xe9\xcd?'
p220
tp221
Rp222
g12
I50
tp223
a(I43
F8.60161805152893
(dp224
I1
F0.4400000000000002
sI2
F0.0
sI3
F0.0
sI4
F0.4400000000000002
sI5
F0.0
sI6
F0.0
sI7
F0.0
sI8
F0.0
sI9
F0.0
sI10
F0.0
sg2
(g6
S'\xccS\xb5\x05\xad\x88\xce?'
p225
tp226
Rp227
g12
I50
tp228
a(I44
F8.799130916595459
(dp229
I1
F0.45000000000000023
sI2
F0.0
sI3
F0.0
sI4
F0.45000000000000023
sI5
F0.0
sI6
F0.0
sI7
F0.0
sI8
F0.0
sI9
F0.0
sI10
F0.0
sg2
(g6
S"\xff\xef\xec\x95T'\xcf?"
p230
tp231
Rp232
g12
I50
tp233
a(I45
F8.994045972824097
(dp234
I1
F0.46000000000000024
sI2
F0.0
sI3
F0.0
sI4
F0.46000000000000024
sI5
F0.0
sI6
F0.0
sI7
F0.0
sI8
F0.0
sI9
F0.0
sI10
F0.0
sg2
(g6
S'\t|\xd8\x00$\xc5\xcf?'
p235
tp236
Rp237
g12
I50
tp238
a(I46
F9.189929962158203
(dp239
I1
F0.47000000000000025
sI2
F0.0
sI3
F0.0
sI4
F0.47000000000000025
sI5
F0.0
sI6
F0.0
sI7
F0.0
sI8
F0.0
sI9
F0.0
sI10
F0.0
sg2
(g6
S'\xf6\xfb;\xa3\r1\xd0?'
p240
tp241
Rp242
g12
I50
tp243
a(I47
F9.384345054626465
(dp244
I1
F0.48000000000000026
sI2
F0.0
sI3
F0.0
sI4
F0.48000000000000026
sI5
F0.0
sI6
F0.0
sI7
F0.0
sI8
F0.0
sI9
F0.0
sI10
F0.0
sg2
(g6
S'\xd3\xb1e3\x1d\x7f\xd0?'
p245
tp246
Rp247
g12
I50
tp248
a(I48
F9.578811883926392
(dp249
I1
F0.49000000000000027
sI2
F0.0
sI3
F0.0
sI4
F0.49000000000000027
sI5
F0.0
sI6
F0.0
sI7
F0.0
sI8
F0.0
sI9
F0.0
sI10
F0.0
sg2
(g6
S'\x9c_\xe9\xb0\xc0\xcc\xd0?'
p250
tp251
Rp252
g12
I50
tp253
a(I49
F9.771449089050293
(dp254
I1
F0.5000000000000002
sI2
F0.0
sI3
F0.0
sI4
F0.5000000000000002
sI5
F0.0
sI6
F0.0
sI7
F0.0
sI8
F0.0
sI9
F0.0
sI10
F0.0
sg2
(g6
S'P\x05\xc7\x1b\xf8\x19\xd1?'
p255
tp256
Rp257
g12
I50
tp258
a(I50
F9.963018894195557
(dp259
I1
F0.5100000000000002
sI2
F0.0
sI3
F0.0
sI4
F0.5100000000000002
sI5
F0.0
sI6
F0.0
sI7
F0.0
sI8
F0.0
sI9
F0.0
sI10
F0.0
sg2
(g6
S'\xf1\xa2\xfes\xc3f\xd1?'
p260
tp261
Rp262
g12
I50
tp263
a(I51
F10.15563702583313
(dp264
I1
F0.5200000000000002
sI2
F0.0
sI3
F0.0
sI4
F0.5200000000000002
sI5
F0.0
sI6
F0.0
sI7
F0.0
sI8
F0.0
sI9
F0.0
sI10
F0.0
sg2
(g6
S'\x7f8\x90\xb9"\xb3\xd1?'
p265
tp266
Rp267
g12
I50
tp268
a(I52
F10.348704099655151
(dp269
I1
F0.5300000000000002
sI2
F0.0
sI3
F0.0
sI4
F0.5300000000000002
sI5
F0.0
sI6
F0.0
sI7
F0.0
sI8
F0.0
sI9
F0.0
sI10
F0.0
sg2
(g6
S'\xf8\xc5{\xec\x15\xff\xd1?'
p270
tp271
Rp272
g12
I50
tp273
a(I53
F10.541606903076172
(dp274
I1
F0.5400000000000003
sI2
F0.0
sI3
F0.0
sI4
F0.5400000000000003
sI5
F0.0
sI6
F0.0
sI7
F0.0
sI8
F0.0
sI9
F0.0
sI10
F0.0
sg2
(g6
S'\\K\xc1\x0c\x9dJ\xd2?'
p275
tp276
Rp277
g12
I50
tp278
a(I54
F10.736881017684937
(dp279
I1
F0.5500000000000003
sI2
F0.0
sI3
F0.0
sI4
F0.5500000000000003
sI5
F0.0
sI6
F0.0
sI7
F0.0
sI8
F0.0
sI9
F0.0
sI10
F0.0
sg2
(g6
S'\xac\xc8`\x1a\xb8\x95\xd2?'
p280
tp281
Rp282
g12
I50
tp283
a(I55
F10.932528018951416
(dp284
I1
F0.5600000000000003
sI2
F0.0
sI3
F0.0
sI4
F0.5600000000000003
sI5
F0.0
sI6
F0.0
sI7
F0.0
sI8
F0.0
sI9
F0.0
sI10
F0.0
sg2
(g6
S'\xea=Z\x15g\xe0\xd2?'
p285
tp286
Rp287
g12
I50
tp288
a(I56
F11.125375986099243
(dp289
I1
F0.5700000000000003
sI2
F0.0
sI3
F0.0
sI4
F0.5700000000000003
sI5
F0.0
sI6
F0.0
sI7
F0.0
sI8
F0.0
sI9
F0.0
sI10
F0.0
sg2
(g6
S'\x13\xab\xad\xfd\xa9*\xd3?'
p290
tp291
Rp292
g12
I50
tp293
a(I57
F11.319189071655273
(dp294
I1
F0.5800000000000003
sI2
F0.0
sI3
F0.0
sI4
F0.5800000000000003
sI5
F0.0
sI6
F0.0
sI7
F0.0
sI8
F0.0
sI9
F0.0
sI10
F0.0
sg2
(g6
S'(\x10[\xd3\x80t\xd3?'
p295
tp296
Rp297
g12
I50
tp298
a(I58
F11.513087034225464
(dp299
I1
F0.5900000000000003
sI2
F0.0
sI3
F0.0
sI4
F0.5900000000000003
sI5
F0.0
sI6
F0.0
sI7
F0.0
sI8
F0.0
sI9
F0.0
sI10
F0.0
sg2
(g6
S'(mb\x96\xeb\xbd\xd3?'
p300
tp301
Rp302
g12
I50
tp303
a(I59
F11.70615291595459
(dp304
I1
F0.6000000000000003
sI2
F0.0
sI3
F0.0
sI4
F0.6000000000000003
sI5
F0.0
sI6
F0.0
sI7
F0.0
sI8
F0.0
sI9
F0.0
sI10
F0.0
sg2
(g6
S'\x15\xc2\xc3F\xea\x06\xd4?'
p305
tp306
Rp307
g12
I50
tp308
a(I60
F11.899879932403564
(dp309
I1
F0.6100000000000003
sI2
F0.0
sI3
F0.0
sI4
F0.6100000000000003
sI5
F0.0
sI6
F0.0
sI7
F0.0
sI8
F0.0
sI9
F0.0
sI10
F0.0
sg2
(g6
S'\xed\x0e\x7f\xe4|O\xd4?'
p310
tp311
Rp312
g12
I50
tp313
a(I61
F12.094726085662842
(dp314
I1
F0.6200000000000003
sI2
F0.0
sI3
F0.0
sI4
F0.6200000000000003
sI5
F0.0
sI6
F0.0
sI7
F0.0
sI8
F0.0
sI9
F0.0
sI10
F0.0
sg2
(g6
S'\xb2S\x94o\xa3\x97\xd4?'
p315
tp316
Rp317
g12
I50
tp318
a(I62
F12.29400897026062
(dp319
I1
F0.6300000000000003
sI2
F0.0
sI3
F0.0
sI4
F0.6300000000000003
sI5
F0.0
sI6
F0.0
sI7
F0.0
sI8
F0.0
sI9
F0.0
sI10
F0.0
sg2
(g6
S'b\x90\x03\xe8]\xdf\xd4?'
p320
tp321
Rp322
g12
I50
tp323
a(I63
F12.491676092147827
(dp324
I1
F0.6400000000000003
sI2
F0.0
sI3
F0.0
sI4
F0.6400000000000003
sI5
F0.0
sI6
F0.0
sI7
F0.0
sI8
F0.0
sI9
F0.0
sI10
F0.0
sg2
(g6
S'\xfe\xc4\xccM\xac&\xd5?'
p325
tp326
Rp327
g12
I50
tp328
a(I64
F12.688785076141357
(dp329
I1
F0.6500000000000004
sI2
F0.0
sI3
F0.0
sI4
F0.6500000000000004
sI5
F0.0
sI6
F0.0
sI7
F0.0
sI8
F0.0
sI9
F0.0
sI10
F0.0
sg2
(g6
S'\x87\xf1\xef\xa0\x8em\xd5?'
p330
tp331
Rp332
g12
I50
tp333
a(I65
F12.88517689704895
(dp334
I1
F0.6600000000000004
sI2
F0.0
sI3
F0.0
sI4
F0.6600000000000004
sI5
F0.0
sI6
F0.0
sI7
F0.0
sI8
F0.0
sI9
F0.0
sI10
F0.0
sg2
(g6
S'\xfa\x15m\xe1\x04\xb4\xd5?'
p335
tp336
Rp337
g12
I50
tp338
a(I66
F13.085777997970581
(dp339
I1
F0.6700000000000004
sI2
F0.0
sI3
F0.0
sI4
F0.6700000000000004
sI5
F0.0
sI6
F0.0
sI7
F0.0
sI8
F0.0
sI9
F0.0
sI10
F0.0
sg2
(g6
S'Z2D\x0f\x0f\xfa\xd5?'
p340
tp341
Rp342
g12
I50
tp343
a(I67
F13.288110971450806
(dp344
I1
F0.6800000000000004
sI2
F0.0
sI3
F0.0
sI4
F0.6800000000000004
sI5
F0.0
sI6
F0.0
sI7
F0.0
sI8
F0.0
sI9
F0.0
sI10
F0.0
sg2
(g6
S'\xa8Fu*\xad?\xd6?'
p345
tp346
Rp347
g12
I50
tp348
a(I68
F13.485049962997437
(dp349
I1
F0.6900000000000004
sI2
F0.0
sI3
F0.0
sI4
F0.6900000000000004
sI5
F0.0
sI6
F0.0
sI7
F0.0
sI8
F0.0
sI9
F0.0
sI10
F0.0
sg2
(g6
S'\xe0R\x003\xdf\x84\xd6?'
p350
tp351
Rp352
g12
I50
tp353
a(I69
F13.680954933166504
(dp354
I1
F0.7000000000000004
sI2
F0.0
sI3
F0.0
sI4
F0.7000000000000004
sI5
F0.0
sI6
F0.0
sI7
F0.0
sI8
F0.0
sI9
F0.0
sI10
F0.0
sg2
(g6
S'\x04W\xe5(\xa5\xc9\xd6?'
p355
tp356
Rp357
g12
I50
tp358
a(I70
F13.878074884414673
(dp359
I1
F0.7100000000000004
sI2
F0.0
sI3
F0.0
sI4
F0.7100000000000004
sI5
F0.0
sI6
F0.0
sI7
F0.0
sI8
F0.0
sI9
F0.0
sI10
F0.0
sg2
(g6
S'\x14S$\x0c\xff\r\xd7?'
p360
tp361
Rp362
g12
I50
tp363
a(I71
F14.073725938796997
(dp364
I1
F0.7200000000000004
sI2
F0.0
sI3
F0.0
sI4
F0.7200000000000004
sI5
F0.0
sI6
F0.0
sI7
F0.0
sI8
F0.0
sI9
F0.0
sI10
F0.0
sg2
(g6
S'\x10G\xbd\xdc\xecQ\xd7?'
p365
tp366
Rp367
g12
I50
tp368
a(I72
F14.27358102798462
(dp369
I1
F0.7300000000000004
sI2
F0.0
sI3
F0.0
sI4
F0.7300000000000004
sI5
F0.0
sI6
F0.0
sI7
F0.0
sI8
F0.0
sI9
F0.0
sI10
F0.0
sg2
(g6
S'\xf82\xb0\x9an\x95\xd7?'
p370
tp371
Rp372
g12
I50
tp373
a(I73
F14.468760013580322
(dp374
I1
F0.7400000000000004
sI2
F0.0
sI3
F0.0
sI4
F0.7400000000000004
sI5
F0.0
sI6
F0.0
sI7
F0.0
sI8
F0.0
sI9
F0.0
sI10
F0.0
sg2
(g6
S'\xcb\x16\xfdE\x84\xd8\xd7?'
p375
tp376
Rp377
g12
I50
tp378
a(I74
F14.664700031280518
(dp379
I1
F0.7500000000000004
sI2
F0.0
sI3
F0.0
sI4
F0.7500000000000004
sI5
F0.0
sI6
F0.0
sI7
F0.0
sI8
F0.0
sI9
F0.0
sI10
F0.0
sg2
(g6
S'\x8a\xf2\xa3\xde-\x1b\xd8?'
p380
tp381
Rp382
g12
I50
tp383
a(I75
F14.858694076538086
(dp384
I1
F0.7600000000000005
sI2
F0.0
sI3
F0.0
sI4
F0.7600000000000005
sI5
F0.0
sI6
F0.0
sI7
F0.0
sI8
F0.0
sI9
F0.0
sI10
F0.0
sg2
(g6
S'8\xc6\xa4dk]\xd8?'
p385
tp386
Rp387
g12
I50
tp388
a(I76
F15.055602073669434
(dp389
I1
F0.7700000000000005
sI2
F0.0
sI3
F0.0
sI4
F0.7700000000000005
sI5
F0.0
sI6
F0.0
sI7
F0.0
sI8
F0.0
sI9
F0.0
sI10
F0.0
sg2
(g6
S'\xcf\x91\xff\xd7<\x9f\xd8?'
p390
tp391
Rp392
g12
I50
tp393
a(I77
F15.253227949142456
(dp394
I1
F0.7800000000000005
sI2
F0.0
sI3
F0.0
sI4
F0.7800000000000005
sI5
F0.0
sI6
F0.0
sI7
F0.0
sI8
F0.0
sI9
F0.0
sI10
F0.0
sg2
(g6
S'SU\xb48\xa2\xe0\xd8?'
p395
tp396
Rp397
g12
I50
tp398
a(I78
F15.449615955352783
(dp399
I1
F0.7900000000000005
sI2
F0.0
sI3
F0.0
sI4
F0.7900000000000005
sI5
F0.0
sI6
F0.0
sI7
F0.0
sI8
F0.0
sI9
F0.0
sI10
F0.0
sg2
(g6
S'\xc2\x10\xc3\x86\x9b!\xd9?'
p400
tp401
Rp402
g12
I50
tp403
a(I79
F15.645813941955566
(dp404
I1
F0.8000000000000005
sI2
F0.0
sI3
F0.0
sI4
F0.8000000000000005
sI5
F0.0
sI6
F0.0
sI7
F0.0
sI8
F0.0
sI9
F0.0
sI10
F0.0
sg2
(g6
S'\x1e\xc4+\xc2(b\xd9?'
p405
tp406
Rp407
g12
I50
tp408
a(I80
F15.842488050460815
(dp409
I1
F0.8100000000000005
sI2
F0.0
sI3
F0.0
sI4
F0.8100000000000005
sI5
F0.0
sI6
F0.0
sI7
F0.0
sI8
F0.0
sI9
F0.0
sI10
F0.0
sg2
(g6
S'fo\xee\xeaI\xa2\xd9?'
p410
tp411
Rp412
g12
I50
tp413
a(I81
F16.036854028701782
(dp414
I1
F0.8200000000000005
sI2
F0.0
sI3
F0.0
sI4
F0.8200000000000005
sI5
F0.0
sI6
F0.0
sI7
F0.0
sI8
F0.0
sI9
F0.0
sI10
F0.0
sg2
(g6
S'\x99\x12\x0b\x01\xff\xe1\xd9?'
p415
tp416
Rp417
g12
I50
tp418
a(I82
F16.2345609664917
(dp419
I1
F0.8300000000000005
sI2
F0.0
sI3
F0.0
sI4
F0.8300000000000005
sI5
F0.0
sI6
F0.0
sI7
F0.0
sI8
F0.0
sI9
F0.0
sI10
F0.0
sg2
(g6
S'\xb8\xad\x81\x04H!\xda?'
p420
tp421
Rp422
g12
I50
tp423
a(I83
F16.433114051818848
(dp424
I1
F0.8400000000000005
sI2
F0.0
sI3
F0.0
sI4
F0.8400000000000005
sI5
F0.0
sI6
F0.0
sI7
F0.0
sI8
F0.0
sI9
F0.0
sI10
F0.0
sg2
(g6
S'\xc4@R\xf5$`\xda?'
p425
tp426
Rp427
g12
I50
tp428
a(I84
F16.631001949310303
(dp429
I1
F0.8500000000000005
sI2
F0.0
sI3
F0.0
sI4
F0.8500000000000005
sI5
F0.0
sI6
F0.0
sI7
F0.0
sI8
F0.0
sI9
F0.0
sI10
F0.0
sg2
(g6
S'\xbb\xcb|\xd3\x95\x9e\xda?'
p430
tp431
Rp432
g12
I50
tp433
a(I85
F16.827972888946533
(dp434
I1
F0.8600000000000005
sI2
F0.0
sI3
F0.0
sI4
F0.8600000000000005
sI5
F0.0
sI6
F0.0
sI7
F0.0
sI8
F0.0
sI9
F0.0
sI10
F0.0
sg2
(g6
S'\x9eN\x01\x9f\x9a\xdc\xda?'
p435
tp436
Rp437
g12
I50
tp438
a(I86
F17.02232789993286
(dp439
I1
F0.8700000000000006
sI2
F0.0
sI3
F0.0
sI4
F0.8700000000000006
sI5
F0.0
sI6
F0.0
sI7
F0.0
sI8
F0.0
sI9
F0.0
sI10
F0.0
sg2
(g6
S'l\xc9\xdfW3\x1a\xdb?'
p440
tp441
Rp442
g12
I50
tp443
a(I87
F17.216695070266724
(dp444
I1
F0.8800000000000006
sI2
F0.0
sI3
F0.0
sI4
F0.8800000000000006
sI5
F0.0
sI6
F0.0
sI7
F0.0
sI8
F0.0
sI9
F0.0
sI10
F0.0
sg2
(g6
S'(<\x18\xfe_W\xdb?'
p445
tp446
Rp447
g12
I50
tp448
a(I88
F17.413712978363037
(dp449
I1
F0.8900000000000006
sI2
F0.0
sI3
F0.0
sI4
F0.8900000000000006
sI5
F0.0
sI6
F0.0
sI7
F0.0
sI8
F0.0
sI9
F0.0
sI10
F0.0
sg2
(g6
S'\xd0\xa6\xaa\x91 \x94\xdb?'
p450
tp451
Rp452
g12
I50
tp453
a(I89
F17.608124017715454
(dp454
I1
F0.9000000000000006
sI2
F0.0
sI3
F0.0
sI4
F0.9000000000000006
sI5
F0.0
sI6
F0.0
sI7
F0.0
sI8
F0.0
sI9
F0.0
sI10
F0.0
sg2
(g6
S'c\t\x97\x12u\xd0\xdb?'
p455
tp456
Rp457
g12
I50
tp458
a(I90
F17.801544904708862
(dp459
I1
F0.9100000000000006
sI2
F0.0
sI3
F0.0
sI4
F0.9100000000000006
sI5
F0.0
sI6
F0.0
sI7
F0.0
sI8
F0.0
sI9
F0.0
sI10
F0.0
sg2
(g6
S'\xe1c\xdd\x80]\x0c\xdc?'
p460
tp461
Rp462
g12
I50
tp463
a(I91
F17.99699592590332
(dp464
I1
F0.9200000000000006
sI2
F0.0
sI3
F0.0
sI4
F0.9200000000000006
sI5
F0.0
sI6
F0.0
sI7
F0.0
sI8
F0.0
sI9
F0.0
sI10
F0.0
sg2
(g6
S'L\xb6}\xdc\xd9G\xdc?'
p465
tp466
Rp467
g12
I50
tp468
a(I92
F18.19416904449463
(dp469
I1
F0.9300000000000006
sI2
F0.0
sI3
F0.0
sI4
F0.9300000000000006
sI5
F0.0
sI6
F0.0
sI7
F0.0
sI8
F0.0
sI9
F0.0
sI10
F0.0
sg2
(g6
S'\xa3\x00x%\xea\x82\xdc?'
p470
tp471
Rp472
g12
I50
tp473
a(I93
F18.392000913619995
(dp474
I1
F0.9400000000000006
sI2
F0.0
sI3
F0.0
sI4
F0.9400000000000006
sI5
F0.0
sI6
F0.0
sI7
F0.0
sI8
F0.0
sI9
F0.0
sI10
F0.0
sg2
(g6
S'\xe6B\xcc[\x8e\xbd\xdc?'
p475
tp476
Rp477
g12
I50
tp478
a(I94
F18.585620880126953
(dp479
I1
F0.9500000000000006
sI2
F0.0
sI3
F0.0
sI4
F0.9500000000000006
sI5
F0.0
sI6
F0.0
sI7
F0.0
sI8
F0.0
sI9
F0.0
sI10
F0.0
sg2
(g6
S'\x14}z\x7f\xc6\xf7\xdc?'
p480
tp481
Rp482
g12
I50
tp483
a(I95
F18.779951095581055
(dp484
I1
F0.9600000000000006
sI2
F0.0
sI3
F0.0
sI4
F0.9600000000000006
sI5
F0.0
sI6
F0.0
sI7
F0.0
sI8
F0.0
sI9
F0.0
sI10
F0.0
sg2
(g6
S'0\xaf\x82\x90\x921\xdd?'
p485
tp486
Rp487
g12
I50
tp488
a(I96
F18.97397494316101
(dp489
I1
F0.9700000000000006
sI2
F0.0
sI3
F0.0
sI4
F0.9700000000000006
sI5
F0.0
sI6
F0.0
sI7
F0.0
sI8
F0.0
sI9
F0.0
sI10
F0.0
sg2
(g6
S'6\xd9\xe4\x8e\xf2j\xdd?'
p490
tp491
Rp492
g12
I50
tp493
a(I97
F19.171555995941162
(dp494
I1
F0.9800000000000006
sI2
F0.0
sI3
F0.0
sI4
F0.9800000000000006
sI5
F0.0
sI6
F0.0
sI7
F0.0
sI8
F0.0
sI9
F0.0
sI10
F0.0
sg2
(g6
S'(\xfb\xa0z\xe6\xa3\xdd?'
p495
tp496
Rp497
g12
I50
tp498
a(I98
F19.37097406387329
(dp499
I1
F0.9900000000000007
sI2
F0.0
sI3
F0.0
sI4
F0.9900000000000007
sI5
F0.0
sI6
F0.0
sI7
F0.0
sI8
F0.0
sI9
F0.0
sI10
F0.0
sg2
(g6
S'\x08\x15\xb7Sn\xdc\xdd?'
p500
tp501
Rp502
g12
I50
tp503
a(I99
F19.565843105316162
(dp504
I1
F1.0000000000000007
sI2
F0.0
sI3
F0.0
sI4
F1.0000000000000007
sI5
F0.0
sI6
F0.0
sI7
F0.0
sI8
F0.0
sI9
F0.0
sI10
F0.0
sg2
(g6
S"\xd3&'\x1a\x8a\x14\xde?"
p505
tp506
Rp507
g12
I50
tp508
a.