(lp0
(I1
F114.96617388725281
cnumpy.core.multiarray
scalar
p1
(cnumpy
dtype
p2
(S'f8'
p3
I0
I1
tp4
Rp5
(I3
S'<'
p6
NNNI-1
I-1
I0
tp7
bS'\x864\x13\xd9\xc2\x88\xd5?'
p8
tp9
Rp10
tp11
a(I2
F115.77500891685486
g1
(g5
S"\xbd&'\x1a\x8a\x14\xde?"
p12
tp13
Rp14
tp15
a(I0
F115.3687150478363
g1
(g5
S'\x00\x00\x00\x00\x00\x00\x00\x00'
p16
tp17
Rp18
tp19
a(I4
F115.59460401535034
g1
(g5
S'(ns\xcb\x10&\xe6?'
p20
tp21
Rp22
tp23
a(I3
F120.7074499130249
g1
(g5
S'\xc3\xf1\xd8\xfa%\xcf\xe2?'
p24
tp25
Rp26
tp27
a.