(lp0
(I3
F1.8490300178527832
cnumpy.core.multiarray
scalar
p1
(cnumpy
dtype
p2
(S'f8'
p3
I0
I1
tp4
Rp5
(I3
S'<'
p6
NNNI-1
I-1
I0
tp7
bS'\xd9\xb9\xe1{\x93\xca\xd0?'
p8
tp9
Rp10
tp11
a(I1
F1.9473488330841064
g1
(g5
S'\xccF<y?f\xb8?'
p12
tp13
Rp14
tp15
a(I0
F1.8813040256500244
g1
(g5
S'\x00\x00\x00\x00\x00\x00\x00\x00'
p16
tp17
Rp18
tp19
a(I2
F2.074347972869873
g1
(g5
S'\x89\x96\xe4\x11PV\xc7?'
p20
tp21
Rp22
tp23
a(I4
F1.9056029319763184
g1
(g5
S'\x864\x13\xd9\xc2\x88\xd5?'
p24
tp25
Rp26
tp27
a.