(lp0
(I0
F1.9212360382080078
cnumpy.core.multiarray
scalar
p1
(cnumpy
dtype
p2
(S'f8'
p3
I0
I1
tp4
Rp5
(I3
S'<'
p6
NNNI-1
I-1
I0
tp7
bS'\x00\x00\x00\x00\x00\x00\x00\x00'
p8
tp9
Rp10
tp11
a(I3
F2.05525803565979
g1
(g5
S'\xd9\xb9\xe1{\x93\xca\xd0?'
p12
tp13
Rp14
tp15
a(I4
F2.0786550045013428
g1
(g5
S'\x864\x13\xd9\xc2\x88\xd5?'
p16
tp17
Rp18
tp19
a(I1
F1.9809339046478271
g1
(g5
S'\xccF<y?f\xb8?'
p20
tp21
Rp22
tp23
a.