(lp0
(I0
F55.79504585266113
cnumpy.core.multiarray
scalar
p1
(cnumpy
dtype
p2
(S'f8'
p3
I0
I1
tp4
Rp5
(I3
S'<'
p6
NNNI-1
I-1
I0
tp7
bS'\x00\x00\x00\x00\x00\x00\x00\x00'
p8
tp9
Rp10
tp11
a(I1
F59.6381630897522
g1
(g5
S'\x864\x13\xd9\xc2\x88\xd5?'
p12
tp13
Rp14
tp15
a(I2
F61.03865599632263
g1
(g5
S"\xbd&'\x1a\x8a\x14\xde?"
p16
tp17
Rp18
tp19
a(I3
F55.14055895805359
g1
(g5
S'\xc3\xf1\xd8\xfa%\xcf\xe2?'
p20
tp21
Rp22
tp23
a(I4
F57.660972118377686
g1
(g5
S'&R\xfa}\xdc\x1d\xe6?'
p24
tp25
Rp26
tp27
a.