(lp0
(I0
F1.930736780166626
cnumpy.core.multiarray
scalar
p1
(cnumpy
dtype
p2
(S'f8'
p3
I0
I1
tp4
Rp5
(I3
S'<'
p6
NNNI-1
I-1
I0
tp7
bS'\x00\x00\x00\x00\x00\x00\x00\x00'
p8
tp9
Rp10
tp11
a(I1
F2.066401958465576
g1
(g5
S'\xccF<y?f\xb8?'
p12
tp13
Rp14
tp15
a(I3
F1.9385809898376465
g1
(g5
S'\xd9\xb9\xe1{\x93\xca\xd0?'
p16
tp17
Rp18
tp19
a(I4
F1.9913721084594727
g1
(g5
S'\x864\x13\xd9\xc2\x88\xd5?'
p20
tp21
Rp22
tp23
a(I2
F2.1215670108795166
g1
(g5
S'\x89\x96\xe4\x11PV\xc7?'
p24
tp25
Rp26
tp27
a.