(lp0
(I2
F1.9331040382385254
cnumpy.core.multiarray
scalar
p1
(cnumpy
dtype
p2
(S'f8'
p3
I0
I1
tp4
Rp5
(I3
S'<'
p6
NNNI-1
I-1
I0
tp7
bS'\x89\x96\xe4\x11PV\xc7?'
p8
tp9
Rp10
tp11
a(I1
F1.8986189365386963
g1
(g5
S'\xccF<y?f\xb8?'
p12
tp13
Rp14
tp15
a(I4
F1.9680850505828857
g1
(g5
S'\x864\x13\xd9\xc2\x88\xd5?'
p16
tp17
Rp18
tp19
a(I3
F2.015839099884033
g1
(g5
S'\xd9\xb9\xe1{\x93\xca\xd0?'
p20
tp21
Rp22
tp23
a(I0
F2.059256076812744
g1
(g5
S'\x00\x00\x00\x00\x00\x00\x00\x00'
p24
tp25
Rp26
tp27
a.