(lp0
(I2
F2.005763053894043
cnumpy.core.multiarray
scalar
p1
(cnumpy
dtype
p2
(S'f8'
p3
I0
I1
tp4
Rp5
(I3
S'<'
p6
NNNI-1
I-1
I0
tp7
bS"\xbd&'\x1a\x8a\x14\xde?"
p8
tp9
Rp10
tp11
a(I1
F1.9824230670928955
g1
(g5
S'\x864\x13\xd9\xc2\x88\xd5?'
p12
tp13
Rp14
tp15
a(I0
F2.1913909912109375
g1
(g5
S'\x00\x00\x00\x00\x00\x00\x00\x00'
p16
tp17
Rp18
tp19
a(I4
F1.9951190948486328
g1
(g5
S'\xc6\x14@\x0c\xe9\x01\xe5?'
p20
tp21
Rp22
tp23
a(I3
F1.8996429443359375
g1
(g5
S'b\xec\xf1\xd4\xa5)\xe2?'
p24
tp25
Rp26
tp27
a.