(lp0
(I0
F0.18476009368896484
(dp1
I1537
F0.0
sI2
F0.0
sI771
F0.0
sI7425
F0.0
sI3848
F0.0
sI2064
F0.0
sI23
F0.0
sI280
F0.0
sI28
F0.0
sI31
F0.0
sI32
F0.0
sI1570
F0.0
sI35
F0.0
sI1060
F0.0
sI1833
F0.0
sI45
F0.0
sI564
F0.0
sI1845
F0.0
sI1847
F0.0
sI825
F0.0
sI1594
F0.0
sI1855
F0.0
sI6465
F0.0
sI67
F0.0
sI2116
F0.0
sI587
F0.0
sI591
F0.0
sI3922
F0.0
sI2702
F0.0
sI6487
F0.0
sI1624
F0.0
sI601
F0.0
sI1377
F0.0
sI1634
F0.0
sI1636
F0.0
sI5222
F0.0
sI2406
F0.0
sI4200
F0.0
sI5225
F0.0
sI6506
F0.0
sI146
F0.0
sI5230
F0.0
sI6001
F0.0
sI1394
F0.0
sI6772
F0.0
sI630
F0.0
sI120
F0.0
sI4927
F0.0
sI638
F0.0
sI1407
F0.0
sI1667
F0.0
sI7045
F0.0
sI646
F0.0
sI651
F0.0
sI653
F0.0
sI142
F0.0
sI493
F0.0
sI635
F0.0
sI1170
F0.0
sI662
F0.0
sI2967
F0.0
sI664
F0.0
sI3232
F0.0
sI1441
F0.0
sI2978
F0.0
sI2727
F0.0
sI4008
F0.0
sI170
F0.0
sI427
F0.0
sI4015
F0.0
sI1718
F0.0
sI884
F0.0
sI2234
F0.0
sI444
F0.0
sI1725
F0.0
sI448
F0.0
sI705
F0.0
sI1474
F0.0
sI196
F0.0
sI3525
F0.0
sI1223
F0.0
sI547
F0.0
sI1492
F0.0
sI71381
F0.0
sI726
F0.0
sI36
F0.0
sI1499
F0.0
sI6034
F0.0
sI71392
F0.0
sI738
F0.0
sI739
F0.0
sI2277
F0.0
sI1514
F0.0
sI1849
F0.0
sI3063
F0.0
sI1017
F0.0
sI4090
F0.0
sI1531
F0.0
sI764
F0.0
sI767
F0.0
scnumpy.core.multiarray
scalar
p2
(cnumpy
dtype
p3
(S'f8'
p4
I0
I1
tp5
Rp6
(I3
S'<'
p7
NNNI-1
I-1
I0
tp8
bS'\x03\x00\x00\x00\x00 \xc3\xbc'
p9
tp10
Rp11
S'polynomial'
p12
I1
F0.5
tp13
a(I1
F0.32031702995300293
(dp14
I1537
F0.0
sI2
F0.0
sI771
F0.0
sI7425
F0.0
sI3848
F0.0
sI2064
F0.0
sI23
F0.0
sI280
F0.0
sI28
F0.0
sI31
F0.0
sI32
F0.0
sI1570
F0.0
sI35
F0.0
sI1060
F0.0
sI1833
F0.0
sI45
F0.0
sI564
F0.0
sI1845
F0.0
sI1847
F0.0
sI825
F0.0
sI1594
F0.0
sI1855
F0.0
sI6465
F0.0
sI67
F0.0
sI2116
F0.0
sI587
F0.0
sI591
F0.0
sI3922
F0.0
sI2702
F0.0
sI6487
F0.0
sI1624
F0.0
sI601
F0.0
sI1377
F0.0
sI1634
F0.0
sI1636
F0.0
sI5222
F0.0
sI2406
F0.0
sI4200
F0.0
sI5225
F0.0
sI6506
F0.0
sI146
F0.0
sI5230
F0.0
sI6001
F0.0
sI1394
F0.0
sI6772
F0.0
sI630
F0.0
sI120
F0.0
sI4927
F0.0
sI638
F0.0
sI1407
F0.0
sI1667
F0.0
sI7045
F0.0
sI646
F0.0
sI651
F0.0
sI653
F0.0
sI142
F0.0
sI493
F0.0
sI635
F0.0
sI1170
F0.0
sI662
F0.0
sI2967
F0.0
sI664
F0.0
sI3232
F0.0
sI1441
F0.0
sI2978
F0.0
sI2727
F0.0
sI4008
F0.0
sI170
F0.0
sI427
F0.0
sI4015
F0.0
sI1718
F0.0
sI884
F0.0
sI2234
F0.0
sI444
F0.0
sI1725
F0.0
sI448
F0.0
sI705
F0.0
sI1474
F0.0
sI196
F0.0
sI3525
F0.0
sI1223
F0.0
sI547
F0.0
sI1492
F0.0
sI71381
F0.0
sI726
F0.0
sI36
F0.0
sI1499
F0.0
sI6034
F0.0
sI71392
F0.0
sI738
F0.0
sI739
F0.0
sI2277
F0.0
sI1514
F0.0
sI1849
F0.0
sI3063
F0.0
sI1017
F0.0
sI4090
F0.0
sI1531
F0.0
sI764
F0.0
sI767
F0.0
sg2
(g6
S'\x03\x00\x00\x00\x00 \xc3\xbc'
p15
tp16
Rp17
g12
I1
F0.5
tp18
a(I2
F0.45557117462158203
(dp19
I1537
F0.0
sI2
F0.0
sI771
F0.0
sI7425
F0.0
sI3848
F0.0
sI2064
F0.0
sI23
F0.0
sI280
F0.0
sI28
F0.0
sI31
F0.0
sI32
F0.0
sI1570
F0.0
sI35
F0.0
sI1060
F0.0
sI1833
F0.0
sI45
F0.0
sI564
F0.0
sI1845
F0.0
sI1847
F0.0
sI825
F0.0
sI1594
F0.0
sI1855
F0.0
sI6465
F0.0
sI67
F0.0
sI2116
F0.0
sI587
F0.0
sI591
F0.0
sI3922
F0.0
sI2702
F0.0
sI6487
F0.0
sI1624
F0.0
sI601
F0.0
sI1377
F0.0
sI1634
F0.0
sI1636
F0.0
sI5222
F0.0
sI2406
F0.0
sI4200
F0.0
sI5225
F0.0
sI6506
F0.0
sI146
F0.0
sI5230
F0.0
sI6001
F0.0
sI1394
F0.0
sI6772
F0.0
sI630
F0.0
sI120
F0.0
sI4927
F0.0
sI638
F0.0
sI1407
F0.0
sI1667
F0.0
sI7045
F0.0
sI646
F0.0
sI651
F0.0
sI653
F0.0
sI142
F0.0
sI493
F0.0
sI635
F0.0
sI1170
F0.0
sI662
F0.0
sI2967
F0.0
sI664
F0.0
sI3232
F0.0
sI1441
F0.0
sI2978
F0.0
sI2727
F0.0
sI4008
F0.0
sI170
F0.0
sI427
F0.0
sI4015
F0.0
sI1718
F0.0
sI884
F0.0
sI2234
F0.0
sI444
F0.0
sI1725
F0.0
sI448
F0.0
sI705
F0.0
sI1474
F0.0
sI196
F0.0
sI3525
F0.0
sI1223
F0.0
sI547
F0.0
sI1492
F0.0
sI71381
F0.0
sI726
F0.0
sI36
F0.0
sI1499
F0.0
sI6034
F0.0
sI71392
F0.0
sI738
F0.0
sI739
F0.0
sI2277
F0.0
sI1514
F0.0
sI1849
F0.0
sI3063
F0.0
sI1017
F0.0
sI4090
F0.0
sI1531
F0.0
sI764
F0.0
sI767
F0.0
sg2
(g6
S'\x03\x00\x00\x00\x00 \xc3\xbc'
p20
tp21
Rp22
g12
I1
F0.5
tp23
a(I3
F0.5910999774932861
(dp24
I1537
F0.0
sI2
F0.0
sI771
F0.0
sI7425
F0.0
sI3848
F0.0
sI2064
F0.0
sI23
F0.0
sI280
F0.0
sI28
F0.0
sI31
F0.0
sI32
F0.0
sI1570
F0.0
sI35
F0.0
sI1060
F0.0
sI1833
F0.0
sI45
F0.0
sI564
F0.0
sI1845
F0.0
sI1847
F0.0
sI825
F0.0
sI1594
F0.0
sI1855
F0.0
sI6465
F0.0
sI67
F0.0
sI2116
F0.0
sI587
F0.0
sI591
F0.0
sI3922
F0.0
sI2702
F0.0
sI6487
F0.0
sI1624
F0.0
sI601
F0.0
sI1377
F0.0
sI1634
F0.0
sI1636
F0.0
sI5222
F0.0
sI2406
F0.0
sI4200
F0.0
sI5225
F0.0
sI6506
F0.0
sI146
F0.0
sI5230
F0.0
sI6001
F0.0
sI1394
F0.0
sI6772
F0.0
sI630
F0.0
sI120
F0.0
sI4927
F0.0
sI638
F0.0
sI1407
F0.0
sI1667
F0.0
sI7045
F0.0
sI646
F0.0
sI651
F0.0
sI653
F0.0
sI142
F0.0
sI493
F0.0
sI635
F0.0
sI1170
F0.0
sI662
F0.0
sI2967
F0.0
sI664
F0.0
sI3232
F0.0
sI1441
F0.0
sI2978
F0.0
sI2727
F0.0
sI4008
F0.0
sI170
F0.0
sI427
F0.0
sI4015
F0.0
sI1718
F0.0
sI884
F0.0
sI2234
F0.0
sI444
F0.0
sI1725
F0.0
sI448
F0.0
sI705
F0.0
sI1474
F0.0
sI196
F0.0
sI3525
F0.0
sI1223
F0.0
sI547
F0.0
sI1492
F0.0
sI71381
F0.0
sI726
F0.0
sI36
F0.0
sI1499
F0.0
sI6034
F0.0
sI71392
F0.0
sI738
F0.0
sI739
F0.0
sI2277
F0.0
sI1514
F0.0
sI1849
F0.0
sI3063
F0.0
sI1017
F0.0
sI4090
F0.0
sI1531
F0.0
sI764
F0.0
sI767
F0.0
sg2
(g6
S'\x03\x00\x00\x00\x00 \xc3\xbc'
p25
tp26
Rp27
g12
I1
F0.5
tp28
a(I4
F0.7280020713806152
(dp29
I1537
F0.0
sI2
F0.0
sI771
F0.0
sI7425
F0.0
sI3848
F0.0
sI2064
F0.0
sI23
F0.0
sI280
F0.0
sI28
F0.0
sI31
F0.0
sI32
F0.0
sI1570
F0.0
sI35
F0.0
sI1060
F0.0
sI1833
F0.0
sI45
F0.0
sI564
F0.0
sI1845
F0.0
sI1847
F0.0
sI825
F0.0
sI1594
F0.0
sI1855
F0.0
sI6465
F0.0
sI67
F0.0
sI2116
F0.0
sI587
F0.0
sI591
F0.0
sI3922
F0.0
sI2702
F0.0
sI6487
F0.0
sI1624
F0.0
sI601
F0.0
sI1377
F0.0
sI1634
F0.0
sI1636
F0.0
sI5222
F0.0
sI2406
F0.0
sI4200
F0.0
sI5225
F0.0
sI6506
F0.0
sI146
F0.0
sI5230
F0.0
sI6001
F0.0
sI1394
F0.0
sI6772
F0.0
sI630
F0.0
sI120
F0.0
sI4927
F0.0
sI638
F0.0
sI1407
F0.0
sI1667
F0.0
sI7045
F0.0
sI646
F0.0
sI651
F0.0
sI653
F0.0
sI142
F0.0
sI493
F0.0
sI635
F0.0
sI1170
F0.0
sI662
F0.0
sI2967
F0.0
sI664
F0.0
sI3232
F0.0
sI1441
F0.0
sI2978
F0.0
sI2727
F0.0
sI4008
F0.0
sI170
F0.0
sI427
F0.0
sI4015
F0.0
sI1718
F0.0
sI884
F0.0
sI2234
F0.0
sI444
F0.0
sI1725
F0.0
sI448
F0.0
sI705
F0.0
sI1474
F0.0
sI196
F0.0
sI3525
F0.0
sI1223
F0.0
sI547
F0.0
sI1492
F0.0
sI71381
F0.0
sI726
F0.0
sI36
F0.0
sI1499
F0.0
sI6034
F0.0
sI71392
F0.0
sI738
F0.0
sI739
F0.0
sI2277
F0.0
sI1514
F0.0
sI1849
F0.0
sI3063
F0.0
sI1017
F0.0
sI4090
F0.0
sI1531
F0.0
sI764
F0.0
sI767
F0.0
sg2
(g6
S'\x03\x00\x00\x00\x00 \xc3\xbc'
p30
tp31
Rp32
g12
I1
F0.5
tp33
a(I5
F0.8643171787261963
(dp34
I1537
F0.0
sI2
F0.0
sI771
F0.0
sI7425
F0.0
sI3848
F0.0
sI2064
F0.0
sI23
F0.0
sI280
F0.0
sI28
F0.0
sI31
F0.0
sI32
F0.0
sI1570
F0.0
sI35
F0.0
sI1060
F0.0
sI1833
F0.0
sI45
F0.0
sI564
F0.0
sI1845
F0.0
sI1847
F0.0
sI825
F0.0
sI1594
F0.0
sI1855
F0.0
sI6465
F0.0
sI67
F0.0
sI2116
F0.0
sI587
F0.0
sI591
F0.0
sI3922
F0.0
sI2702
F0.0
sI6487
F0.0
sI1624
F0.0
sI601
F0.0
sI1377
F0.0
sI1634
F0.0
sI1636
F0.0
sI5222
F0.0
sI2406
F0.0
sI4200
F0.0
sI5225
F0.0
sI6506
F0.0
sI146
F0.0
sI5230
F0.0
sI6001
F0.0
sI1394
F0.0
sI6772
F0.0
sI630
F0.0
sI120
F0.0
sI4927
F0.0
sI638
F0.0
sI1407
F0.0
sI1667
F0.0
sI7045
F0.0
sI646
F0.0
sI651
F0.0
sI653
F0.0
sI142
F0.0
sI493
F0.0
sI635
F0.0
sI1170
F0.0
sI662
F0.0
sI2967
F0.0
sI664
F0.0
sI3232
F0.0
sI1441
F0.0
sI2978
F0.0
sI2727
F0.0
sI4008
F0.0
sI170
F0.0
sI427
F0.0
sI4015
F0.0
sI1718
F0.0
sI884
F0.0
sI2234
F0.0
sI444
F0.0
sI1725
F0.0
sI448
F0.0
sI705
F0.0
sI1474
F0.0
sI196
F0.0
sI3525
F0.0
sI1223
F0.0
sI547
F0.0
sI1492
F0.0
sI71381
F0.0
sI726
F0.0
sI36
F0.0
sI1499
F0.0
sI6034
F0.0
sI71392
F0.0
sI738
F0.0
sI739
F0.0
sI2277
F0.0
sI1514
F0.0
sI1849
F0.0
sI3063
F0.0
sI1017
F0.0
sI4090
F0.0
sI1531
F0.0
sI764
F0.0
sI767
F0.0
sg2
(g6
S'\x03\x00\x00\x00\x00 \xc3\xbc'
p35
tp36
Rp37
g12
I1
F0.5
tp38
a(I6
F1.0007901191711426
(dp39
I1537
F0.0
sI2
F0.0
sI771
F0.0
sI7425
F0.0
sI3848
F0.0
sI2064
F0.0
sI23
F0.0
sI280
F0.0
sI28
F0.0
sI31
F0.0
sI32
F0.0
sI1570
F0.0
sI35
F0.0
sI1060
F0.0
sI1833
F0.0
sI45
F0.0
sI564
F0.0
sI1845
F0.0
sI1847
F0.0
sI825
F0.0
sI1594
F0.0
sI1855
F0.0
sI6465
F0.0
sI67
F0.0
sI2116
F0.0
sI587
F0.0
sI591
F0.0
sI3922
F0.0
sI2702
F0.0
sI6487
F0.0
sI1624
F0.0
sI601
F0.0
sI1377
F0.0
sI1634
F0.0
sI1636
F0.0
sI5222
F0.0
sI2406
F0.0
sI4200
F0.0
sI5225
F0.0
sI6506
F0.0
sI146
F0.0
sI5230
F0.0
sI6001
F0.0
sI1394
F0.0
sI6772
F0.0
sI630
F0.0
sI120
F0.0
sI4927
F0.0
sI638
F0.0
sI1407
F0.0
sI1667
F0.0
sI7045
F0.0
sI646
F0.0
sI651
F0.0
sI653
F0.0
sI142
F0.0
sI493
F0.0
sI635
F0.0
sI1170
F0.0
sI662
F0.0
sI2967
F0.0
sI664
F0.0
sI3232
F0.0
sI1441
F0.0
sI2978
F0.0
sI2727
F0.0
sI4008
F0.0
sI170
F0.0
sI427
F0.0
sI4015
F0.0
sI1718
F0.0
sI884
F0.0
sI2234
F0.0
sI444
F0.0
sI1725
F0.0
sI448
F0.0
sI705
F0.0
sI1474
F0.0
sI196
F0.0
sI3525
F0.0
sI1223
F0.0
sI547
F0.0
sI1492
F0.0
sI71381
F0.0
sI726
F0.0
sI36
F0.0
sI1499
F0.0
sI6034
F0.0
sI71392
F0.0
sI738
F0.0
sI739
F0.0
sI2277
F0.0
sI1514
F0.0
sI1849
F0.0
sI3063
F0.0
sI1017
F0.0
sI4090
F0.0
sI1531
F0.0
sI764
F0.0
sI767
F0.0
sg2
(g6
S'\x03\x00\x00\x00\x00 \xc3\xbc'
p40
tp41
Rp42
g12
I1
F0.5
tp43
a(I7
F1.1376221179962158
(dp44
I1537
F0.0
sI2
F0.0
sI771
F0.0
sI7425
F0.0
sI3848
F0.0
sI2064
F0.0
sI23
F0.0
sI280
F0.0
sI28
F0.0
sI31
F0.0
sI32
F0.0
sI1570
F0.0
sI35
F0.0
sI1060
F0.0
sI1833
F0.0
sI45
F0.0
sI564
F0.0
sI1845
F0.0
sI1847
F0.0
sI825
F0.0
sI1594
F0.0
sI1855
F0.0
sI6465
F0.0
sI67
F0.0
sI2116
F0.0
sI587
F0.0
sI591
F0.0
sI3922
F0.0
sI2702
F0.0
sI6487
F0.0
sI1624
F0.0
sI601
F0.0
sI1377
F0.0
sI1634
F0.0
sI1636
F0.0
sI5222
F0.0
sI2406
F0.0
sI4200
F0.0
sI5225
F0.0
sI6506
F0.0
sI146
F0.0
sI5230
F0.0
sI6001
F0.0
sI1394
F0.0
sI6772
F0.0
sI630
F0.0
sI120
F0.0
sI4927
F0.0
sI638
F0.0
sI1407
F0.0
sI1667
F0.0
sI7045
F0.0
sI646
F0.0
sI651
F0.0
sI653
F0.0
sI142
F0.0
sI493
F0.0
sI635
F0.0
sI1170
F0.0
sI662
F0.0
sI2967
F0.0
sI664
F0.0
sI3232
F0.0
sI1441
F0.0
sI2978
F0.0
sI2727
F0.0
sI4008
F0.0
sI170
F0.0
sI427
F0.0
sI4015
F0.0
sI1718
F0.0
sI884
F0.0
sI2234
F0.0
sI444
F0.0
sI1725
F0.0
sI448
F0.0
sI705
F0.0
sI1474
F0.0
sI196
F0.0
sI3525
F0.0
sI1223
F0.0
sI547
F0.0
sI1492
F0.0
sI71381
F0.0
sI726
F0.0
sI36
F0.0
sI1499
F0.0
sI6034
F0.0
sI71392
F0.0
sI738
F0.0
sI739
F0.0
sI2277
F0.0
sI1514
F0.0
sI1849
F0.0
sI3063
F0.0
sI1017
F0.0
sI4090
F0.0
sI1531
F0.0
sI764
F0.0
sI767
F0.0
sg2
(g6
S'\x03\x00\x00\x00\x00 \xc3\xbc'
p45
tp46
Rp47
g12
I1
F0.5
tp48
a(I8
F1.275395154953003
(dp49
I1537
F0.0
sI2
F0.0
sI771
F0.0
sI7425
F0.0
sI3848
F0.0
sI2064
F0.0
sI23
F0.0
sI280
F0.0
sI28
F0.0
sI31
F0.0
sI32
F0.0
sI1570
F0.0
sI35
F0.0
sI1060
F0.0
sI1833
F0.0
sI45
F0.0
sI564
F0.0
sI1845
F0.0
sI1847
F0.0
sI825
F0.0
sI1594
F0.0
sI1855
F0.0
sI6465
F0.0
sI67
F0.0
sI2116
F0.0
sI587
F0.0
sI591
F0.0
sI3922
F0.0
sI2702
F0.0
sI6487
F0.0
sI1624
F0.0
sI601
F0.0
sI1377
F0.0
sI1634
F0.0
sI1636
F0.0
sI5222
F0.0
sI2406
F0.0
sI4200
F0.0
sI5225
F0.0
sI6506
F0.0
sI146
F0.0
sI5230
F0.0
sI6001
F0.0
sI1394
F0.0
sI6772
F0.0
sI630
F0.0
sI120
F0.0
sI4927
F0.0
sI638
F0.0
sI1407
F0.0
sI1667
F0.0
sI7045
F0.0
sI646
F0.0
sI651
F0.0
sI653
F0.0
sI142
F0.0
sI493
F0.0
sI635
F0.0
sI1170
F0.0
sI662
F0.0
sI2967
F0.0
sI664
F0.0
sI3232
F0.0
sI1441
F0.0
sI2978
F0.0
sI2727
F0.0
sI4008
F0.0
sI170
F0.0
sI427
F0.0
sI4015
F0.0
sI1718
F0.0
sI884
F0.0
sI2234
F0.0
sI444
F0.0
sI1725
F0.0
sI448
F0.0
sI705
F0.0
sI1474
F0.0
sI196
F0.0
sI3525
F0.0
sI1223
F0.0
sI547
F0.0
sI1492
F0.0
sI71381
F0.0
sI726
F0.0
sI36
F0.0
sI1499
F0.0
sI6034
F0.0
sI71392
F0.0
sI738
F0.0
sI739
F0.0
sI2277
F0.0
sI1514
F0.0
sI1849
F0.0
sI3063
F0.0
sI1017
F0.0
sI4090
F0.0
sI1531
F0.0
sI764
F0.0
sI767
F0.0
sg2
(g6
S'\x03\x00\x00\x00\x00 \xc3\xbc'
p50
tp51
Rp52
g12
I1
F0.5
tp53
a(I9
F1.4121990203857422
(dp54
I1537
F0.0
sI2
F0.0
sI771
F0.0
sI7425
F0.0
sI3848
F0.0
sI2064
F0.0
sI23
F0.0
sI280
F0.0
sI28
F0.0
sI31
F0.0
sI32
F0.0
sI1570
F0.0
sI35
F0.0
sI1060
F0.0
sI1833
F0.0
sI45
F0.0
sI564
F0.0
sI1845
F0.0
sI1847
F0.0
sI825
F0.0
sI1594
F0.0
sI1855
F0.0
sI6465
F0.0
sI67
F0.0
sI2116
F0.0
sI587
F0.0
sI591
F0.0
sI3922
F0.0
sI2702
F0.0
sI6487
F0.0
sI1624
F0.0
sI601
F0.0
sI1377
F0.0
sI1634
F0.0
sI1636
F0.0
sI5222
F0.0
sI2406
F0.0
sI4200
F0.0
sI5225
F0.0
sI6506
F0.0
sI146
F0.0
sI5230
F0.0
sI6001
F0.0
sI1394
F0.0
sI6772
F0.0
sI630
F0.0
sI120
F0.0
sI4927
F0.0
sI638
F0.0
sI1407
F0.0
sI1667
F0.0
sI7045
F0.0
sI646
F0.0
sI651
F0.0
sI653
F0.0
sI142
F0.0
sI493
F0.0
sI635
F0.0
sI1170
F0.0
sI662
F0.0
sI2967
F0.0
sI664
F0.0
sI3232
F0.0
sI1441
F0.0
sI2978
F0.0
sI2727
F0.0
sI4008
F0.0
sI170
F0.0
sI427
F0.0
sI4015
F0.0
sI1718
F0.0
sI884
F0.0
sI2234
F0.0
sI444
F0.0
sI1725
F0.0
sI448
F0.0
sI705
F0.0
sI1474
F0.0
sI196
F0.0
sI3525
F0.0
sI1223
F0.0
sI547
F0.0
sI1492
F0.0
sI71381
F0.0
sI726
F0.0
sI36
F0.0
sI1499
F0.0
sI6034
F0.0
sI71392
F0.0
sI738
F0.0
sI739
F0.0
sI2277
F0.0
sI1514
F0.0
sI1849
F0.0
sI3063
F0.0
sI1017
F0.0
sI4090
F0.0
sI1531
F0.0
sI764
F0.0
sI767
F0.0
sg2
(g6
S'\x03\x00\x00\x00\x00 \xc3\xbc'
p55
tp56
Rp57
g12
I1
F0.5
tp58
a(I10
F1.5489311218261719
(dp59
I1537
F0.0
sI2
F0.0
sI771
F0.0
sI7425
F0.0
sI3848
F0.0
sI2064
F0.0
sI23
F0.0
sI280
F0.0
sI28
F0.0
sI31
F0.0
sI32
F0.0
sI1570
F0.0
sI35
F0.0
sI1060
F0.0
sI1833
F0.0
sI45
F0.0
sI564
F0.0
sI1845
F0.0
sI1847
F0.0
sI825
F0.0
sI1594
F0.0
sI1855
F0.0
sI6465
F0.0
sI67
F0.0
sI2116
F0.0
sI587
F0.0
sI591
F0.0
sI3922
F0.0
sI2702
F0.0
sI6487
F0.0
sI1624
F0.0
sI601
F0.0
sI1377
F0.0
sI1634
F0.0
sI1636
F0.0
sI5222
F0.0
sI2406
F0.0
sI4200
F0.0
sI5225
F0.0
sI6506
F0.0
sI146
F0.0
sI5230
F0.0
sI6001
F0.0
sI1394
F0.0
sI6772
F0.0
sI630
F0.0
sI120
F0.0
sI4927
F0.0
sI638
F0.0
sI1407
F0.0
sI1667
F0.0
sI7045
F0.0
sI646
F0.0
sI651
F0.0
sI653
F0.0
sI142
F0.0
sI493
F0.0
sI635
F0.0
sI1170
F0.0
sI662
F0.0
sI2967
F0.0
sI664
F0.0
sI3232
F0.0
sI1441
F0.0
sI2978
F0.0
sI2727
F0.0
sI4008
F0.0
sI170
F0.0
sI427
F0.0
sI4015
F0.0
sI1718
F0.0
sI884
F0.0
sI2234
F0.0
sI444
F0.0
sI1725
F0.0
sI448
F0.0
sI705
F0.0
sI1474
F0.0
sI196
F0.0
sI3525
F0.0
sI1223
F0.0
sI547
F0.0
sI1492
F0.0
sI71381
F0.0
sI726
F0.0
sI36
F0.0
sI1499
F0.0
sI6034
F0.0
sI71392
F0.0
sI738
F0.0
sI739
F0.0
sI2277
F0.0
sI1514
F0.0
sI1849
F0.0
sI3063
F0.0
sI1017
F0.0
sI4090
F0.0
sI1531
F0.0
sI764
F0.0
sI767
F0.0
sg2
(g6
S'\x03\x00\x00\x00\x00 \xc3\xbc'
p60
tp61
Rp62
g12
I1
F0.5
tp63
a(I11
F1.6855721473693848
(dp64
I1537
F0.0
sI2
F0.0
sI771
F0.0
sI7425
F0.0
sI3848
F0.0
sI2064
F0.0
sI23
F0.0
sI280
F0.0
sI28
F0.0
sI31
F0.0
sI32
F0.0
sI1570
F0.0
sI35
F0.0
sI1060
F0.0
sI1833
F0.0
sI45
F0.0
sI564
F0.0
sI1845
F0.0
sI1847
F0.0
sI825
F0.0
sI1594
F0.0
sI1855
F0.0
sI6465
F0.0
sI67
F0.0
sI2116
F0.0
sI587
F0.0
sI591
F0.0
sI3922
F0.0
sI2702
F0.0
sI6487
F0.0
sI1624
F0.0
sI601
F0.0
sI1377
F0.0
sI1634
F0.0
sI1636
F0.0
sI5222
F0.0
sI2406
F0.0
sI4200
F0.0
sI5225
F0.0
sI6506
F0.0
sI146
F0.0
sI5230
F0.0
sI6001
F0.0
sI1394
F0.0
sI6772
F0.0
sI630
F0.0
sI120
F0.0
sI4927
F0.0
sI638
F0.0
sI1407
F0.0
sI1667
F0.0
sI7045
F0.0
sI646
F0.0
sI651
F0.0
sI653
F0.0
sI142
F0.0
sI493
F0.0
sI635
F0.0
sI1170
F0.0
sI662
F0.0
sI2967
F0.0
sI664
F0.0
sI3232
F0.0
sI1441
F0.0
sI2978
F0.0
sI2727
F0.0
sI4008
F0.0
sI170
F0.0
sI427
F0.0
sI4015
F0.0
sI1718
F0.0
sI884
F0.0
sI2234
F0.0
sI444
F0.0
sI1725
F0.0
sI448
F0.0
sI705
F0.0
sI1474
F0.0
sI196
F0.0
sI3525
F0.0
sI1223
F0.0
sI547
F0.0
sI1492
F0.0
sI71381
F0.0
sI726
F0.0
sI36
F0.0
sI1499
F0.0
sI6034
F0.0
sI71392
F0.0
sI738
F0.0
sI739
F0.0
sI2277
F0.0
sI1514
F0.0
sI1849
F0.0
sI3063
F0.0
sI1017
F0.0
sI4090
F0.0
sI1531
F0.0
sI764
F0.0
sI767
F0.0
sg2
(g6
S'\x03\x00\x00\x00\x00 \xc3\xbc'
p65
tp66
Rp67
g12
I1
F0.5
tp68
a(I12
F1.8229920864105225
(dp69
I1537
F0.0
sI2
F0.0
sI771
F0.0
sI7425
F0.0
sI3848
F0.0
sI2064
F0.0
sI23
F0.0
sI280
F0.0
sI28
F0.0
sI31
F0.0
sI32
F0.0
sI1570
F0.0
sI35
F0.0
sI1060
F0.0
sI1833
F0.0
sI45
F0.0
sI564
F0.0
sI1845
F0.0
sI1847
F0.0
sI825
F0.0
sI1594
F0.0
sI1855
F0.0
sI6465
F0.0
sI67
F0.0
sI2116
F0.0
sI587
F0.0
sI591
F0.0
sI3922
F0.0
sI2702
F0.0
sI6487
F0.0
sI1624
F0.0
sI601
F0.0
sI1377
F0.0
sI1634
F0.0
sI1636
F0.0
sI5222
F0.0
sI2406
F0.0
sI4200
F0.0
sI5225
F0.0
sI6506
F0.0
sI146
F0.0
sI5230
F0.0
sI6001
F0.0
sI1394
F0.0
sI6772
F0.0
sI630
F0.0
sI120
F0.0
sI4927
F0.0
sI638
F0.0
sI1407
F0.0
sI1667
F0.0
sI7045
F0.0
sI646
F0.0
sI651
F0.0
sI653
F0.0
sI142
F0.0
sI493
F0.0
sI635
F0.0
sI1170
F0.0
sI662
F0.0
sI2967
F0.0
sI664
F0.0
sI3232
F0.0
sI1441
F0.0
sI2978
F0.0
sI2727
F0.0
sI4008
F0.0
sI170
F0.0
sI427
F0.0
sI4015
F0.0
sI1718
F0.0
sI884
F0.0
sI2234
F0.0
sI444
F0.0
sI1725
F0.0
sI448
F0.0
sI705
F0.0
sI1474
F0.0
sI196
F0.0
sI3525
F0.0
sI1223
F0.0
sI547
F0.0
sI1492
F0.0
sI71381
F0.0
sI726
F0.0
sI36
F0.0
sI1499
F0.0
sI6034
F0.0
sI71392
F0.0
sI738
F0.0
sI739
F0.0
sI2277
F0.0
sI1514
F0.0
sI1849
F0.0
sI3063
F0.0
sI1017
F0.0
sI4090
F0.0
sI1531
F0.0
sI764
F0.0
sI767
F0.0
sg2
(g6
S'\x03\x00\x00\x00\x00 \xc3\xbc'
p70
tp71
Rp72
g12
I1
F0.5
tp73
a(I13
F1.9596071243286133
(dp74
I1537
F0.0
sI2
F0.0
sI771
F0.0
sI7425
F0.0
sI3848
F0.0
sI2064
F0.0
sI23
F0.0
sI280
F0.0
sI28
F0.0
sI31
F0.0
sI32
F0.0
sI1570
F0.0
sI35
F0.0
sI1060
F0.0
sI1833
F0.0
sI45
F0.0
sI564
F0.0
sI1845
F0.0
sI1847
F0.0
sI825
F0.0
sI1594
F0.0
sI1855
F0.0
sI6465
F0.0
sI67
F0.0
sI2116
F0.0
sI587
F0.0
sI591
F0.0
sI3922
F0.0
sI2702
F0.0
sI6487
F0.0
sI1624
F0.0
sI601
F0.0
sI1377
F0.0
sI1634
F0.0
sI1636
F0.0
sI5222
F0.0
sI2406
F0.0
sI4200
F0.0
sI5225
F0.0
sI6506
F0.0
sI146
F0.0
sI5230
F0.0
sI6001
F0.0
sI1394
F0.0
sI6772
F0.0
sI630
F0.0
sI120
F0.0
sI4927
F0.0
sI638
F0.0
sI1407
F0.0
sI1667
F0.0
sI7045
F0.0
sI646
F0.0
sI651
F0.0
sI653
F0.0
sI142
F0.0
sI493
F0.0
sI635
F0.0
sI1170
F0.0
sI662
F0.0
sI2967
F0.0
sI664
F0.0
sI3232
F0.0
sI1441
F0.0
sI2978
F0.0
sI2727
F0.0
sI4008
F0.0
sI170
F0.0
sI427
F0.0
sI4015
F0.0
sI1718
F0.0
sI884
F0.0
sI2234
F0.0
sI444
F0.0
sI1725
F0.0
sI448
F0.0
sI705
F0.0
sI1474
F0.0
sI196
F0.0
sI3525
F0.0
sI1223
F0.0
sI547
F0.0
sI1492
F0.0
sI71381
F0.0
sI726
F0.0
sI36
F0.0
sI1499
F0.0
sI6034
F0.0
sI71392
F0.0
sI738
F0.0
sI739
F0.0
sI2277
F0.0
sI1514
F0.0
sI1849
F0.0
sI3063
F0.0
sI1017
F0.0
sI4090
F0.0
sI1531
F0.0
sI764
F0.0
sI767
F0.0
sg2
(g6
S'\x03\x00\x00\x00\x00 \xc3\xbc'
p75
tp76
Rp77
g12
I1
F0.5
tp78
a(I14
F2.0964460372924805
(dp79
I1537
F0.0
sI2
F0.0
sI771
F0.0
sI7425
F0.0
sI3848
F0.0
sI2064
F0.0
sI23
F0.0
sI280
F0.0
sI28
F0.0
sI31
F0.0
sI32
F0.0
sI1570
F0.0
sI35
F0.0
sI1060
F0.0
sI1833
F0.0
sI45
F0.0
sI564
F0.0
sI1845
F0.0
sI1847
F0.0
sI825
F0.0
sI1594
F0.0
sI1855
F0.0
sI6465
F0.0
sI67
F0.0
sI2116
F0.0
sI587
F0.0
sI591
F0.0
sI3922
F0.0
sI2702
F0.0
sI6487
F0.0
sI1624
F0.0
sI601
F0.0
sI1377
F0.0
sI1634
F0.0
sI1636
F0.0
sI5222
F0.0
sI2406
F0.0
sI4200
F0.0
sI5225
F0.0
sI6506
F0.0
sI146
F0.0
sI5230
F0.0
sI6001
F0.0
sI1394
F0.0
sI6772
F0.0
sI630
F0.0
sI120
F0.0
sI4927
F0.0
sI638
F0.0
sI1407
F0.0
sI1667
F0.0
sI7045
F0.0
sI646
F0.0
sI651
F0.0
sI653
F0.0
sI142
F0.0
sI493
F0.0
sI635
F0.0
sI1170
F0.0
sI662
F0.0
sI2967
F0.0
sI664
F0.0
sI3232
F0.0
sI1441
F0.0
sI2978
F0.0
sI2727
F0.0
sI4008
F0.0
sI170
F0.0
sI427
F0.0
sI4015
F0.0
sI1718
F0.0
sI884
F0.0
sI2234
F0.0
sI444
F0.0
sI1725
F0.0
sI448
F0.0
sI705
F0.0
sI1474
F0.0
sI196
F0.0
sI3525
F0.0
sI1223
F0.0
sI547
F0.0
sI1492
F0.0
sI71381
F0.0
sI726
F0.0
sI36
F0.0
sI1499
F0.0
sI6034
F0.0
sI71392
F0.0
sI738
F0.0
sI739
F0.0
sI2277
F0.0
sI1514
F0.0
sI1849
F0.0
sI3063
F0.0
sI1017
F0.0
sI4090
F0.0
sI1531
F0.0
sI764
F0.0
sI767
F0.0
sg2
(g6
S'\x03\x00\x00\x00\x00 \xc3\xbc'
p80
tp81
Rp82
g12
I1
F0.5
tp83
a(I15
F2.23245906829834
(dp84
I1537
F0.0
sI2
F0.0
sI771
F0.0
sI7425
F0.0
sI3848
F0.0
sI2064
F0.0
sI23
F0.0
sI280
F0.0
sI28
F0.0
sI31
F0.0
sI32
F0.0
sI1570
F0.0
sI35
F0.0
sI1060
F0.0
sI1833
F0.0
sI45
F0.0
sI564
F0.0
sI1845
F0.0
sI1847
F0.0
sI825
F0.0
sI1594
F0.0
sI1855
F0.0
sI6465
F0.0
sI67
F0.0
sI2116
F0.0
sI587
F0.0
sI591
F0.0
sI3922
F0.0
sI2702
F0.0
sI6487
F0.0
sI1624
F0.0
sI601
F0.0
sI1377
F0.0
sI1634
F0.0
sI1636
F0.0
sI5222
F0.0
sI2406
F0.0
sI4200
F0.0
sI5225
F0.0
sI6506
F0.0
sI146
F0.0
sI5230
F0.0
sI6001
F0.0
sI1394
F0.0
sI6772
F0.0
sI630
F0.0
sI120
F0.0
sI4927
F0.0
sI638
F0.0
sI1407
F0.0
sI1667
F0.0
sI7045
F0.0
sI646
F0.0
sI651
F0.0
sI653
F0.0
sI142
F0.0
sI493
F0.0
sI635
F0.0
sI1170
F0.0
sI662
F0.0
sI2967
F0.0
sI664
F0.0
sI3232
F0.0
sI1441
F0.0
sI2978
F0.0
sI2727
F0.0
sI4008
F0.0
sI170
F0.0
sI427
F0.0
sI4015
F0.0
sI1718
F0.0
sI884
F0.0
sI2234
F0.0
sI444
F0.0
sI1725
F0.0
sI448
F0.0
sI705
F0.0
sI1474
F0.0
sI196
F0.0
sI3525
F0.0
sI1223
F0.0
sI547
F0.0
sI1492
F0.0
sI71381
F0.0
sI726
F0.0
sI36
F0.0
sI1499
F0.0
sI6034
F0.0
sI71392
F0.0
sI738
F0.0
sI739
F0.0
sI2277
F0.0
sI1514
F0.0
sI1849
F0.0
sI3063
F0.0
sI1017
F0.0
sI4090
F0.0
sI1531
F0.0
sI764
F0.0
sI767
F0.0
sg2
(g6
S'\x03\x00\x00\x00\x00 \xc3\xbc'
p85
tp86
Rp87
g12
I1
F0.5
tp88
a(I16
F2.3684871196746826
(dp89
I1537
F0.0
sI2
F0.0
sI771
F0.0
sI7425
F0.0
sI3848
F0.0
sI2064
F0.0
sI23
F0.0
sI280
F0.0
sI28
F0.0
sI31
F0.0
sI32
F0.0
sI1570
F0.0
sI35
F0.0
sI1060
F0.0
sI1833
F0.0
sI45
F0.0
sI564
F0.0
sI1845
F0.0
sI1847
F0.0
sI825
F0.0
sI1594
F0.0
sI1855
F0.0
sI6465
F0.0
sI67
F0.0
sI2116
F0.0
sI587
F0.0
sI591
F0.0
sI3922
F0.0
sI2702
F0.0
sI6487
F0.0
sI1624
F0.0
sI601
F0.0
sI1377
F0.0
sI1634
F0.0
sI1636
F0.0
sI5222
F0.0
sI2406
F0.0
sI4200
F0.0
sI5225
F0.0
sI6506
F0.0
sI146
F0.0
sI5230
F0.0
sI6001
F0.0
sI1394
F0.0
sI6772
F0.0
sI630
F0.0
sI120
F0.0
sI4927
F0.0
sI638
F0.0
sI1407
F0.0
sI1667
F0.0
sI7045
F0.0
sI646
F0.0
sI651
F0.0
sI653
F0.0
sI142
F0.0
sI493
F0.0
sI635
F0.0
sI1170
F0.0
sI662
F0.0
sI2967
F0.0
sI664
F0.0
sI3232
F0.0
sI1441
F0.0
sI2978
F0.0
sI2727
F0.0
sI4008
F0.0
sI170
F0.0
sI427
F0.0
sI4015
F0.0
sI1718
F0.0
sI884
F0.0
sI2234
F0.0
sI444
F0.0
sI1725
F0.0
sI448
F0.0
sI705
F0.0
sI1474
F0.0
sI196
F0.0
sI3525
F0.0
sI1223
F0.0
sI547
F0.0
sI1492
F0.0
sI71381
F0.0
sI726
F0.0
sI36
F0.0
sI1499
F0.0
sI6034
F0.0
sI71392
F0.0
sI738
F0.0
sI739
F0.0
sI2277
F0.0
sI1514
F0.0
sI1849
F0.0
sI3063
F0.0
sI1017
F0.0
sI4090
F0.0
sI1531
F0.0
sI764
F0.0
sI767
F0.0
sg2
(g6
S'\x03\x00\x00\x00\x00 \xc3\xbc'
p90
tp91
Rp92
g12
I1
F0.5
tp93
a(I17
F2.5050930976867676
(dp94
I1537
F0.0
sI2
F0.0
sI771
F0.0
sI7425
F0.0
sI3848
F0.0
sI2064
F0.0
sI23
F0.0
sI280
F0.0
sI28
F0.0
sI31
F0.0
sI32
F0.0
sI1570
F0.0
sI35
F0.0
sI1060
F0.0
sI1833
F0.0
sI45
F0.0
sI564
F0.0
sI1845
F0.0
sI1847
F0.0
sI825
F0.0
sI1594
F0.0
sI1855
F0.0
sI6465
F0.0
sI67
F0.0
sI2116
F0.0
sI587
F0.0
sI591
F0.0
sI3922
F0.0
sI2702
F0.0
sI6487
F0.0
sI1624
F0.0
sI601
F0.0
sI1377
F0.0
sI1634
F0.0
sI1636
F0.0
sI5222
F0.0
sI2406
F0.0
sI4200
F0.0
sI5225
F0.0
sI6506
F0.0
sI146
F0.0
sI5230
F0.0
sI6001
F0.0
sI1394
F0.0
sI6772
F0.0
sI630
F0.0
sI120
F0.0
sI4927
F0.0
sI638
F0.0
sI1407
F0.0
sI1667
F0.0
sI7045
F0.0
sI646
F0.0
sI651
F0.0
sI653
F0.0
sI142
F0.0
sI493
F0.0
sI635
F0.0
sI1170
F0.0
sI662
F0.0
sI2967
F0.0
sI664
F0.0
sI3232
F0.0
sI1441
F0.0
sI2978
F0.0
sI2727
F0.0
sI4008
F0.0
sI170
F0.0
sI427
F0.0
sI4015
F0.0
sI1718
F0.0
sI884
F0.0
sI2234
F0.0
sI444
F0.0
sI1725
F0.0
sI448
F0.0
sI705
F0.0
sI1474
F0.0
sI196
F0.0
sI3525
F0.0
sI1223
F0.0
sI547
F0.0
sI1492
F0.0
sI71381
F0.0
sI726
F0.0
sI36
F0.0
sI1499
F0.0
sI6034
F0.0
sI71392
F0.0
sI738
F0.0
sI739
F0.0
sI2277
F0.0
sI1514
F0.0
sI1849
F0.0
sI3063
F0.0
sI1017
F0.0
sI4090
F0.0
sI1531
F0.0
sI764
F0.0
sI767
F0.0
sg2
(g6
S'\x03\x00\x00\x00\x00 \xc3\xbc'
p95
tp96
Rp97
g12
I1
F0.5
tp98
a(I18
F2.6410701274871826
(dp99
I1537
F0.0
sI2
F0.0
sI771
F0.0
sI7425
F0.0
sI3848
F0.0
sI2064
F0.0
sI23
F0.0
sI280
F0.0
sI28
F0.0
sI31
F0.0
sI32
F0.0
sI1570
F0.0
sI35
F0.0
sI1060
F0.0
sI1833
F0.0
sI45
F0.0
sI564
F0.0
sI1845
F0.0
sI1847
F0.0
sI825
F0.0
sI1594
F0.0
sI1855
F0.0
sI6465
F0.0
sI67
F0.0
sI2116
F0.0
sI587
F0.0
sI591
F0.0
sI3922
F0.0
sI2702
F0.0
sI6487
F0.0
sI1624
F0.0
sI601
F0.0
sI1377
F0.0
sI1634
F0.0
sI1636
F0.0
sI5222
F0.0
sI2406
F0.0
sI4200
F0.0
sI5225
F0.0
sI6506
F0.0
sI146
F0.0
sI5230
F0.0
sI6001
F0.0
sI1394
F0.0
sI6772
F0.0
sI630
F0.0
sI120
F0.0
sI4927
F0.0
sI638
F0.0
sI1407
F0.0
sI1667
F0.0
sI7045
F0.0
sI646
F0.0
sI651
F0.0
sI653
F0.0
sI142
F0.0
sI493
F0.0
sI635
F0.0
sI1170
F0.0
sI662
F0.0
sI2967
F0.0
sI664
F0.0
sI3232
F0.0
sI1441
F0.0
sI2978
F0.0
sI2727
F0.0
sI4008
F0.0
sI170
F0.0
sI427
F0.0
sI4015
F0.0
sI1718
F0.0
sI884
F0.0
sI2234
F0.0
sI444
F0.0
sI1725
F0.0
sI448
F0.0
sI705
F0.0
sI1474
F0.0
sI196
F0.0
sI3525
F0.0
sI1223
F0.0
sI547
F0.0
sI1492
F0.0
sI71381
F0.0
sI726
F0.0
sI36
F0.0
sI1499
F0.0
sI6034
F0.0
sI71392
F0.0
sI738
F0.0
sI739
F0.0
sI2277
F0.0
sI1514
F0.0
sI1849
F0.0
sI3063
F0.0
sI1017
F0.0
sI4090
F0.0
sI1531
F0.0
sI764
F0.0
sI767
F0.0
sg2
(g6
S'\x03\x00\x00\x00\x00 \xc3\xbc'
p100
tp101
Rp102
g12
I1
F0.5
tp103
a(I19
F2.7806150913238525
(dp104
I1537
F0.0
sI2
F0.0
sI771
F0.0
sI7425
F0.0
sI3848
F0.0
sI2064
F0.0
sI23
F0.0
sI280
F0.0
sI28
F0.0
sI31
F0.0
sI32
F0.0
sI1570
F0.0
sI35
F0.0
sI1060
F0.0
sI1833
F0.0
sI45
F0.0
sI564
F0.0
sI1845
F0.0
sI1847
F0.0
sI825
F0.0
sI1594
F0.0
sI1855
F0.0
sI6465
F0.0
sI67
F0.0
sI2116
F0.0
sI587
F0.0
sI591
F0.0
sI3922
F0.0
sI2702
F0.0
sI6487
F0.0
sI1624
F0.0
sI601
F0.0
sI1377
F0.0
sI1634
F0.0
sI1636
F0.0
sI5222
F0.0
sI2406
F0.0
sI4200
F0.0
sI5225
F0.0
sI6506
F0.0
sI146
F0.0
sI5230
F0.0
sI6001
F0.0
sI1394
F0.0
sI6772
F0.0
sI630
F0.0
sI120
F0.0
sI4927
F0.0
sI638
F0.0
sI1407
F0.0
sI1667
F0.0
sI7045
F0.0
sI646
F0.0
sI651
F0.0
sI653
F0.0
sI142
F0.0
sI493
F0.0
sI635
F0.0
sI1170
F0.0
sI662
F0.0
sI2967
F0.0
sI664
F0.0
sI3232
F0.0
sI1441
F0.0
sI2978
F0.0
sI2727
F0.0
sI4008
F0.0
sI170
F0.0
sI427
F0.0
sI4015
F0.0
sI1718
F0.0
sI884
F0.0
sI2234
F0.0
sI444
F0.0
sI1725
F0.0
sI448
F0.0
sI705
F0.0
sI1474
F0.0
sI196
F0.0
sI3525
F0.0
sI1223
F0.0
sI547
F0.0
sI1492
F0.0
sI71381
F0.0
sI726
F0.0
sI36
F0.0
sI1499
F0.0
sI6034
F0.0
sI71392
F0.0
sI738
F0.0
sI739
F0.0
sI2277
F0.0
sI1514
F0.0
sI1849
F0.0
sI3063
F0.0
sI1017
F0.0
sI4090
F0.0
sI1531
F0.0
sI764
F0.0
sI767
F0.0
sg2
(g6
S'\x03\x00\x00\x00\x00 \xc3\xbc'
p105
tp106
Rp107
g12
I1
F0.5
tp108
a(I20
F2.9170751571655273
(dp109
I1537
F0.0
sI2
F0.0
sI771
F0.0
sI7425
F0.0
sI3848
F0.0
sI2064
F0.0
sI23
F0.0
sI280
F0.0
sI28
F0.0
sI31
F0.0
sI32
F0.0
sI1570
F0.0
sI35
F0.0
sI1060
F0.0
sI1833
F0.0
sI45
F0.0
sI564
F0.0
sI1845
F0.0
sI1847
F0.0
sI825
F0.0
sI1594
F0.0
sI1855
F0.0
sI6465
F0.0
sI67
F0.0
sI2116
F0.0
sI587
F0.0
sI591
F0.0
sI3922
F0.0
sI2702
F0.0
sI6487
F0.0
sI1624
F0.0
sI601
F0.0
sI1377
F0.0
sI1634
F0.0
sI1636
F0.0
sI5222
F0.0
sI2406
F0.0
sI4200
F0.0
sI5225
F0.0
sI6506
F0.0
sI146
F0.0
sI5230
F0.0
sI6001
F0.0
sI1394
F0.0
sI6772
F0.0
sI630
F0.0
sI120
F0.0
sI4927
F0.0
sI638
F0.0
sI1407
F0.0
sI1667
F0.0
sI7045
F0.0
sI646
F0.0
sI651
F0.0
sI653
F0.0
sI142
F0.0
sI493
F0.0
sI635
F0.0
sI1170
F0.0
sI662
F0.0
sI2967
F0.0
sI664
F0.0
sI3232
F0.0
sI1441
F0.0
sI2978
F0.0
sI2727
F0.0
sI4008
F0.0
sI170
F0.0
sI427
F0.0
sI4015
F0.0
sI1718
F0.0
sI884
F0.0
sI2234
F0.0
sI444
F0.0
sI1725
F0.0
sI448
F0.0
sI705
F0.0
sI1474
F0.0
sI196
F0.0
sI3525
F0.0
sI1223
F0.0
sI547
F0.0
sI1492
F0.0
sI71381
F0.0
sI726
F0.0
sI36
F0.0
sI1499
F0.0
sI6034
F0.0
sI71392
F0.0
sI738
F0.0
sI739
F0.0
sI2277
F0.0
sI1514
F0.0
sI1849
F0.0
sI3063
F0.0
sI1017
F0.0
sI4090
F0.0
sI1531
F0.0
sI764
F0.0
sI767
F0.0
sg2
(g6
S'\x03\x00\x00\x00\x00 \xc3\xbc'
p110
tp111
Rp112
g12
I1
F0.5
tp113
a(I21
F3.053201198577881
(dp114
I1537
F0.0
sI2
F0.0
sI771
F0.0
sI7425
F0.0
sI3848
F0.0
sI2064
F0.0
sI23
F0.0
sI280
F0.0
sI28
F0.0
sI31
F0.0
sI32
F0.0
sI1570
F0.0
sI35
F0.0
sI1060
F0.0
sI1833
F0.0
sI45
F0.0
sI564
F0.0
sI1845
F0.0
sI1847
F0.0
sI825
F0.0
sI1594
F0.0
sI1855
F0.0
sI6465
F0.0
sI67
F0.0
sI2116
F0.0
sI587
F0.0
sI591
F0.0
sI3922
F0.0
sI2702
F0.0
sI6487
F0.0
sI1624
F0.0
sI601
F0.0
sI1377
F0.0
sI1634
F0.0
sI1636
F0.0
sI5222
F0.0
sI2406
F0.0
sI4200
F0.0
sI5225
F0.0
sI6506
F0.0
sI146
F0.0
sI5230
F0.0
sI6001
F0.0
sI1394
F0.0
sI6772
F0.0
sI630
F0.0
sI120
F0.0
sI4927
F0.0
sI638
F0.0
sI1407
F0.0
sI1667
F0.0
sI7045
F0.0
sI646
F0.0
sI651
F0.0
sI653
F0.0
sI142
F0.0
sI493
F0.0
sI635
F0.0
sI1170
F0.0
sI662
F0.0
sI2967
F0.0
sI664
F0.0
sI3232
F0.0
sI1441
F0.0
sI2978
F0.0
sI2727
F0.0
sI4008
F0.0
sI170
F0.0
sI427
F0.0
sI4015
F0.0
sI1718
F0.0
sI884
F0.0
sI2234
F0.0
sI444
F0.0
sI1725
F0.0
sI448
F0.0
sI705
F0.0
sI1474
F0.0
sI196
F0.0
sI3525
F0.0
sI1223
F0.0
sI547
F0.0
sI1492
F0.0
sI71381
F0.0
sI726
F0.0
sI36
F0.0
sI1499
F0.0
sI6034
F0.0
sI71392
F0.0
sI738
F0.0
sI739
F0.0
sI2277
F0.0
sI1514
F0.0
sI1849
F0.0
sI3063
F0.0
sI1017
F0.0
sI4090
F0.0
sI1531
F0.0
sI764
F0.0
sI767
F0.0
sg2
(g6
S'\x03\x00\x00\x00\x00 \xc3\xbc'
p115
tp116
Rp117
g12
I1
F0.5
tp118
a(I22
F3.190885066986084
(dp119
I1537
F0.0
sI2
F0.0
sI771
F0.0
sI7425
F0.0
sI3848
F0.0
sI2064
F0.0
sI23
F0.0
sI280
F0.0
sI28
F0.0
sI31
F0.0
sI32
F0.0
sI1570
F0.0
sI35
F0.0
sI1060
F0.0
sI1833
F0.0
sI45
F0.0
sI564
F0.0
sI1845
F0.0
sI1847
F0.0
sI825
F0.0
sI1594
F0.0
sI1855
F0.0
sI6465
F0.0
sI67
F0.0
sI2116
F0.0
sI587
F0.0
sI591
F0.0
sI3922
F0.0
sI2702
F0.0
sI6487
F0.0
sI1624
F0.0
sI601
F0.0
sI1377
F0.0
sI1634
F0.0
sI1636
F0.0
sI5222
F0.0
sI2406
F0.0
sI4200
F0.0
sI5225
F0.0
sI6506
F0.0
sI146
F0.0
sI5230
F0.0
sI6001
F0.0
sI1394
F0.0
sI6772
F0.0
sI630
F0.0
sI120
F0.0
sI4927
F0.0
sI638
F0.0
sI1407
F0.0
sI1667
F0.0
sI7045
F0.0
sI646
F0.0
sI651
F0.0
sI653
F0.0
sI142
F0.0
sI493
F0.0
sI635
F0.0
sI1170
F0.0
sI662
F0.0
sI2967
F0.0
sI664
F0.0
sI3232
F0.0
sI1441
F0.0
sI2978
F0.0
sI2727
F0.0
sI4008
F0.0
sI170
F0.0
sI427
F0.0
sI4015
F0.0
sI1718
F0.0
sI884
F0.0
sI2234
F0.0
sI444
F0.0
sI1725
F0.0
sI448
F0.0
sI705
F0.0
sI1474
F0.0
sI196
F0.0
sI3525
F0.0
sI1223
F0.0
sI547
F0.0
sI1492
F0.0
sI71381
F0.0
sI726
F0.0
sI36
F0.0
sI1499
F0.0
sI6034
F0.0
sI71392
F0.0
sI738
F0.0
sI739
F0.0
sI2277
F0.0
sI1514
F0.0
sI1849
F0.0
sI3063
F0.0
sI1017
F0.0
sI4090
F0.0
sI1531
F0.0
sI764
F0.0
sI767
F0.0
sg2
(g6
S'\x03\x00\x00\x00\x00 \xc3\xbc'
p120
tp121
Rp122
g12
I1
F0.5
tp123
a(I23
F3.3283040523529053
(dp124
I1537
F0.0
sI2
F0.0
sI771
F0.0
sI7425
F0.0
sI3848
F0.0
sI2064
F0.0
sI23
F0.0
sI280
F0.0
sI28
F0.0
sI31
F0.0
sI32
F0.0
sI1570
F0.0
sI35
F0.0
sI1060
F0.0
sI1833
F0.0
sI45
F0.0
sI564
F0.0
sI1845
F0.0
sI1847
F0.0
sI825
F0.0
sI1594
F0.0
sI1855
F0.0
sI6465
F0.0
sI67
F0.0
sI2116
F0.0
sI587
F0.0
sI591
F0.0
sI3922
F0.0
sI2702
F0.0
sI6487
F0.0
sI1624
F0.0
sI601
F0.0
sI1377
F0.0
sI1634
F0.0
sI1636
F0.0
sI5222
F0.0
sI2406
F0.0
sI4200
F0.0
sI5225
F0.0
sI6506
F0.0
sI146
F0.0
sI5230
F0.0
sI6001
F0.0
sI1394
F0.0
sI6772
F0.0
sI630
F0.0
sI120
F0.0
sI4927
F0.0
sI638
F0.0
sI1407
F0.0
sI1667
F0.0
sI7045
F0.0
sI646
F0.0
sI651
F0.0
sI653
F0.0
sI142
F0.0
sI493
F0.0
sI635
F0.0
sI1170
F0.0
sI662
F0.0
sI2967
F0.0
sI664
F0.0
sI3232
F0.0
sI1441
F0.0
sI2978
F0.0
sI2727
F0.0
sI4008
F0.0
sI170
F0.0
sI427
F0.0
sI4015
F0.0
sI1718
F0.0
sI884
F0.0
sI2234
F0.0
sI444
F0.0
sI1725
F0.0
sI448
F0.0
sI705
F0.0
sI1474
F0.0
sI196
F0.0
sI3525
F0.0
sI1223
F0.0
sI547
F0.0
sI1492
F0.0
sI71381
F0.0
sI726
F0.0
sI36
F0.0
sI1499
F0.0
sI6034
F0.0
sI71392
F0.0
sI738
F0.0
sI739
F0.0
sI2277
F0.0
sI1514
F0.0
sI1849
F0.0
sI3063
F0.0
sI1017
F0.0
sI4090
F0.0
sI1531
F0.0
sI764
F0.0
sI767
F0.0
sg2
(g6
S'\x03\x00\x00\x00\x00 \xc3\xbc'
p125
tp126
Rp127
g12
I1
F0.5
tp128
a(I24
F3.464750051498413
(dp129
I1537
F0.0
sI2
F0.0
sI771
F0.0
sI7425
F0.0
sI3848
F0.0
sI2064
F0.0
sI23
F0.0
sI280
F0.0
sI28
F0.0
sI31
F0.0
sI32
F0.0
sI1570
F0.0
sI35
F0.0
sI1060
F0.0
sI1833
F0.0
sI45
F0.0
sI564
F0.0
sI1845
F0.0
sI1847
F0.0
sI825
F0.0
sI1594
F0.0
sI1855
F0.0
sI6465
F0.0
sI67
F0.0
sI2116
F0.0
sI587
F0.0
sI591
F0.0
sI3922
F0.0
sI2702
F0.0
sI6487
F0.0
sI1624
F0.0
sI601
F0.0
sI1377
F0.0
sI1634
F0.0
sI1636
F0.0
sI5222
F0.0
sI2406
F0.0
sI4200
F0.0
sI5225
F0.0
sI6506
F0.0
sI146
F0.0
sI5230
F0.0
sI6001
F0.0
sI1394
F0.0
sI6772
F0.0
sI630
F0.0
sI120
F0.0
sI4927
F0.0
sI638
F0.0
sI1407
F0.0
sI1667
F0.0
sI7045
F0.0
sI646
F0.0
sI651
F0.0
sI653
F0.0
sI142
F0.0
sI493
F0.0
sI635
F0.0
sI1170
F0.0
sI662
F0.0
sI2967
F0.0
sI664
F0.0
sI3232
F0.0
sI1441
F0.0
sI2978
F0.0
sI2727
F0.0
sI4008
F0.0
sI170
F0.0
sI427
F0.0
sI4015
F0.0
sI1718
F0.0
sI884
F0.0
sI2234
F0.0
sI444
F0.0
sI1725
F0.0
sI448
F0.0
sI705
F0.0
sI1474
F0.0
sI196
F0.0
sI3525
F0.0
sI1223
F0.0
sI547
F0.0
sI1492
F0.0
sI71381
F0.0
sI726
F0.0
sI36
F0.0
sI1499
F0.0
sI6034
F0.0
sI71392
F0.0
sI738
F0.0
sI739
F0.0
sI2277
F0.0
sI1514
F0.0
sI1849
F0.0
sI3063
F0.0
sI1017
F0.0
sI4090
F0.0
sI1531
F0.0
sI764
F0.0
sI767
F0.0
sg2
(g6
S'\x03\x00\x00\x00\x00 \xc3\xbc'
p130
tp131
Rp132
g12
I1
F0.5
tp133
a(I25
F3.601500988006592
(dp134
I1537
F0.0
sI2
F0.0
sI771
F0.0
sI7425
F0.0
sI3848
F0.0
sI2064
F0.0
sI23
F0.0
sI280
F0.0
sI28
F0.0
sI31
F0.0
sI32
F0.0
sI1570
F0.0
sI35
F0.0
sI1060
F0.0
sI1833
F0.0
sI45
F0.0
sI564
F0.0
sI1845
F0.0
sI1847
F0.0
sI825
F0.0
sI1594
F0.0
sI1855
F0.0
sI6465
F0.0
sI67
F0.0
sI2116
F0.0
sI587
F0.0
sI591
F0.0
sI3922
F0.0
sI2702
F0.0
sI6487
F0.0
sI1624
F0.0
sI601
F0.0
sI1377
F0.0
sI1634
F0.0
sI1636
F0.0
sI5222
F0.0
sI2406
F0.0
sI4200
F0.0
sI5225
F0.0
sI6506
F0.0
sI146
F0.0
sI5230
F0.0
sI6001
F0.0
sI1394
F0.0
sI6772
F0.0
sI630
F0.0
sI120
F0.0
sI4927
F0.0
sI638
F0.0
sI1407
F0.0
sI1667
F0.0
sI7045
F0.0
sI646
F0.0
sI651
F0.0
sI653
F0.0
sI142
F0.0
sI493
F0.0
sI635
F0.0
sI1170
F0.0
sI662
F0.0
sI2967
F0.0
sI664
F0.0
sI3232
F0.0
sI1441
F0.0
sI2978
F0.0
sI2727
F0.0
sI4008
F0.0
sI170
F0.0
sI427
F0.0
sI4015
F0.0
sI1718
F0.0
sI884
F0.0
sI2234
F0.0
sI444
F0.0
sI1725
F0.0
sI448
F0.0
sI705
F0.0
sI1474
F0.0
sI196
F0.0
sI3525
F0.0
sI1223
F0.0
sI547
F0.0
sI1492
F0.0
sI71381
F0.0
sI726
F0.0
sI36
F0.0
sI1499
F0.0
sI6034
F0.0
sI71392
F0.0
sI738
F0.0
sI739
F0.0
sI2277
F0.0
sI1514
F0.0
sI1849
F0.0
sI3063
F0.0
sI1017
F0.0
sI4090
F0.0
sI1531
F0.0
sI764
F0.0
sI767
F0.0
sg2
(g6
S'\x03\x00\x00\x00\x00 \xc3\xbc'
p135
tp136
Rp137
g12
I1
F0.5
tp138
a(I26
F3.737977981567383
(dp139
I1537
F0.0
sI2
F0.0
sI771
F0.0
sI7425
F0.0
sI3848
F0.0
sI2064
F0.0
sI23
F0.0
sI280
F0.0
sI28
F0.0
sI31
F0.0
sI32
F0.0
sI1570
F0.0
sI35
F0.0
sI1060
F0.0
sI1833
F0.0
sI45
F0.0
sI564
F0.0
sI1845
F0.0
sI1847
F0.0
sI825
F0.0
sI1594
F0.0
sI1855
F0.0
sI6465
F0.0
sI67
F0.0
sI2116
F0.0
sI587
F0.0
sI591
F0.0
sI3922
F0.0
sI2702
F0.0
sI6487
F0.0
sI1624
F0.0
sI601
F0.0
sI1377
F0.0
sI1634
F0.0
sI1636
F0.0
sI5222
F0.0
sI2406
F0.0
sI4200
F0.0
sI5225
F0.0
sI6506
F0.0
sI146
F0.0
sI5230
F0.0
sI6001
F0.0
sI1394
F0.0
sI6772
F0.0
sI630
F0.0
sI120
F0.0
sI4927
F0.0
sI638
F0.0
sI1407
F0.0
sI1667
F0.0
sI7045
F0.0
sI646
F0.0
sI651
F0.0
sI653
F0.0
sI142
F0.0
sI493
F0.0
sI635
F0.0
sI1170
F0.0
sI662
F0.0
sI2967
F0.0
sI664
F0.0
sI3232
F0.0
sI1441
F0.0
sI2978
F0.0
sI2727
F0.0
sI4008
F0.0
sI170
F0.0
sI427
F0.0
sI4015
F0.0
sI1718
F0.0
sI884
F0.0
sI2234
F0.0
sI444
F0.0
sI1725
F0.0
sI448
F0.0
sI705
F0.0
sI1474
F0.0
sI196
F0.0
sI3525
F0.0
sI1223
F0.0
sI547
F0.0
sI1492
F0.0
sI71381
F0.0
sI726
F0.0
sI36
F0.0
sI1499
F0.0
sI6034
F0.0
sI71392
F0.0
sI738
F0.0
sI739
F0.0
sI2277
F0.0
sI1514
F0.0
sI1849
F0.0
sI3063
F0.0
sI1017
F0.0
sI4090
F0.0
sI1531
F0.0
sI764
F0.0
sI767
F0.0
sg2
(g6
S'\x03\x00\x00\x00\x00 \xc3\xbc'
p140
tp141
Rp142
g12
I1
F0.5
tp143
a(I27
F3.874969005584717
(dp144
I1537
F0.0
sI2
F0.0
sI771
F0.0
sI7425
F0.0
sI3848
F0.0
sI2064
F0.0
sI23
F0.0
sI280
F0.0
sI28
F0.0
sI31
F0.0
sI32
F0.0
sI1570
F0.0
sI35
F0.0
sI1060
F0.0
sI1833
F0.0
sI45
F0.0
sI564
F0.0
sI1845
F0.0
sI1847
F0.0
sI825
F0.0
sI1594
F0.0
sI1855
F0.0
sI6465
F0.0
sI67
F0.0
sI2116
F0.0
sI587
F0.0
sI591
F0.0
sI3922
F0.0
sI2702
F0.0
sI6487
F0.0
sI1624
F0.0
sI601
F0.0
sI1377
F0.0
sI1634
F0.0
sI1636
F0.0
sI5222
F0.0
sI2406
F0.0
sI4200
F0.0
sI5225
F0.0
sI6506
F0.0
sI146
F0.0
sI5230
F0.0
sI6001
F0.0
sI1394
F0.0
sI6772
F0.0
sI630
F0.0
sI120
F0.0
sI4927
F0.0
sI638
F0.0
sI1407
F0.0
sI1667
F0.0
sI7045
F0.0
sI646
F0.0
sI651
F0.0
sI653
F0.0
sI142
F0.0
sI493
F0.0
sI635
F0.0
sI1170
F0.0
sI662
F0.0
sI2967
F0.0
sI664
F0.0
sI3232
F0.0
sI1441
F0.0
sI2978
F0.0
sI2727
F0.0
sI4008
F0.0
sI170
F0.0
sI427
F0.0
sI4015
F0.0
sI1718
F0.0
sI884
F0.0
sI2234
F0.0
sI444
F0.0
sI1725
F0.0
sI448
F0.0
sI705
F0.0
sI1474
F0.0
sI196
F0.0
sI3525
F0.0
sI1223
F0.0
sI547
F0.0
sI1492
F0.0
sI71381
F0.0
sI726
F0.0
sI36
F0.0
sI1499
F0.0
sI6034
F0.0
sI71392
F0.0
sI738
F0.0
sI739
F0.0
sI2277
F0.0
sI1514
F0.0
sI1849
F0.0
sI3063
F0.0
sI1017
F0.0
sI4090
F0.0
sI1531
F0.0
sI764
F0.0
sI767
F0.0
sg2
(g6
S'\x03\x00\x00\x00\x00 \xc3\xbc'
p145
tp146
Rp147
g12
I1
F0.5
tp148
a(I28
F4.0116870403289795
(dp149
I1537
F0.0
sI2
F0.0
sI771
F0.0
sI7425
F0.0
sI3848
F0.0
sI2064
F0.0
sI23
F0.0
sI280
F0.0
sI28
F0.0
sI31
F0.0
sI32
F0.0
sI1570
F0.0
sI35
F0.0
sI1060
F0.0
sI1833
F0.0
sI45
F0.0
sI564
F0.0
sI1845
F0.0
sI1847
F0.0
sI825
F0.0
sI1594
F0.0
sI1855
F0.0
sI6465
F0.0
sI67
F0.0
sI2116
F0.0
sI587
F0.0
sI591
F0.0
sI3922
F0.0
sI2702
F0.0
sI6487
F0.0
sI1624
F0.0
sI601
F0.0
sI1377
F0.0
sI1634
F0.0
sI1636
F0.0
sI5222
F0.0
sI2406
F0.0
sI4200
F0.0
sI5225
F0.0
sI6506
F0.0
sI146
F0.0
sI5230
F0.0
sI6001
F0.0
sI1394
F0.0
sI6772
F0.0
sI630
F0.0
sI120
F0.0
sI4927
F0.0
sI638
F0.0
sI1407
F0.0
sI1667
F0.0
sI7045
F0.0
sI646
F0.0
sI651
F0.0
sI653
F0.0
sI142
F0.0
sI493
F0.0
sI635
F0.0
sI1170
F0.0
sI662
F0.0
sI2967
F0.0
sI664
F0.0
sI3232
F0.0
sI1441
F0.0
sI2978
F0.0
sI2727
F0.0
sI4008
F0.0
sI170
F0.0
sI427
F0.0
sI4015
F0.0
sI1718
F0.0
sI884
F0.0
sI2234
F0.0
sI444
F0.0
sI1725
F0.0
sI448
F0.0
sI705
F0.0
sI1474
F0.0
sI196
F0.0
sI3525
F0.0
sI1223
F0.0
sI547
F0.0
sI1492
F0.0
sI71381
F0.0
sI726
F0.0
sI36
F0.0
sI1499
F0.0
sI6034
F0.0
sI71392
F0.0
sI738
F0.0
sI739
F0.0
sI2277
F0.0
sI1514
F0.0
sI1849
F0.0
sI3063
F0.0
sI1017
F0.0
sI4090
F0.0
sI1531
F0.0
sI764
F0.0
sI767
F0.0
sg2
(g6
S'\x03\x00\x00\x00\x00 \xc3\xbc'
p150
tp151
Rp152
g12
I1
F0.5
tp153
a(I29
F4.14811897277832
(dp154
I1537
F0.0
sI2
F0.0
sI771
F0.0
sI7425
F0.0
sI3848
F0.0
sI2064
F0.0
sI23
F0.0
sI280
F0.0
sI28
F0.0
sI31
F0.0
sI32
F0.0
sI1570
F0.0
sI35
F0.0
sI1060
F0.0
sI1833
F0.0
sI45
F0.0
sI564
F0.0
sI1845
F0.0
sI1847
F0.0
sI825
F0.0
sI1594
F0.0
sI1855
F0.0
sI6465
F0.0
sI67
F0.0
sI2116
F0.0
sI587
F0.0
sI591
F0.0
sI3922
F0.0
sI2702
F0.0
sI6487
F0.0
sI1624
F0.0
sI601
F0.0
sI1377
F0.0
sI1634
F0.0
sI1636
F0.0
sI5222
F0.0
sI2406
F0.0
sI4200
F0.0
sI5225
F0.0
sI6506
F0.0
sI146
F0.0
sI5230
F0.0
sI6001
F0.0
sI1394
F0.0
sI6772
F0.0
sI630
F0.0
sI120
F0.0
sI4927
F0.0
sI638
F0.0
sI1407
F0.0
sI1667
F0.0
sI7045
F0.0
sI646
F0.0
sI651
F0.0
sI653
F0.0
sI142
F0.0
sI493
F0.0
sI635
F0.0
sI1170
F0.0
sI662
F0.0
sI2967
F0.0
sI664
F0.0
sI3232
F0.0
sI1441
F0.0
sI2978
F0.0
sI2727
F0.0
sI4008
F0.0
sI170
F0.0
sI427
F0.0
sI4015
F0.0
sI1718
F0.0
sI884
F0.0
sI2234
F0.0
sI444
F0.0
sI1725
F0.0
sI448
F0.0
sI705
F0.0
sI1474
F0.0
sI196
F0.0
sI3525
F0.0
sI1223
F0.0
sI547
F0.0
sI1492
F0.0
sI71381
F0.0
sI726
F0.0
sI36
F0.0
sI1499
F0.0
sI6034
F0.0
sI71392
F0.0
sI738
F0.0
sI739
F0.0
sI2277
F0.0
sI1514
F0.0
sI1849
F0.0
sI3063
F0.0
sI1017
F0.0
sI4090
F0.0
sI1531
F0.0
sI764
F0.0
sI767
F0.0
sg2
(g6
S'\x03\x00\x00\x00\x00 \xc3\xbc'
p155
tp156
Rp157
g12
I1
F0.5
tp158
a(I30
F4.2849061489105225
(dp159
I1537
F0.0
sI2
F0.0
sI771
F0.0
sI7425
F0.0
sI3848
F0.0
sI2064
F0.0
sI23
F0.0
sI280
F0.0
sI28
F0.0
sI31
F0.0
sI32
F0.0
sI1570
F0.0
sI35
F0.0
sI1060
F0.0
sI1833
F0.0
sI45
F0.0
sI564
F0.0
sI1845
F0.0
sI1847
F0.0
sI825
F0.0
sI1594
F0.0
sI1855
F0.0
sI6465
F0.0
sI67
F0.0
sI2116
F0.0
sI587
F0.0
sI591
F0.0
sI3922
F0.0
sI2702
F0.0
sI6487
F0.0
sI1624
F0.0
sI601
F0.0
sI1377
F0.0
sI1634
F0.0
sI1636
F0.0
sI5222
F0.0
sI2406
F0.0
sI4200
F0.0
sI5225
F0.0
sI6506
F0.0
sI146
F0.0
sI5230
F0.0
sI6001
F0.0
sI1394
F0.0
sI6772
F0.0
sI630
F0.0
sI120
F0.0
sI4927
F0.0
sI638
F0.0
sI1407
F0.0
sI1667
F0.0
sI7045
F0.0
sI646
F0.0
sI651
F0.0
sI653
F0.0
sI142
F0.0
sI493
F0.0
sI635
F0.0
sI1170
F0.0
sI662
F0.0
sI2967
F0.0
sI664
F0.0
sI3232
F0.0
sI1441
F0.0
sI2978
F0.0
sI2727
F0.0
sI4008
F0.0
sI170
F0.0
sI427
F0.0
sI4015
F0.0
sI1718
F0.0
sI884
F0.0
sI2234
F0.0
sI444
F0.0
sI1725
F0.0
sI448
F0.0
sI705
F0.0
sI1474
F0.0
sI196
F0.0
sI3525
F0.0
sI1223
F0.0
sI547
F0.0
sI1492
F0.0
sI71381
F0.0
sI726
F0.0
sI36
F0.0
sI1499
F0.0
sI6034
F0.0
sI71392
F0.0
sI738
F0.0
sI739
F0.0
sI2277
F0.0
sI1514
F0.0
sI1849
F0.0
sI3063
F0.0
sI1017
F0.0
sI4090
F0.0
sI1531
F0.0
sI764
F0.0
sI767
F0.0
sg2
(g6
S'\x03\x00\x00\x00\x00 \xc3\xbc'
p160
tp161
Rp162
g12
I1
F0.5
tp163
a(I31
F4.422070026397705
(dp164
I1537
F0.0
sI2
F0.0
sI771
F0.0
sI7425
F0.0
sI3848
F0.0
sI2064
F0.0
sI23
F0.0
sI280
F0.0
sI28
F0.0
sI31
F0.0
sI32
F0.0
sI1570
F0.0
sI35
F0.0
sI1060
F0.0
sI1833
F0.0
sI45
F0.0
sI564
F0.0
sI1845
F0.0
sI1847
F0.0
sI825
F0.0
sI1594
F0.0
sI1855
F0.0
sI6465
F0.0
sI67
F0.0
sI2116
F0.0
sI587
F0.0
sI591
F0.0
sI3922
F0.0
sI2702
F0.0
sI6487
F0.0
sI1624
F0.0
sI601
F0.0
sI1377
F0.0
sI1634
F0.0
sI1636
F0.0
sI5222
F0.0
sI2406
F0.0
sI4200
F0.0
sI5225
F0.0
sI6506
F0.0
sI146
F0.0
sI5230
F0.0
sI6001
F0.0
sI1394
F0.0
sI6772
F0.0
sI630
F0.0
sI120
F0.0
sI4927
F0.0
sI638
F0.0
sI1407
F0.0
sI1667
F0.0
sI7045
F0.0
sI646
F0.0
sI651
F0.0
sI653
F0.0
sI142
F0.0
sI493
F0.0
sI635
F0.0
sI1170
F0.0
sI662
F0.0
sI2967
F0.0
sI664
F0.0
sI3232
F0.0
sI1441
F0.0
sI2978
F0.0
sI2727
F0.0
sI4008
F0.0
sI170
F0.0
sI427
F0.0
sI4015
F0.0
sI1718
F0.0
sI884
F0.0
sI2234
F0.0
sI444
F0.0
sI1725
F0.0
sI448
F0.0
sI705
F0.0
sI1474
F0.0
sI196
F0.0
sI3525
F0.0
sI1223
F0.0
sI547
F0.0
sI1492
F0.0
sI71381
F0.0
sI726
F0.0
sI36
F0.0
sI1499
F0.0
sI6034
F0.0
sI71392
F0.0
sI738
F0.0
sI739
F0.0
sI2277
F0.0
sI1514
F0.0
sI1849
F0.0
sI3063
F0.0
sI1017
F0.0
sI4090
F0.0
sI1531
F0.0
sI764
F0.0
sI767
F0.0
sg2
(g6
S'\x03\x00\x00\x00\x00 \xc3\xbc'
p165
tp166
Rp167
g12
I1
F0.5
tp168
a(I32
F4.558848142623901
(dp169
I1537
F0.0
sI2
F0.0
sI771
F0.0
sI7425
F0.0
sI3848
F0.0
sI2064
F0.0
sI23
F0.0
sI280
F0.0
sI28
F0.0
sI31
F0.0
sI32
F0.0
sI1570
F0.0
sI35
F0.0
sI1060
F0.0
sI1833
F0.0
sI45
F0.0
sI564
F0.0
sI1845
F0.0
sI1847
F0.0
sI825
F0.0
sI1594
F0.0
sI1855
F0.0
sI6465
F0.0
sI67
F0.0
sI2116
F0.0
sI587
F0.0
sI591
F0.0
sI3922
F0.0
sI2702
F0.0
sI6487
F0.0
sI1624
F0.0
sI601
F0.0
sI1377
F0.0
sI1634
F0.0
sI1636
F0.0
sI5222
F0.0
sI2406
F0.0
sI4200
F0.0
sI5225
F0.0
sI6506
F0.0
sI146
F0.0
sI5230
F0.0
sI6001
F0.0
sI1394
F0.0
sI6772
F0.0
sI630
F0.0
sI120
F0.0
sI4927
F0.0
sI638
F0.0
sI1407
F0.0
sI1667
F0.0
sI7045
F0.0
sI646
F0.0
sI651
F0.0
sI653
F0.0
sI142
F0.0
sI493
F0.0
sI635
F0.0
sI1170
F0.0
sI662
F0.0
sI2967
F0.0
sI664
F0.0
sI3232
F0.0
sI1441
F0.0
sI2978
F0.0
sI2727
F0.0
sI4008
F0.0
sI170
F0.0
sI427
F0.0
sI4015
F0.0
sI1718
F0.0
sI884
F0.0
sI2234
F0.0
sI444
F0.0
sI1725
F0.0
sI448
F0.0
sI705
F0.0
sI1474
F0.0
sI196
F0.0
sI3525
F0.0
sI1223
F0.0
sI547
F0.0
sI1492
F0.0
sI71381
F0.0
sI726
F0.0
sI36
F0.0
sI1499
F0.0
sI6034
F0.0
sI71392
F0.0
sI738
F0.0
sI739
F0.0
sI2277
F0.0
sI1514
F0.0
sI1849
F0.0
sI3063
F0.0
sI1017
F0.0
sI4090
F0.0
sI1531
F0.0
sI764
F0.0
sI767
F0.0
sg2
(g6
S'\x03\x00\x00\x00\x00 \xc3\xbc'
p170
tp171
Rp172
g12
I1
F0.5
tp173
a(I33
F4.69597601890564
(dp174
I1537
F0.0
sI2
F0.0
sI771
F0.0
sI7425
F0.0
sI3848
F0.0
sI2064
F0.0
sI23
F0.0
sI280
F0.0
sI28
F0.0
sI31
F0.0
sI32
F0.0
sI1570
F0.0
sI35
F0.0
sI1060
F0.0
sI1833
F0.0
sI45
F0.0
sI564
F0.0
sI1845
F0.0
sI1847
F0.0
sI825
F0.0
sI1594
F0.0
sI1855
F0.0
sI6465
F0.0
sI67
F0.0
sI2116
F0.0
sI587
F0.0
sI591
F0.0
sI3922
F0.0
sI2702
F0.0
sI6487
F0.0
sI1624
F0.0
sI601
F0.0
sI1377
F0.0
sI1634
F0.0
sI1636
F0.0
sI5222
F0.0
sI2406
F0.0
sI4200
F0.0
sI5225
F0.0
sI6506
F0.0
sI146
F0.0
sI5230
F0.0
sI6001
F0.0
sI1394
F0.0
sI6772
F0.0
sI630
F0.0
sI120
F0.0
sI4927
F0.0
sI638
F0.0
sI1407
F0.0
sI1667
F0.0
sI7045
F0.0
sI646
F0.0
sI651
F0.0
sI653
F0.0
sI142
F0.0
sI493
F0.0
sI635
F0.0
sI1170
F0.0
sI662
F0.0
sI2967
F0.0
sI664
F0.0
sI3232
F0.0
sI1441
F0.0
sI2978
F0.0
sI2727
F0.0
sI4008
F0.0
sI170
F0.0
sI427
F0.0
sI4015
F0.0
sI1718
F0.0
sI884
F0.0
sI2234
F0.0
sI444
F0.0
sI1725
F0.0
sI448
F0.0
sI705
F0.0
sI1474
F0.0
sI196
F0.0
sI3525
F0.0
sI1223
F0.0
sI547
F0.0
sI1492
F0.0
sI71381
F0.0
sI726
F0.0
sI36
F0.0
sI1499
F0.0
sI6034
F0.0
sI71392
F0.0
sI738
F0.0
sI739
F0.0
sI2277
F0.0
sI1514
F0.0
sI1849
F0.0
sI3063
F0.0
sI1017
F0.0
sI4090
F0.0
sI1531
F0.0
sI764
F0.0
sI767
F0.0
sg2
(g6
S'\x03\x00\x00\x00\x00 \xc3\xbc'
p175
tp176
Rp177
g12
I1
F0.5
tp178
a(I34
F4.8324830532073975
(dp179
I1537
F0.0
sI2
F0.0
sI771
F0.0
sI7425
F0.0
sI3848
F0.0
sI2064
F0.0
sI23
F0.0
sI280
F0.0
sI28
F0.0
sI31
F0.0
sI32
F0.0
sI1570
F0.0
sI35
F0.0
sI1060
F0.0
sI1833
F0.0
sI45
F0.0
sI564
F0.0
sI1845
F0.0
sI1847
F0.0
sI825
F0.0
sI1594
F0.0
sI1855
F0.0
sI6465
F0.0
sI67
F0.0
sI2116
F0.0
sI587
F0.0
sI591
F0.0
sI3922
F0.0
sI2702
F0.0
sI6487
F0.0
sI1624
F0.0
sI601
F0.0
sI1377
F0.0
sI1634
F0.0
sI1636
F0.0
sI5222
F0.0
sI2406
F0.0
sI4200
F0.0
sI5225
F0.0
sI6506
F0.0
sI146
F0.0
sI5230
F0.0
sI6001
F0.0
sI1394
F0.0
sI6772
F0.0
sI630
F0.0
sI120
F0.0
sI4927
F0.0
sI638
F0.0
sI1407
F0.0
sI1667
F0.0
sI7045
F0.0
sI646
F0.0
sI651
F0.0
sI653
F0.0
sI142
F0.0
sI493
F0.0
sI635
F0.0
sI1170
F0.0
sI662
F0.0
sI2967
F0.0
sI664
F0.0
sI3232
F0.0
sI1441
F0.0
sI2978
F0.0
sI2727
F0.0
sI4008
F0.0
sI170
F0.0
sI427
F0.0
sI4015
F0.0
sI1718
F0.0
sI884
F0.0
sI2234
F0.0
sI444
F0.0
sI1725
F0.0
sI448
F0.0
sI705
F0.0
sI1474
F0.0
sI196
F0.0
sI3525
F0.0
sI1223
F0.0
sI547
F0.0
sI1492
F0.0
sI71381
F0.0
sI726
F0.0
sI36
F0.0
sI1499
F0.0
sI6034
F0.0
sI71392
F0.0
sI738
F0.0
sI739
F0.0
sI2277
F0.0
sI1514
F0.0
sI1849
F0.0
sI3063
F0.0
sI1017
F0.0
sI4090
F0.0
sI1531
F0.0
sI764
F0.0
sI767
F0.0
sg2
(g6
S'\x03\x00\x00\x00\x00 \xc3\xbc'
p180
tp181
Rp182
g12
I1
F0.5
tp183
a(I35
F4.970415115356445
(dp184
I1537
F0.0
sI2
F0.0
sI771
F0.0
sI7425
F0.0
sI3848
F0.0
sI2064
F0.0
sI23
F0.0
sI280
F0.0
sI28
F0.0
sI31
F0.0
sI32
F0.0
sI1570
F0.0
sI35
F0.0
sI1060
F0.0
sI1833
F0.0
sI45
F0.0
sI564
F0.0
sI1845
F0.0
sI1847
F0.0
sI825
F0.0
sI1594
F0.0
sI1855
F0.0
sI6465
F0.0
sI67
F0.0
sI2116
F0.0
sI587
F0.0
sI591
F0.0
sI3922
F0.0
sI2702
F0.0
sI6487
F0.0
sI1624
F0.0
sI601
F0.0
sI1377
F0.0
sI1634
F0.0
sI1636
F0.0
sI5222
F0.0
sI2406
F0.0
sI4200
F0.0
sI5225
F0.0
sI6506
F0.0
sI146
F0.0
sI5230
F0.0
sI6001
F0.0
sI1394
F0.0
sI6772
F0.0
sI630
F0.0
sI120
F0.0
sI4927
F0.0
sI638
F0.0
sI1407
F0.0
sI1667
F0.0
sI7045
F0.0
sI646
F0.0
sI651
F0.0
sI653
F0.0
sI142
F0.0
sI493
F0.0
sI635
F0.0
sI1170
F0.0
sI662
F0.0
sI2967
F0.0
sI664
F0.0
sI3232
F0.0
sI1441
F0.0
sI2978
F0.0
sI2727
F0.0
sI4008
F0.0
sI170
F0.0
sI427
F0.0
sI4015
F0.0
sI1718
F0.0
sI884
F0.0
sI2234
F0.0
sI444
F0.0
sI1725
F0.0
sI448
F0.0
sI705
F0.0
sI1474
F0.0
sI196
F0.0
sI3525
F0.0
sI1223
F0.0
sI547
F0.0
sI1492
F0.0
sI71381
F0.0
sI726
F0.0
sI36
F0.0
sI1499
F0.0
sI6034
F0.0
sI71392
F0.0
sI738
F0.0
sI739
F0.0
sI2277
F0.0
sI1514
F0.0
sI1849
F0.0
sI3063
F0.0
sI1017
F0.0
sI4090
F0.0
sI1531
F0.0
sI764
F0.0
sI767
F0.0
sg2
(g6
S'\x03\x00\x00\x00\x00 \xc3\xbc'
p185
tp186
Rp187
g12
I1
F0.5
tp188
a(I36
F5.106372117996216
(dp189
I1537
F0.0
sI2
F0.0
sI771
F0.0
sI7425
F0.0
sI3848
F0.0
sI2064
F0.0
sI23
F0.0
sI280
F0.0
sI28
F0.0
sI31
F0.0
sI32
F0.0
sI1570
F0.0
sI35
F0.0
sI1060
F0.0
sI1833
F0.0
sI45
F0.0
sI564
F0.0
sI1845
F0.0
sI1847
F0.0
sI825
F0.0
sI1594
F0.0
sI1855
F0.0
sI6465
F0.0
sI67
F0.0
sI2116
F0.0
sI587
F0.0
sI591
F0.0
sI3922
F0.0
sI2702
F0.0
sI6487
F0.0
sI1624
F0.0
sI601
F0.0
sI1377
F0.0
sI1634
F0.0
sI1636
F0.0
sI5222
F0.0
sI2406
F0.0
sI4200
F0.0
sI5225
F0.0
sI6506
F0.0
sI146
F0.0
sI5230
F0.0
sI6001
F0.0
sI1394
F0.0
sI6772
F0.0
sI630
F0.0
sI120
F0.0
sI4927
F0.0
sI638
F0.0
sI1407
F0.0
sI1667
F0.0
sI7045
F0.0
sI646
F0.0
sI651
F0.0
sI653
F0.0
sI142
F0.0
sI493
F0.0
sI635
F0.0
sI1170
F0.0
sI662
F0.0
sI2967
F0.0
sI664
F0.0
sI3232
F0.0
sI1441
F0.0
sI2978
F0.0
sI2727
F0.0
sI4008
F0.0
sI170
F0.0
sI427
F0.0
sI4015
F0.0
sI1718
F0.0
sI884
F0.0
sI2234
F0.0
sI444
F0.0
sI1725
F0.0
sI448
F0.0
sI705
F0.0
sI1474
F0.0
sI196
F0.0
sI3525
F0.0
sI1223
F0.0
sI547
F0.0
sI1492
F0.0
sI71381
F0.0
sI726
F0.0
sI36
F0.0
sI1499
F0.0
sI6034
F0.0
sI71392
F0.0
sI738
F0.0
sI739
F0.0
sI2277
F0.0
sI1514
F0.0
sI1849
F0.0
sI3063
F0.0
sI1017
F0.0
sI4090
F0.0
sI1531
F0.0
sI764
F0.0
sI767
F0.0
sg2
(g6
S'\x03\x00\x00\x00\x00 \xc3\xbc'
p190
tp191
Rp192
g12
I1
F0.5
tp193
a(I37
F5.2429420948028564
(dp194
I1537
F0.0
sI2
F0.0
sI771
F0.0
sI7425
F0.0
sI3848
F0.0
sI2064
F0.0
sI23
F0.0
sI280
F0.0
sI28
F0.0
sI31
F0.0
sI32
F0.0
sI1570
F0.0
sI35
F0.0
sI1060
F0.0
sI1833
F0.0
sI45
F0.0
sI564
F0.0
sI1845
F0.0
sI1847
F0.0
sI825
F0.0
sI1594
F0.0
sI1855
F0.0
sI6465
F0.0
sI67
F0.0
sI2116
F0.0
sI587
F0.0
sI591
F0.0
sI3922
F0.0
sI2702
F0.0
sI6487
F0.0
sI1624
F0.0
sI601
F0.0
sI1377
F0.0
sI1634
F0.0
sI1636
F0.0
sI5222
F0.0
sI2406
F0.0
sI4200
F0.0
sI5225
F0.0
sI6506
F0.0
sI146
F0.0
sI5230
F0.0
sI6001
F0.0
sI1394
F0.0
sI6772
F0.0
sI630
F0.0
sI120
F0.0
sI4927
F0.0
sI638
F0.0
sI1407
F0.0
sI1667
F0.0
sI7045
F0.0
sI646
F0.0
sI651
F0.0
sI653
F0.0
sI142
F0.0
sI493
F0.0
sI635
F0.0
sI1170
F0.0
sI662
F0.0
sI2967
F0.0
sI664
F0.0
sI3232
F0.0
sI1441
F0.0
sI2978
F0.0
sI2727
F0.0
sI4008
F0.0
sI170
F0.0
sI427
F0.0
sI4015
F0.0
sI1718
F0.0
sI884
F0.0
sI2234
F0.0
sI444
F0.0
sI1725
F0.0
sI448
F0.0
sI705
F0.0
sI1474
F0.0
sI196
F0.0
sI3525
F0.0
sI1223
F0.0
sI547
F0.0
sI1492
F0.0
sI71381
F0.0
sI726
F0.0
sI36
F0.0
sI1499
F0.0
sI6034
F0.0
sI71392
F0.0
sI738
F0.0
sI739
F0.0
sI2277
F0.0
sI1514
F0.0
sI1849
F0.0
sI3063
F0.0
sI1017
F0.0
sI4090
F0.0
sI1531
F0.0
sI764
F0.0
sI767
F0.0
sg2
(g6
S'\x03\x00\x00\x00\x00 \xc3\xbc'
p195
tp196
Rp197
g12
I1
F0.5
tp198
a(I38
F5.379204034805298
(dp199
I1537
F0.0
sI2
F0.0
sI771
F0.0
sI7425
F0.0
sI3848
F0.0
sI2064
F0.0
sI23
F0.0
sI280
F0.0
sI28
F0.0
sI31
F0.0
sI32
F0.0
sI1570
F0.0
sI35
F0.0
sI1060
F0.0
sI1833
F0.0
sI45
F0.0
sI564
F0.0
sI1845
F0.0
sI1847
F0.0
sI825
F0.0
sI1594
F0.0
sI1855
F0.0
sI6465
F0.0
sI67
F0.0
sI2116
F0.0
sI587
F0.0
sI591
F0.0
sI3922
F0.0
sI2702
F0.0
sI6487
F0.0
sI1624
F0.0
sI601
F0.0
sI1377
F0.0
sI1634
F0.0
sI1636
F0.0
sI5222
F0.0
sI2406
F0.0
sI4200
F0.0
sI5225
F0.0
sI6506
F0.0
sI146
F0.0
sI5230
F0.0
sI6001
F0.0
sI1394
F0.0
sI6772
F0.0
sI630
F0.0
sI120
F0.0
sI4927
F0.0
sI638
F0.0
sI1407
F0.0
sI1667
F0.0
sI7045
F0.0
sI646
F0.0
sI651
F0.0
sI653
F0.0
sI142
F0.0
sI493
F0.0
sI635
F0.0
sI1170
F0.0
sI662
F0.0
sI2967
F0.0
sI664
F0.0
sI3232
F0.0
sI1441
F0.0
sI2978
F0.0
sI2727
F0.0
sI4008
F0.0
sI170
F0.0
sI427
F0.0
sI4015
F0.0
sI1718
F0.0
sI884
F0.0
sI2234
F0.0
sI444
F0.0
sI1725
F0.0
sI448
F0.0
sI705
F0.0
sI1474
F0.0
sI196
F0.0
sI3525
F0.0
sI1223
F0.0
sI547
F0.0
sI1492
F0.0
sI71381
F0.0
sI726
F0.0
sI36
F0.0
sI1499
F0.0
sI6034
F0.0
sI71392
F0.0
sI738
F0.0
sI739
F0.0
sI2277
F0.0
sI1514
F0.0
sI1849
F0.0
sI3063
F0.0
sI1017
F0.0
sI4090
F0.0
sI1531
F0.0
sI764
F0.0
sI767
F0.0
sg2
(g6
S'\x03\x00\x00\x00\x00 \xc3\xbc'
p200
tp201
Rp202
g12
I1
F0.5
tp203
a(I39
F5.515501976013184
(dp204
I1537
F0.0
sI2
F0.0
sI771
F0.0
sI7425
F0.0
sI3848
F0.0
sI2064
F0.0
sI23
F0.0
sI280
F0.0
sI28
F0.0
sI31
F0.0
sI32
F0.0
sI1570
F0.0
sI35
F0.0
sI1060
F0.0
sI1833
F0.0
sI45
F0.0
sI564
F0.0
sI1845
F0.0
sI1847
F0.0
sI825
F0.0
sI1594
F0.0
sI1855
F0.0
sI6465
F0.0
sI67
F0.0
sI2116
F0.0
sI587
F0.0
sI591
F0.0
sI3922
F0.0
sI2702
F0.0
sI6487
F0.0
sI1624
F0.0
sI601
F0.0
sI1377
F0.0
sI1634
F0.0
sI1636
F0.0
sI5222
F0.0
sI2406
F0.0
sI4200
F0.0
sI5225
F0.0
sI6506
F0.0
sI146
F0.0
sI5230
F0.0
sI6001
F0.0
sI1394
F0.0
sI6772
F0.0
sI630
F0.0
sI120
F0.0
sI4927
F0.0
sI638
F0.0
sI1407
F0.0
sI1667
F0.0
sI7045
F0.0
sI646
F0.0
sI651
F0.0
sI653
F0.0
sI142
F0.0
sI493
F0.0
sI635
F0.0
sI1170
F0.0
sI662
F0.0
sI2967
F0.0
sI664
F0.0
sI3232
F0.0
sI1441
F0.0
sI2978
F0.0
sI2727
F0.0
sI4008
F0.0
sI170
F0.0
sI427
F0.0
sI4015
F0.0
sI1718
F0.0
sI884
F0.0
sI2234
F0.0
sI444
F0.0
sI1725
F0.0
sI448
F0.0
sI705
F0.0
sI1474
F0.0
sI196
F0.0
sI3525
F0.0
sI1223
F0.0
sI547
F0.0
sI1492
F0.0
sI71381
F0.0
sI726
F0.0
sI36
F0.0
sI1499
F0.0
sI6034
F0.0
sI71392
F0.0
sI738
F0.0
sI739
F0.0
sI2277
F0.0
sI1514
F0.0
sI1849
F0.0
sI3063
F0.0
sI1017
F0.0
sI4090
F0.0
sI1531
F0.0
sI764
F0.0
sI767
F0.0
sg2
(g6
S'\x03\x00\x00\x00\x00 \xc3\xbc'
p205
tp206
Rp207
g12
I1
F0.5
tp208
a(I40
F5.65228009223938
(dp209
I1537
F0.0
sI2
F0.0
sI771
F0.0
sI7425
F0.0
sI3848
F0.0
sI2064
F0.0
sI23
F0.0
sI280
F0.0
sI28
F0.0
sI31
F0.0
sI32
F0.0
sI1570
F0.0
sI35
F0.0
sI1060
F0.0
sI1833
F0.0
sI45
F0.0
sI564
F0.0
sI1845
F0.0
sI1847
F0.0
sI825
F0.0
sI1594
F0.0
sI1855
F0.0
sI6465
F0.0
sI67
F0.0
sI2116
F0.0
sI587
F0.0
sI591
F0.0
sI3922
F0.0
sI2702
F0.0
sI6487
F0.0
sI1624
F0.0
sI601
F0.0
sI1377
F0.0
sI1634
F0.0
sI1636
F0.0
sI5222
F0.0
sI2406
F0.0
sI4200
F0.0
sI5225
F0.0
sI6506
F0.0
sI146
F0.0
sI5230
F0.0
sI6001
F0.0
sI1394
F0.0
sI6772
F0.0
sI630
F0.0
sI120
F0.0
sI4927
F0.0
sI638
F0.0
sI1407
F0.0
sI1667
F0.0
sI7045
F0.0
sI646
F0.0
sI651
F0.0
sI653
F0.0
sI142
F0.0
sI493
F0.0
sI635
F0.0
sI1170
F0.0
sI662
F0.0
sI2967
F0.0
sI664
F0.0
sI3232
F0.0
sI1441
F0.0
sI2978
F0.0
sI2727
F0.0
sI4008
F0.0
sI170
F0.0
sI427
F0.0
sI4015
F0.0
sI1718
F0.0
sI884
F0.0
sI2234
F0.0
sI444
F0.0
sI1725
F0.0
sI448
F0.0
sI705
F0.0
sI1474
F0.0
sI196
F0.0
sI3525
F0.0
sI1223
F0.0
sI547
F0.0
sI1492
F0.0
sI71381
F0.0
sI726
F0.0
sI36
F0.0
sI1499
F0.0
sI6034
F0.0
sI71392
F0.0
sI738
F0.0
sI739
F0.0
sI2277
F0.0
sI1514
F0.0
sI1849
F0.0
sI3063
F0.0
sI1017
F0.0
sI4090
F0.0
sI1531
F0.0
sI764
F0.0
sI767
F0.0
sg2
(g6
S'\x03\x00\x00\x00\x00 \xc3\xbc'
p210
tp211
Rp212
g12
I1
F0.5
tp213
a(I41
F5.788952112197876
(dp214
I1537
F0.0
sI2
F0.0
sI771
F0.0
sI7425
F0.0
sI3848
F0.0
sI2064
F0.0
sI23
F0.0
sI280
F0.0
sI28
F0.0
sI31
F0.0
sI32
F0.0
sI1570
F0.0
sI35
F0.0
sI1060
F0.0
sI1833
F0.0
sI45
F0.0
sI564
F0.0
sI1845
F0.0
sI1847
F0.0
sI825
F0.0
sI1594
F0.0
sI1855
F0.0
sI6465
F0.0
sI67
F0.0
sI2116
F0.0
sI587
F0.0
sI591
F0.0
sI3922
F0.0
sI2702
F0.0
sI6487
F0.0
sI1624
F0.0
sI601
F0.0
sI1377
F0.0
sI1634
F0.0
sI1636
F0.0
sI5222
F0.0
sI2406
F0.0
sI4200
F0.0
sI5225
F0.0
sI6506
F0.0
sI146
F0.0
sI5230
F0.0
sI6001
F0.0
sI1394
F0.0
sI6772
F0.0
sI630
F0.0
sI120
F0.0
sI4927
F0.0
sI638
F0.0
sI1407
F0.0
sI1667
F0.0
sI7045
F0.0
sI646
F0.0
sI651
F0.0
sI653
F0.0
sI142
F0.0
sI493
F0.0
sI635
F0.0
sI1170
F0.0
sI662
F0.0
sI2967
F0.0
sI664
F0.0
sI3232
F0.0
sI1441
F0.0
sI2978
F0.0
sI2727
F0.0
sI4008
F0.0
sI170
F0.0
sI427
F0.0
sI4015
F0.0
sI1718
F0.0
sI884
F0.0
sI2234
F0.0
sI444
F0.0
sI1725
F0.0
sI448
F0.0
sI705
F0.0
sI1474
F0.0
sI196
F0.0
sI3525
F0.0
sI1223
F0.0
sI547
F0.0
sI1492
F0.0
sI71381
F0.0
sI726
F0.0
sI36
F0.0
sI1499
F0.0
sI6034
F0.0
sI71392
F0.0
sI738
F0.0
sI739
F0.0
sI2277
F0.0
sI1514
F0.0
sI1849
F0.0
sI3063
F0.0
sI1017
F0.0
sI4090
F0.0
sI1531
F0.0
sI764
F0.0
sI767
F0.0
sg2
(g6
S'\x03\x00\x00\x00\x00 \xc3\xbc'
p215
tp216
Rp217
g12
I1
F0.5
tp218
a(I42
F5.925058126449585
(dp219
I1537
F0.0
sI2
F0.0
sI771
F0.0
sI7425
F0.0
sI3848
F0.0
sI2064
F0.0
sI23
F0.0
sI280
F0.0
sI28
F0.0
sI31
F0.0
sI32
F0.0
sI1570
F0.0
sI35
F0.0
sI1060
F0.0
sI1833
F0.0
sI45
F0.0
sI564
F0.0
sI1845
F0.0
sI1847
F0.0
sI825
F0.0
sI1594
F0.0
sI1855
F0.0
sI6465
F0.0
sI67
F0.0
sI2116
F0.0
sI587
F0.0
sI591
F0.0
sI3922
F0.0
sI2702
F0.0
sI6487
F0.0
sI1624
F0.0
sI601
F0.0
sI1377
F0.0
sI1634
F0.0
sI1636
F0.0
sI5222
F0.0
sI2406
F0.0
sI4200
F0.0
sI5225
F0.0
sI6506
F0.0
sI146
F0.0
sI5230
F0.0
sI6001
F0.0
sI1394
F0.0
sI6772
F0.0
sI630
F0.0
sI120
F0.0
sI4927
F0.0
sI638
F0.0
sI1407
F0.0
sI1667
F0.0
sI7045
F0.0
sI646
F0.0
sI651
F0.0
sI653
F0.0
sI142
F0.0
sI493
F0.0
sI635
F0.0
sI1170
F0.0
sI662
F0.0
sI2967
F0.0
sI664
F0.0
sI3232
F0.0
sI1441
F0.0
sI2978
F0.0
sI2727
F0.0
sI4008
F0.0
sI170
F0.0
sI427
F0.0
sI4015
F0.0
sI1718
F0.0
sI884
F0.0
sI2234
F0.0
sI444
F0.0
sI1725
F0.0
sI448
F0.0
sI705
F0.0
sI1474
F0.0
sI196
F0.0
sI3525
F0.0
sI1223
F0.0
sI547
F0.0
sI1492
F0.0
sI71381
F0.0
sI726
F0.0
sI36
F0.0
sI1499
F0.0
sI6034
F0.0
sI71392
F0.0
sI738
F0.0
sI739
F0.0
sI2277
F0.0
sI1514
F0.0
sI1849
F0.0
sI3063
F0.0
sI1017
F0.0
sI4090
F0.0
sI1531
F0.0
sI764
F0.0
sI767
F0.0
sg2
(g6
S'\x03\x00\x00\x00\x00 \xc3\xbc'
p220
tp221
Rp222
g12
I1
F0.5
tp223
a(I43
F6.0629050731658936
(dp224
I1537
F0.0
sI2
F0.0
sI771
F0.0
sI7425
F0.0
sI3848
F0.0
sI2064
F0.0
sI23
F0.0
sI280
F0.0
sI28
F0.0
sI31
F0.0
sI32
F0.0
sI1570
F0.0
sI35
F0.0
sI1060
F0.0
sI1833
F0.0
sI45
F0.0
sI564
F0.0
sI1845
F0.0
sI1847
F0.0
sI825
F0.0
sI1594
F0.0
sI1855
F0.0
sI6465
F0.0
sI67
F0.0
sI2116
F0.0
sI587
F0.0
sI591
F0.0
sI3922
F0.0
sI2702
F0.0
sI6487
F0.0
sI1624
F0.0
sI601
F0.0
sI1377
F0.0
sI1634
F0.0
sI1636
F0.0
sI5222
F0.0
sI2406
F0.0
sI4200
F0.0
sI5225
F0.0
sI6506
F0.0
sI146
F0.0
sI5230
F0.0
sI6001
F0.0
sI1394
F0.0
sI6772
F0.0
sI630
F0.0
sI120
F0.0
sI4927
F0.0
sI638
F0.0
sI1407
F0.0
sI1667
F0.0
sI7045
F0.0
sI646
F0.0
sI651
F0.0
sI653
F0.0
sI142
F0.0
sI493
F0.0
sI635
F0.0
sI1170
F0.0
sI662
F0.0
sI2967
F0.0
sI664
F0.0
sI3232
F0.0
sI1441
F0.0
sI2978
F0.0
sI2727
F0.0
sI4008
F0.0
sI170
F0.0
sI427
F0.0
sI4015
F0.0
sI1718
F0.0
sI884
F0.0
sI2234
F0.0
sI444
F0.0
sI1725
F0.0
sI448
F0.0
sI705
F0.0
sI1474
F0.0
sI196
F0.0
sI3525
F0.0
sI1223
F0.0
sI547
F0.0
sI1492
F0.0
sI71381
F0.0
sI726
F0.0
sI36
F0.0
sI1499
F0.0
sI6034
F0.0
sI71392
F0.0
sI738
F0.0
sI739
F0.0
sI2277
F0.0
sI1514
F0.0
sI1849
F0.0
sI3063
F0.0
sI1017
F0.0
sI4090
F0.0
sI1531
F0.0
sI764
F0.0
sI767
F0.0
sg2
(g6
S'\x03\x00\x00\x00\x00 \xc3\xbc'
p225
tp226
Rp227
g12
I1
F0.5
tp228
a(I44
F6.199885129928589
(dp229
I1537
F0.0
sI2
F0.0
sI771
F0.0
sI7425
F0.0
sI3848
F0.0
sI2064
F0.0
sI23
F0.0
sI280
F0.0
sI28
F0.0
sI31
F0.0
sI32
F0.0
sI1570
F0.0
sI35
F0.0
sI1060
F0.0
sI1833
F0.0
sI45
F0.0
sI564
F0.0
sI1845
F0.0
sI1847
F0.0
sI825
F0.0
sI1594
F0.0
sI1855
F0.0
sI6465
F0.0
sI67
F0.0
sI2116
F0.0
sI587
F0.0
sI591
F0.0
sI3922
F0.0
sI2702
F0.0
sI6487
F0.0
sI1624
F0.0
sI601
F0.0
sI1377
F0.0
sI1634
F0.0
sI1636
F0.0
sI5222
F0.0
sI2406
F0.0
sI4200
F0.0
sI5225
F0.0
sI6506
F0.0
sI146
F0.0
sI5230
F0.0
sI6001
F0.0
sI1394
F0.0
sI6772
F0.0
sI630
F0.0
sI120
F0.0
sI4927
F0.0
sI638
F0.0
sI1407
F0.0
sI1667
F0.0
sI7045
F0.0
sI646
F0.0
sI651
F0.0
sI653
F0.0
sI142
F0.0
sI493
F0.0
sI635
F0.0
sI1170
F0.0
sI662
F0.0
sI2967
F0.0
sI664
F0.0
sI3232
F0.0
sI1441
F0.0
sI2978
F0.0
sI2727
F0.0
sI4008
F0.0
sI170
F0.0
sI427
F0.0
sI4015
F0.0
sI1718
F0.0
sI884
F0.0
sI2234
F0.0
sI444
F0.0
sI1725
F0.0
sI448
F0.0
sI705
F0.0
sI1474
F0.0
sI196
F0.0
sI3525
F0.0
sI1223
F0.0
sI547
F0.0
sI1492
F0.0
sI71381
F0.0
sI726
F0.0
sI36
F0.0
sI1499
F0.0
sI6034
F0.0
sI71392
F0.0
sI738
F0.0
sI739
F0.0
sI2277
F0.0
sI1514
F0.0
sI1849
F0.0
sI3063
F0.0
sI1017
F0.0
sI4090
F0.0
sI1531
F0.0
sI764
F0.0
sI767
F0.0
sg2
(g6
S'\x03\x00\x00\x00\x00 \xc3\xbc'
p230
tp231
Rp232
g12
I1
F0.5
tp233
a(I45
F6.336867094039917
(dp234
I1537
F0.0
sI2
F0.0
sI771
F0.0
sI7425
F0.0
sI3848
F0.0
sI2064
F0.0
sI23
F0.0
sI280
F0.0
sI28
F0.0
sI31
F0.0
sI32
F0.0
sI1570
F0.0
sI35
F0.0
sI1060
F0.0
sI1833
F0.0
sI45
F0.0
sI564
F0.0
sI1845
F0.0
sI1847
F0.0
sI825
F0.0
sI1594
F0.0
sI1855
F0.0
sI6465
F0.0
sI67
F0.0
sI2116
F0.0
sI587
F0.0
sI591
F0.0
sI3922
F0.0
sI2702
F0.0
sI6487
F0.0
sI1624
F0.0
sI601
F0.0
sI1377
F0.0
sI1634
F0.0
sI1636
F0.0
sI5222
F0.0
sI2406
F0.0
sI4200
F0.0
sI5225
F0.0
sI6506
F0.0
sI146
F0.0
sI5230
F0.0
sI6001
F0.0
sI1394
F0.0
sI6772
F0.0
sI630
F0.0
sI120
F0.0
sI4927
F0.0
sI638
F0.0
sI1407
F0.0
sI1667
F0.0
sI7045
F0.0
sI646
F0.0
sI651
F0.0
sI653
F0.0
sI142
F0.0
sI493
F0.0
sI635
F0.0
sI1170
F0.0
sI662
F0.0
sI2967
F0.0
sI664
F0.0
sI3232
F0.0
sI1441
F0.0
sI2978
F0.0
sI2727
F0.0
sI4008
F0.0
sI170
F0.0
sI427
F0.0
sI4015
F0.0
sI1718
F0.0
sI884
F0.0
sI2234
F0.0
sI444
F0.0
sI1725
F0.0
sI448
F0.0
sI705
F0.0
sI1474
F0.0
sI196
F0.0
sI3525
F0.0
sI1223
F0.0
sI547
F0.0
sI1492
F0.0
sI71381
F0.0
sI726
F0.0
sI36
F0.0
sI1499
F0.0
sI6034
F0.0
sI71392
F0.0
sI738
F0.0
sI739
F0.0
sI2277
F0.0
sI1514
F0.0
sI1849
F0.0
sI3063
F0.0
sI1017
F0.0
sI4090
F0.0
sI1531
F0.0
sI764
F0.0
sI767
F0.0
sg2
(g6
S'\x03\x00\x00\x00\x00 \xc3\xbc'
p235
tp236
Rp237
g12
I1
F0.5
tp238
a(I46
F6.475841045379639
(dp239
I1537
F0.0
sI2
F0.0
sI771
F0.0
sI7425
F0.0
sI3848
F0.0
sI2064
F0.0
sI23
F0.0
sI280
F0.0
sI28
F0.0
sI31
F0.0
sI32
F0.0
sI1570
F0.0
sI35
F0.0
sI1060
F0.0
sI1833
F0.0
sI45
F0.0
sI564
F0.0
sI1845
F0.0
sI1847
F0.0
sI825
F0.0
sI1594
F0.0
sI1855
F0.0
sI6465
F0.0
sI67
F0.0
sI2116
F0.0
sI587
F0.0
sI591
F0.0
sI3922
F0.0
sI2702
F0.0
sI6487
F0.0
sI1624
F0.0
sI601
F0.0
sI1377
F0.0
sI1634
F0.0
sI1636
F0.0
sI5222
F0.0
sI2406
F0.0
sI4200
F0.0
sI5225
F0.0
sI6506
F0.0
sI146
F0.0
sI5230
F0.0
sI6001
F0.0
sI1394
F0.0
sI6772
F0.0
sI630
F0.0
sI120
F0.0
sI4927
F0.0
sI638
F0.0
sI1407
F0.0
sI1667
F0.0
sI7045
F0.0
sI646
F0.0
sI651
F0.0
sI653
F0.0
sI142
F0.0
sI493
F0.0
sI635
F0.0
sI1170
F0.0
sI662
F0.0
sI2967
F0.0
sI664
F0.0
sI3232
F0.0
sI1441
F0.0
sI2978
F0.0
sI2727
F0.0
sI4008
F0.0
sI170
F0.0
sI427
F0.0
sI4015
F0.0
sI1718
F0.0
sI884
F0.0
sI2234
F0.0
sI444
F0.0
sI1725
F0.0
sI448
F0.0
sI705
F0.0
sI1474
F0.0
sI196
F0.0
sI3525
F0.0
sI1223
F0.0
sI547
F0.0
sI1492
F0.0
sI71381
F0.0
sI726
F0.0
sI36
F0.0
sI1499
F0.0
sI6034
F0.0
sI71392
F0.0
sI738
F0.0
sI739
F0.0
sI2277
F0.0
sI1514
F0.0
sI1849
F0.0
sI3063
F0.0
sI1017
F0.0
sI4090
F0.0
sI1531
F0.0
sI764
F0.0
sI767
F0.0
sg2
(g6
S'\x03\x00\x00\x00\x00 \xc3\xbc'
p240
tp241
Rp242
g12
I1
F0.5
tp243
a(I47
F6.618969202041626
(dp244
I1537
F0.0
sI2
F0.0
sI771
F0.0
sI7425
F0.0
sI3848
F0.0
sI2064
F0.0
sI23
F0.0
sI280
F0.0
sI28
F0.0
sI31
F0.0
sI32
F0.0
sI1570
F0.0
sI35
F0.0
sI1060
F0.0
sI1833
F0.0
sI45
F0.0
sI564
F0.0
sI1845
F0.0
sI1847
F0.0
sI825
F0.0
sI1594
F0.0
sI1855
F0.0
sI6465
F0.0
sI67
F0.0
sI2116
F0.0
sI587
F0.0
sI591
F0.0
sI3922
F0.0
sI2702
F0.0
sI6487
F0.0
sI1624
F0.0
sI601
F0.0
sI1377
F0.0
sI1634
F0.0
sI1636
F0.0
sI5222
F0.0
sI2406
F0.0
sI4200
F0.0
sI5225
F0.0
sI6506
F0.0
sI146
F0.0
sI5230
F0.0
sI6001
F0.0
sI1394
F0.0
sI6772
F0.0
sI630
F0.0
sI120
F0.0
sI4927
F0.0
sI638
F0.0
sI1407
F0.0
sI1667
F0.0
sI7045
F0.0
sI646
F0.0
sI651
F0.0
sI653
F0.0
sI142
F0.0
sI493
F0.0
sI635
F0.0
sI1170
F0.0
sI662
F0.0
sI2967
F0.0
sI664
F0.0
sI3232
F0.0
sI1441
F0.0
sI2978
F0.0
sI2727
F0.0
sI4008
F0.0
sI170
F0.0
sI427
F0.0
sI4015
F0.0
sI1718
F0.0
sI884
F0.0
sI2234
F0.0
sI444
F0.0
sI1725
F0.0
sI448
F0.0
sI705
F0.0
sI1474
F0.0
sI196
F0.0
sI3525
F0.0
sI1223
F0.0
sI547
F0.0
sI1492
F0.0
sI71381
F0.0
sI726
F0.0
sI36
F0.0
sI1499
F0.0
sI6034
F0.0
sI71392
F0.0
sI738
F0.0
sI739
F0.0
sI2277
F0.0
sI1514
F0.0
sI1849
F0.0
sI3063
F0.0
sI1017
F0.0
sI4090
F0.0
sI1531
F0.0
sI764
F0.0
sI767
F0.0
sg2
(g6
S'\x03\x00\x00\x00\x00 \xc3\xbc'
p245
tp246
Rp247
g12
I1
F0.5
tp248
a(I48
F6.7612690925598145
(dp249
I1537
F0.0
sI2
F0.0
sI771
F0.0
sI7425
F0.0
sI3848
F0.0
sI2064
F0.0
sI23
F0.0
sI280
F0.0
sI28
F0.0
sI31
F0.0
sI32
F0.0
sI1570
F0.0
sI35
F0.0
sI1060
F0.0
sI1833
F0.0
sI45
F0.0
sI564
F0.0
sI1845
F0.0
sI1847
F0.0
sI825
F0.0
sI1594
F0.0
sI1855
F0.0
sI6465
F0.0
sI67
F0.0
sI2116
F0.0
sI587
F0.0
sI591
F0.0
sI3922
F0.0
sI2702
F0.0
sI6487
F0.0
sI1624
F0.0
sI601
F0.0
sI1377
F0.0
sI1634
F0.0
sI1636
F0.0
sI5222
F0.0
sI2406
F0.0
sI4200
F0.0
sI5225
F0.0
sI6506
F0.0
sI146
F0.0
sI5230
F0.0
sI6001
F0.0
sI1394
F0.0
sI6772
F0.0
sI630
F0.0
sI120
F0.0
sI4927
F0.0
sI638
F0.0
sI1407
F0.0
sI1667
F0.0
sI7045
F0.0
sI646
F0.0
sI651
F0.0
sI653
F0.0
sI142
F0.0
sI493
F0.0
sI635
F0.0
sI1170
F0.0
sI662
F0.0
sI2967
F0.0
sI664
F0.0
sI3232
F0.0
sI1441
F0.0
sI2978
F0.0
sI2727
F0.0
sI4008
F0.0
sI170
F0.0
sI427
F0.0
sI4015
F0.0
sI1718
F0.0
sI884
F0.0
sI2234
F0.0
sI444
F0.0
sI1725
F0.0
sI448
F0.0
sI705
F0.0
sI1474
F0.0
sI196
F0.0
sI3525
F0.0
sI1223
F0.0
sI547
F0.0
sI1492
F0.0
sI71381
F0.0
sI726
F0.0
sI36
F0.0
sI1499
F0.0
sI6034
F0.0
sI71392
F0.0
sI738
F0.0
sI739
F0.0
sI2277
F0.0
sI1514
F0.0
sI1849
F0.0
sI3063
F0.0
sI1017
F0.0
sI4090
F0.0
sI1531
F0.0
sI764
F0.0
sI767
F0.0
sg2
(g6
S'\x03\x00\x00\x00\x00 \xc3\xbc'
p250
tp251
Rp252
g12
I1
F0.5
tp253
a(I49
F6.905333995819092
(dp254
I1537
F0.0
sI2
F0.0
sI771
F0.0
sI7425
F0.0
sI3848
F0.0
sI2064
F0.0
sI23
F0.0
sI280
F0.0
sI28
F0.0
sI31
F0.0
sI32
F0.0
sI1570
F0.0
sI35
F0.0
sI1060
F0.0
sI1833
F0.0
sI45
F0.0
sI564
F0.0
sI1845
F0.0
sI1847
F0.0
sI825
F0.0
sI1594
F0.0
sI1855
F0.0
sI6465
F0.0
sI67
F0.0
sI2116
F0.0
sI587
F0.0
sI591
F0.0
sI3922
F0.0
sI2702
F0.0
sI6487
F0.0
sI1624
F0.0
sI601
F0.0
sI1377
F0.0
sI1634
F0.0
sI1636
F0.0
sI5222
F0.0
sI2406
F0.0
sI4200
F0.0
sI5225
F0.0
sI6506
F0.0
sI146
F0.0
sI5230
F0.0
sI6001
F0.0
sI1394
F0.0
sI6772
F0.0
sI630
F0.0
sI120
F0.0
sI4927
F0.0
sI638
F0.0
sI1407
F0.0
sI1667
F0.0
sI7045
F0.0
sI646
F0.0
sI651
F0.0
sI653
F0.0
sI142
F0.0
sI493
F0.0
sI635
F0.0
sI1170
F0.0
sI662
F0.0
sI2967
F0.0
sI664
F0.0
sI3232
F0.0
sI1441
F0.0
sI2978
F0.0
sI2727
F0.0
sI4008
F0.0
sI170
F0.0
sI427
F0.0
sI4015
F0.0
sI1718
F0.0
sI884
F0.0
sI2234
F0.0
sI444
F0.0
sI1725
F0.0
sI448
F0.0
sI705
F0.0
sI1474
F0.0
sI196
F0.0
sI3525
F0.0
sI1223
F0.0
sI547
F0.0
sI1492
F0.0
sI71381
F0.0
sI726
F0.0
sI36
F0.0
sI1499
F0.0
sI6034
F0.0
sI71392
F0.0
sI738
F0.0
sI739
F0.0
sI2277
F0.0
sI1514
F0.0
sI1849
F0.0
sI3063
F0.0
sI1017
F0.0
sI4090
F0.0
sI1531
F0.0
sI764
F0.0
sI767
F0.0
sg2
(g6
S'\x03\x00\x00\x00\x00 \xc3\xbc'
p255
tp256
Rp257
g12
I1
F0.5
tp258
a(I50
F7.048002004623413
(dp259
I1537
F0.0
sI2
F0.0
sI771
F0.0
sI7425
F0.0
sI3848
F0.0
sI2064
F0.0
sI23
F0.0
sI280
F0.0
sI28
F0.0
sI31
F0.0
sI32
F0.0
sI1570
F0.0
sI35
F0.0
sI1060
F0.0
sI1833
F0.0
sI45
F0.0
sI564
F0.0
sI1845
F0.0
sI1847
F0.0
sI825
F0.0
sI1594
F0.0
sI1855
F0.0
sI6465
F0.0
sI67
F0.0
sI2116
F0.0
sI587
F0.0
sI591
F0.0
sI3922
F0.0
sI2702
F0.0
sI6487
F0.0
sI1624
F0.0
sI601
F0.0
sI1377
F0.0
sI1634
F0.0
sI1636
F0.0
sI5222
F0.0
sI2406
F0.0
sI4200
F0.0
sI5225
F0.0
sI6506
F0.0
sI146
F0.0
sI5230
F0.0
sI6001
F0.0
sI1394
F0.0
sI6772
F0.0
sI630
F0.0
sI120
F0.0
sI4927
F0.0
sI638
F0.0
sI1407
F0.0
sI1667
F0.0
sI7045
F0.0
sI646
F0.0
sI651
F0.0
sI653
F0.0
sI142
F0.0
sI493
F0.0
sI635
F0.0
sI1170
F0.0
sI662
F0.0
sI2967
F0.0
sI664
F0.0
sI3232
F0.0
sI1441
F0.0
sI2978
F0.0
sI2727
F0.0
sI4008
F0.0
sI170
F0.0
sI427
F0.0
sI4015
F0.0
sI1718
F0.0
sI884
F0.0
sI2234
F0.0
sI444
F0.0
sI1725
F0.0
sI448
F0.0
sI705
F0.0
sI1474
F0.0
sI196
F0.0
sI3525
F0.0
sI1223
F0.0
sI547
F0.0
sI1492
F0.0
sI71381
F0.0
sI726
F0.0
sI36
F0.0
sI1499
F0.0
sI6034
F0.0
sI71392
F0.0
sI738
F0.0
sI739
F0.0
sI2277
F0.0
sI1514
F0.0
sI1849
F0.0
sI3063
F0.0
sI1017
F0.0
sI4090
F0.0
sI1531
F0.0
sI764
F0.0
sI767
F0.0
sg2
(g6
S'\x03\x00\x00\x00\x00 \xc3\xbc'
p260
tp261
Rp262
g12
I1
F0.5
tp263
a(I51
F7.189316034317017
(dp264
I1537
F0.0
sI2
F0.0
sI771
F0.0
sI7425
F0.0
sI3848
F0.0
sI2064
F0.0
sI23
F0.0
sI280
F0.0
sI28
F0.0
sI31
F0.0
sI32
F0.0
sI1570
F0.0
sI35
F0.0
sI1060
F0.0
sI1833
F0.0
sI45
F0.0
sI564
F0.0
sI1845
F0.0
sI1847
F0.0
sI825
F0.0
sI1594
F0.0
sI1855
F0.0
sI6465
F0.0
sI67
F0.0
sI2116
F0.0
sI587
F0.0
sI591
F0.0
sI3922
F0.0
sI2702
F0.0
sI6487
F0.0
sI1624
F0.0
sI601
F0.0
sI1377
F0.0
sI1634
F0.0
sI1636
F0.0
sI5222
F0.0
sI2406
F0.0
sI4200
F0.0
sI5225
F0.0
sI6506
F0.0
sI146
F0.0
sI5230
F0.0
sI6001
F0.0
sI1394
F0.0
sI6772
F0.0
sI630
F0.0
sI120
F0.0
sI4927
F0.0
sI638
F0.0
sI1407
F0.0
sI1667
F0.0
sI7045
F0.0
sI646
F0.0
sI651
F0.0
sI653
F0.0
sI142
F0.0
sI493
F0.0
sI635
F0.0
sI1170
F0.0
sI662
F0.0
sI2967
F0.0
sI664
F0.0
sI3232
F0.0
sI1441
F0.0
sI2978
F0.0
sI2727
F0.0
sI4008
F0.0
sI170
F0.0
sI427
F0.0
sI4015
F0.0
sI1718
F0.0
sI884
F0.0
sI2234
F0.0
sI444
F0.0
sI1725
F0.0
sI448
F0.0
sI705
F0.0
sI1474
F0.0
sI196
F0.0
sI3525
F0.0
sI1223
F0.0
sI547
F0.0
sI1492
F0.0
sI71381
F0.0
sI726
F0.0
sI36
F0.0
sI1499
F0.0
sI6034
F0.0
sI71392
F0.0
sI738
F0.0
sI739
F0.0
sI2277
F0.0
sI1514
F0.0
sI1849
F0.0
sI3063
F0.0
sI1017
F0.0
sI4090
F0.0
sI1531
F0.0
sI764
F0.0
sI767
F0.0
sg2
(g6
S'\x03\x00\x00\x00\x00 \xc3\xbc'
p265
tp266
Rp267
g12
I1
F0.5
tp268
a(I52
F7.3260111808776855
(dp269
I1537
F0.0
sI2
F0.0
sI771
F0.0
sI7425
F0.0
sI3848
F0.0
sI2064
F0.0
sI23
F0.0
sI280
F0.0
sI28
F0.0
sI31
F0.0
sI32
F0.0
sI1570
F0.0
sI35
F0.0
sI1060
F0.0
sI1833
F0.0
sI45
F0.0
sI564
F0.0
sI1845
F0.0
sI1847
F0.0
sI825
F0.0
sI1594
F0.0
sI1855
F0.0
sI6465
F0.0
sI67
F0.0
sI2116
F0.0
sI587
F0.0
sI591
F0.0
sI3922
F0.0
sI2702
F0.0
sI6487
F0.0
sI1624
F0.0
sI601
F0.0
sI1377
F0.0
sI1634
F0.0
sI1636
F0.0
sI5222
F0.0
sI2406
F0.0
sI4200
F0.0
sI5225
F0.0
sI6506
F0.0
sI146
F0.0
sI5230
F0.0
sI6001
F0.0
sI1394
F0.0
sI6772
F0.0
sI630
F0.0
sI120
F0.0
sI4927
F0.0
sI638
F0.0
sI1407
F0.0
sI1667
F0.0
sI7045
F0.0
sI646
F0.0
sI651
F0.0
sI653
F0.0
sI142
F0.0
sI493
F0.0
sI635
F0.0
sI1170
F0.0
sI662
F0.0
sI2967
F0.0
sI664
F0.0
sI3232
F0.0
sI1441
F0.0
sI2978
F0.0
sI2727
F0.0
sI4008
F0.0
sI170
F0.0
sI427
F0.0
sI4015
F0.0
sI1718
F0.0
sI884
F0.0
sI2234
F0.0
sI444
F0.0
sI1725
F0.0
sI448
F0.0
sI705
F0.0
sI1474
F0.0
sI196
F0.0
sI3525
F0.0
sI1223
F0.0
sI547
F0.0
sI1492
F0.0
sI71381
F0.0
sI726
F0.0
sI36
F0.0
sI1499
F0.0
sI6034
F0.0
sI71392
F0.0
sI738
F0.0
sI739
F0.0
sI2277
F0.0
sI1514
F0.0
sI1849
F0.0
sI3063
F0.0
sI1017
F0.0
sI4090
F0.0
sI1531
F0.0
sI764
F0.0
sI767
F0.0
sg2
(g6
S'\x03\x00\x00\x00\x00 \xc3\xbc'
p270
tp271
Rp272
g12
I1
F0.5
tp273
a(I53
F7.462019205093384
(dp274
I1537
F0.0
sI2
F0.0
sI771
F0.0
sI7425
F0.0
sI3848
F0.0
sI2064
F0.0
sI23
F0.0
sI280
F0.0
sI28
F0.0
sI31
F0.0
sI32
F0.0
sI1570
F0.0
sI35
F0.0
sI1060
F0.0
sI1833
F0.0
sI45
F0.0
sI564
F0.0
sI1845
F0.0
sI1847
F0.0
sI825
F0.0
sI1594
F0.0
sI1855
F0.0
sI6465
F0.0
sI67
F0.0
sI2116
F0.0
sI587
F0.0
sI591
F0.0
sI3922
F0.0
sI2702
F0.0
sI6487
F0.0
sI1624
F0.0
sI601
F0.0
sI1377
F0.0
sI1634
F0.0
sI1636
F0.0
sI5222
F0.0
sI2406
F0.0
sI4200
F0.0
sI5225
F0.0
sI6506
F0.0
sI146
F0.0
sI5230
F0.0
sI6001
F0.0
sI1394
F0.0
sI6772
F0.0
sI630
F0.0
sI120
F0.0
sI4927
F0.0
sI638
F0.0
sI1407
F0.0
sI1667
F0.0
sI7045
F0.0
sI646
F0.0
sI651
F0.0
sI653
F0.0
sI142
F0.0
sI493
F0.0
sI635
F0.0
sI1170
F0.0
sI662
F0.0
sI2967
F0.0
sI664
F0.0
sI3232
F0.0
sI1441
F0.0
sI2978
F0.0
sI2727
F0.0
sI4008
F0.0
sI170
F0.0
sI427
F0.0
sI4015
F0.0
sI1718
F0.0
sI884
F0.0
sI2234
F0.0
sI444
F0.0
sI1725
F0.0
sI448
F0.0
sI705
F0.0
sI1474
F0.0
sI196
F0.0
sI3525
F0.0
sI1223
F0.0
sI547
F0.0
sI1492
F0.0
sI71381
F0.0
sI726
F0.0
sI36
F0.0
sI1499
F0.0
sI6034
F0.0
sI71392
F0.0
sI738
F0.0
sI739
F0.0
sI2277
F0.0
sI1514
F0.0
sI1849
F0.0
sI3063
F0.0
sI1017
F0.0
sI4090
F0.0
sI1531
F0.0
sI764
F0.0
sI767
F0.0
sg2
(g6
S'\x03\x00\x00\x00\x00 \xc3\xbc'
p275
tp276
Rp277
g12
I1
F0.5
tp278
a(I54
F7.598968029022217
(dp279
I1537
F0.0
sI2
F0.0
sI771
F0.0
sI7425
F0.0
sI3848
F0.0
sI2064
F0.0
sI23
F0.0
sI280
F0.0
sI28
F0.0
sI31
F0.0
sI32
F0.0
sI1570
F0.0
sI35
F0.0
sI1060
F0.0
sI1833
F0.0
sI45
F0.0
sI564
F0.0
sI1845
F0.0
sI1847
F0.0
sI825
F0.0
sI1594
F0.0
sI1855
F0.0
sI6465
F0.0
sI67
F0.0
sI2116
F0.0
sI587
F0.0
sI591
F0.0
sI3922
F0.0
sI2702
F0.0
sI6487
F0.0
sI1624
F0.0
sI601
F0.0
sI1377
F0.0
sI1634
F0.0
sI1636
F0.0
sI5222
F0.0
sI2406
F0.0
sI4200
F0.0
sI5225
F0.0
sI6506
F0.0
sI146
F0.0
sI5230
F0.0
sI6001
F0.0
sI1394
F0.0
sI6772
F0.0
sI630
F0.0
sI120
F0.0
sI4927
F0.0
sI638
F0.0
sI1407
F0.0
sI1667
F0.0
sI7045
F0.0
sI646
F0.0
sI651
F0.0
sI653
F0.0
sI142
F0.0
sI493
F0.0
sI635
F0.0
sI1170
F0.0
sI662
F0.0
sI2967
F0.0
sI664
F0.0
sI3232
F0.0
sI1441
F0.0
sI2978
F0.0
sI2727
F0.0
sI4008
F0.0
sI170
F0.0
sI427
F0.0
sI4015
F0.0
sI1718
F0.0
sI884
F0.0
sI2234
F0.0
sI444
F0.0
sI1725
F0.0
sI448
F0.0
sI705
F0.0
sI1474
F0.0
sI196
F0.0
sI3525
F0.0
sI1223
F0.0
sI547
F0.0
sI1492
F0.0
sI71381
F0.0
sI726
F0.0
sI36
F0.0
sI1499
F0.0
sI6034
F0.0
sI71392
F0.0
sI738
F0.0
sI739
F0.0
sI2277
F0.0
sI1514
F0.0
sI1849
F0.0
sI3063
F0.0
sI1017
F0.0
sI4090
F0.0
sI1531
F0.0
sI764
F0.0
sI767
F0.0
sg2
(g6
S'\x03\x00\x00\x00\x00 \xc3\xbc'
p280
tp281
Rp282
g12
I1
F0.5
tp283
a(I55
F7.736175060272217
(dp284
I1537
F0.0
sI2
F0.0
sI771
F0.0
sI7425
F0.0
sI3848
F0.0
sI2064
F0.0
sI23
F0.0
sI280
F0.0
sI28
F0.0
sI31
F0.0
sI32
F0.0
sI1570
F0.0
sI35
F0.0
sI1060
F0.0
sI1833
F0.0
sI45
F0.0
sI564
F0.0
sI1845
F0.0
sI1847
F0.0
sI825
F0.0
sI1594
F0.0
sI1855
F0.0
sI6465
F0.0
sI67
F0.0
sI2116
F0.0
sI587
F0.0
sI591
F0.0
sI3922
F0.0
sI2702
F0.0
sI6487
F0.0
sI1624
F0.0
sI601
F0.0
sI1377
F0.0
sI1634
F0.0
sI1636
F0.0
sI5222
F0.0
sI2406
F0.0
sI4200
F0.0
sI5225
F0.0
sI6506
F0.0
sI146
F0.0
sI5230
F0.0
sI6001
F0.0
sI1394
F0.0
sI6772
F0.0
sI630
F0.0
sI120
F0.0
sI4927
F0.0
sI638
F0.0
sI1407
F0.0
sI1667
F0.0
sI7045
F0.0
sI646
F0.0
sI651
F0.0
sI653
F0.0
sI142
F0.0
sI493
F0.0
sI635
F0.0
sI1170
F0.0
sI662
F0.0
sI2967
F0.0
sI664
F0.0
sI3232
F0.0
sI1441
F0.0
sI2978
F0.0
sI2727
F0.0
sI4008
F0.0
sI170
F0.0
sI427
F0.0
sI4015
F0.0
sI1718
F0.0
sI884
F0.0
sI2234
F0.0
sI444
F0.0
sI1725
F0.0
sI448
F0.0
sI705
F0.0
sI1474
F0.0
sI196
F0.0
sI3525
F0.0
sI1223
F0.0
sI547
F0.0
sI1492
F0.0
sI71381
F0.0
sI726
F0.0
sI36
F0.0
sI1499
F0.0
sI6034
F0.0
sI71392
F0.0
sI738
F0.0
sI739
F0.0
sI2277
F0.0
sI1514
F0.0
sI1849
F0.0
sI3063
F0.0
sI1017
F0.0
sI4090
F0.0
sI1531
F0.0
sI764
F0.0
sI767
F0.0
sg2
(g6
S'\x03\x00\x00\x00\x00 \xc3\xbc'
p285
tp286
Rp287
g12
I1
F0.5
tp288
a(I56
F7.872776031494141
(dp289
I1537
F0.0
sI2
F0.0
sI771
F0.0
sI7425
F0.0
sI3848
F0.0
sI2064
F0.0
sI23
F0.0
sI280
F0.0
sI28
F0.0
sI31
F0.0
sI32
F0.0
sI1570
F0.0
sI35
F0.0
sI1060
F0.0
sI1833
F0.0
sI45
F0.0
sI564
F0.0
sI1845
F0.0
sI1847
F0.0
sI825
F0.0
sI1594
F0.0
sI1855
F0.0
sI6465
F0.0
sI67
F0.0
sI2116
F0.0
sI587
F0.0
sI591
F0.0
sI3922
F0.0
sI2702
F0.0
sI6487
F0.0
sI1624
F0.0
sI601
F0.0
sI1377
F0.0
sI1634
F0.0
sI1636
F0.0
sI5222
F0.0
sI2406
F0.0
sI4200
F0.0
sI5225
F0.0
sI6506
F0.0
sI146
F0.0
sI5230
F0.0
sI6001
F0.0
sI1394
F0.0
sI6772
F0.0
sI630
F0.0
sI120
F0.0
sI4927
F0.0
sI638
F0.0
sI1407
F0.0
sI1667
F0.0
sI7045
F0.0
sI646
F0.0
sI651
F0.0
sI653
F0.0
sI142
F0.0
sI493
F0.0
sI635
F0.0
sI1170
F0.0
sI662
F0.0
sI2967
F0.0
sI664
F0.0
sI3232
F0.0
sI1441
F0.0
sI2978
F0.0
sI2727
F0.0
sI4008
F0.0
sI170
F0.0
sI427
F0.0
sI4015
F0.0
sI1718
F0.0
sI884
F0.0
sI2234
F0.0
sI444
F0.0
sI1725
F0.0
sI448
F0.0
sI705
F0.0
sI1474
F0.0
sI196
F0.0
sI3525
F0.0
sI1223
F0.0
sI547
F0.0
sI1492
F0.0
sI71381
F0.0
sI726
F0.0
sI36
F0.0
sI1499
F0.0
sI6034
F0.0
sI71392
F0.0
sI738
F0.0
sI739
F0.0
sI2277
F0.0
sI1514
F0.0
sI1849
F0.0
sI3063
F0.0
sI1017
F0.0
sI4090
F0.0
sI1531
F0.0
sI764
F0.0
sI767
F0.0
sg2
(g6
S'\x03\x00\x00\x00\x00 \xc3\xbc'
p290
tp291
Rp292
g12
I1
F0.5
tp293
a(I57
F8.008951187133789
(dp294
I1537
F0.0
sI2
F0.0
sI771
F0.0
sI7425
F0.0
sI3848
F0.0
sI2064
F0.0
sI23
F0.0
sI280
F0.0
sI28
F0.0
sI31
F0.0
sI32
F0.0
sI1570
F0.0
sI35
F0.0
sI1060
F0.0
sI1833
F0.0
sI45
F0.0
sI564
F0.0
sI1845
F0.0
sI1847
F0.0
sI825
F0.0
sI1594
F0.0
sI1855
F0.0
sI6465
F0.0
sI67
F0.0
sI2116
F0.0
sI587
F0.0
sI591
F0.0
sI3922
F0.0
sI2702
F0.0
sI6487
F0.0
sI1624
F0.0
sI601
F0.0
sI1377
F0.0
sI1634
F0.0
sI1636
F0.0
sI5222
F0.0
sI2406
F0.0
sI4200
F0.0
sI5225
F0.0
sI6506
F0.0
sI146
F0.0
sI5230
F0.0
sI6001
F0.0
sI1394
F0.0
sI6772
F0.0
sI630
F0.0
sI120
F0.0
sI4927
F0.0
sI638
F0.0
sI1407
F0.0
sI1667
F0.0
sI7045
F0.0
sI646
F0.0
sI651
F0.0
sI653
F0.0
sI142
F0.0
sI493
F0.0
sI635
F0.0
sI1170
F0.0
sI662
F0.0
sI2967
F0.0
sI664
F0.0
sI3232
F0.0
sI1441
F0.0
sI2978
F0.0
sI2727
F0.0
sI4008
F0.0
sI170
F0.0
sI427
F0.0
sI4015
F0.0
sI1718
F0.0
sI884
F0.0
sI2234
F0.0
sI444
F0.0
sI1725
F0.0
sI448
F0.0
sI705
F0.0
sI1474
F0.0
sI196
F0.0
sI3525
F0.0
sI1223
F0.0
sI547
F0.0
sI1492
F0.0
sI71381
F0.0
sI726
F0.0
sI36
F0.0
sI1499
F0.0
sI6034
F0.0
sI71392
F0.0
sI738
F0.0
sI739
F0.0
sI2277
F0.0
sI1514
F0.0
sI1849
F0.0
sI3063
F0.0
sI1017
F0.0
sI4090
F0.0
sI1531
F0.0
sI764
F0.0
sI767
F0.0
sg2
(g6
S'\x03\x00\x00\x00\x00 \xc3\xbc'
p295
tp296
Rp297
g12
I1
F0.5
tp298
a(I58
F8.145019054412842
(dp299
I1537
F0.0
sI2
F0.0
sI771
F0.0
sI7425
F0.0
sI3848
F0.0
sI2064
F0.0
sI23
F0.0
sI280
F0.0
sI28
F0.0
sI31
F0.0
sI32
F0.0
sI1570
F0.0
sI35
F0.0
sI1060
F0.0
sI1833
F0.0
sI45
F0.0
sI564
F0.0
sI1845
F0.0
sI1847
F0.0
sI825
F0.0
sI1594
F0.0
sI1855
F0.0
sI6465
F0.0
sI67
F0.0
sI2116
F0.0
sI587
F0.0
sI591
F0.0
sI3922
F0.0
sI2702
F0.0
sI6487
F0.0
sI1624
F0.0
sI601
F0.0
sI1377
F0.0
sI1634
F0.0
sI1636
F0.0
sI5222
F0.0
sI2406
F0.0
sI4200
F0.0
sI5225
F0.0
sI6506
F0.0
sI146
F0.0
sI5230
F0.0
sI6001
F0.0
sI1394
F0.0
sI6772
F0.0
sI630
F0.0
sI120
F0.0
sI4927
F0.0
sI638
F0.0
sI1407
F0.0
sI1667
F0.0
sI7045
F0.0
sI646
F0.0
sI651
F0.0
sI653
F0.0
sI142
F0.0
sI493
F0.0
sI635
F0.0
sI1170
F0.0
sI662
F0.0
sI2967
F0.0
sI664
F0.0
sI3232
F0.0
sI1441
F0.0
sI2978
F0.0
sI2727
F0.0
sI4008
F0.0
sI170
F0.0
sI427
F0.0
sI4015
F0.0
sI1718
F0.0
sI884
F0.0
sI2234
F0.0
sI444
F0.0
sI1725
F0.0
sI448
F0.0
sI705
F0.0
sI1474
F0.0
sI196
F0.0
sI3525
F0.0
sI1223
F0.0
sI547
F0.0
sI1492
F0.0
sI71381
F0.0
sI726
F0.0
sI36
F0.0
sI1499
F0.0
sI6034
F0.0
sI71392
F0.0
sI738
F0.0
sI739
F0.0
sI2277
F0.0
sI1514
F0.0
sI1849
F0.0
sI3063
F0.0
sI1017
F0.0
sI4090
F0.0
sI1531
F0.0
sI764
F0.0
sI767
F0.0
sg2
(g6
S'\x03\x00\x00\x00\x00 \xc3\xbc'
p300
tp301
Rp302
g12
I1
F0.5
tp303
a(I59
F8.281813144683838
(dp304
I1537
F0.0
sI2
F0.0
sI771
F0.0
sI7425
F0.0
sI3848
F0.0
sI2064
F0.0
sI23
F0.0
sI280
F0.0
sI28
F0.0
sI31
F0.0
sI32
F0.0
sI1570
F0.0
sI35
F0.0
sI1060
F0.0
sI1833
F0.0
sI45
F0.0
sI564
F0.0
sI1845
F0.0
sI1847
F0.0
sI825
F0.0
sI1594
F0.0
sI1855
F0.0
sI6465
F0.0
sI67
F0.0
sI2116
F0.0
sI587
F0.0
sI591
F0.0
sI3922
F0.0
sI2702
F0.0
sI6487
F0.0
sI1624
F0.0
sI601
F0.0
sI1377
F0.0
sI1634
F0.0
sI1636
F0.0
sI5222
F0.0
sI2406
F0.0
sI4200
F0.0
sI5225
F0.0
sI6506
F0.0
sI146
F0.0
sI5230
F0.0
sI6001
F0.0
sI1394
F0.0
sI6772
F0.0
sI630
F0.0
sI120
F0.0
sI4927
F0.0
sI638
F0.0
sI1407
F0.0
sI1667
F0.0
sI7045
F0.0
sI646
F0.0
sI651
F0.0
sI653
F0.0
sI142
F0.0
sI493
F0.0
sI635
F0.0
sI1170
F0.0
sI662
F0.0
sI2967
F0.0
sI664
F0.0
sI3232
F0.0
sI1441
F0.0
sI2978
F0.0
sI2727
F0.0
sI4008
F0.0
sI170
F0.0
sI427
F0.0
sI4015
F0.0
sI1718
F0.0
sI884
F0.0
sI2234
F0.0
sI444
F0.0
sI1725
F0.0
sI448
F0.0
sI705
F0.0
sI1474
F0.0
sI196
F0.0
sI3525
F0.0
sI1223
F0.0
sI547
F0.0
sI1492
F0.0
sI71381
F0.0
sI726
F0.0
sI36
F0.0
sI1499
F0.0
sI6034
F0.0
sI71392
F0.0
sI738
F0.0
sI739
F0.0
sI2277
F0.0
sI1514
F0.0
sI1849
F0.0
sI3063
F0.0
sI1017
F0.0
sI4090
F0.0
sI1531
F0.0
sI764
F0.0
sI767
F0.0
sg2
(g6
S'\x03\x00\x00\x00\x00 \xc3\xbc'
p305
tp306
Rp307
g12
I1
F0.5
tp308
a(I60
F8.417922019958496
(dp309
I1537
F0.0
sI2
F0.0
sI771
F0.0
sI7425
F0.0
sI3848
F0.0
sI2064
F0.0
sI23
F0.0
sI280
F0.0
sI28
F0.0
sI31
F0.0
sI32
F0.0
sI1570
F0.0
sI35
F0.0
sI1060
F0.0
sI1833
F0.0
sI45
F0.0
sI564
F0.0
sI1845
F0.0
sI1847
F0.0
sI825
F0.0
sI1594
F0.0
sI1855
F0.0
sI6465
F0.0
sI67
F0.0
sI2116
F0.0
sI587
F0.0
sI591
F0.0
sI3922
F0.0
sI2702
F0.0
sI6487
F0.0
sI1624
F0.0
sI601
F0.0
sI1377
F0.0
sI1634
F0.0
sI1636
F0.0
sI5222
F0.0
sI2406
F0.0
sI4200
F0.0
sI5225
F0.0
sI6506
F0.0
sI146
F0.0
sI5230
F0.0
sI6001
F0.0
sI1394
F0.0
sI6772
F0.0
sI630
F0.0
sI120
F0.0
sI4927
F0.0
sI638
F0.0
sI1407
F0.0
sI1667
F0.0
sI7045
F0.0
sI646
F0.0
sI651
F0.0
sI653
F0.0
sI142
F0.0
sI493
F0.0
sI635
F0.0
sI1170
F0.0
sI662
F0.0
sI2967
F0.0
sI664
F0.0
sI3232
F0.0
sI1441
F0.0
sI2978
F0.0
sI2727
F0.0
sI4008
F0.0
sI170
F0.0
sI427
F0.0
sI4015
F0.0
sI1718
F0.0
sI884
F0.0
sI2234
F0.0
sI444
F0.0
sI1725
F0.0
sI448
F0.0
sI705
F0.0
sI1474
F0.0
sI196
F0.0
sI3525
F0.0
sI1223
F0.0
sI547
F0.0
sI1492
F0.0
sI71381
F0.0
sI726
F0.0
sI36
F0.0
sI1499
F0.0
sI6034
F0.0
sI71392
F0.0
sI738
F0.0
sI739
F0.0
sI2277
F0.0
sI1514
F0.0
sI1849
F0.0
sI3063
F0.0
sI1017
F0.0
sI4090
F0.0
sI1531
F0.0
sI764
F0.0
sI767
F0.0
sg2
(g6
S'\x03\x00\x00\x00\x00 \xc3\xbc'
p310
tp311
Rp312
g12
I1
F0.5
tp313
a(I61
F8.55397915840149
(dp314
I1537
F0.0
sI2
F0.0
sI771
F0.0
sI7425
F0.0
sI3848
F0.0
sI2064
F0.0
sI23
F0.0
sI280
F0.0
sI28
F0.0
sI31
F0.0
sI32
F0.0
sI1570
F0.0
sI35
F0.0
sI1060
F0.0
sI1833
F0.0
sI45
F0.0
sI564
F0.0
sI1845
F0.0
sI1847
F0.0
sI825
F0.0
sI1594
F0.0
sI1855
F0.0
sI6465
F0.0
sI67
F0.0
sI2116
F0.0
sI587
F0.0
sI591
F0.0
sI3922
F0.0
sI2702
F0.0
sI6487
F0.0
sI1624
F0.0
sI601
F0.0
sI1377
F0.0
sI1634
F0.0
sI1636
F0.0
sI5222
F0.0
sI2406
F0.0
sI4200
F0.0
sI5225
F0.0
sI6506
F0.0
sI146
F0.0
sI5230
F0.0
sI6001
F0.0
sI1394
F0.0
sI6772
F0.0
sI630
F0.0
sI120
F0.0
sI4927
F0.0
sI638
F0.0
sI1407
F0.0
sI1667
F0.0
sI7045
F0.0
sI646
F0.0
sI651
F0.0
sI653
F0.0
sI142
F0.0
sI493
F0.0
sI635
F0.0
sI1170
F0.0
sI662
F0.0
sI2967
F0.0
sI664
F0.0
sI3232
F0.0
sI1441
F0.0
sI2978
F0.0
sI2727
F0.0
sI4008
F0.0
sI170
F0.0
sI427
F0.0
sI4015
F0.0
sI1718
F0.0
sI884
F0.0
sI2234
F0.0
sI444
F0.0
sI1725
F0.0
sI448
F0.0
sI705
F0.0
sI1474
F0.0
sI196
F0.0
sI3525
F0.0
sI1223
F0.0
sI547
F0.0
sI1492
F0.0
sI71381
F0.0
sI726
F0.0
sI36
F0.0
sI1499
F0.0
sI6034
F0.0
sI71392
F0.0
sI738
F0.0
sI739
F0.0
sI2277
F0.0
sI1514
F0.0
sI1849
F0.0
sI3063
F0.0
sI1017
F0.0
sI4090
F0.0
sI1531
F0.0
sI764
F0.0
sI767
F0.0
sg2
(g6
S'\x03\x00\x00\x00\x00 \xc3\xbc'
p315
tp316
Rp317
g12
I1
F0.5
tp318
a(I62
F8.691066980361938
(dp319
I1537
F0.0
sI2
F0.0
sI771
F0.0
sI7425
F0.0
sI3848
F0.0
sI2064
F0.0
sI23
F0.0
sI280
F0.0
sI28
F0.0
sI31
F0.0
sI32
F0.0
sI1570
F0.0
sI35
F0.0
sI1060
F0.0
sI1833
F0.0
sI45
F0.0
sI564
F0.0
sI1845
F0.0
sI1847
F0.0
sI825
F0.0
sI1594
F0.0
sI1855
F0.0
sI6465
F0.0
sI67
F0.0
sI2116
F0.0
sI587
F0.0
sI591
F0.0
sI3922
F0.0
sI2702
F0.0
sI6487
F0.0
sI1624
F0.0
sI601
F0.0
sI1377
F0.0
sI1634
F0.0
sI1636
F0.0
sI5222
F0.0
sI2406
F0.0
sI4200
F0.0
sI5225
F0.0
sI6506
F0.0
sI146
F0.0
sI5230
F0.0
sI6001
F0.0
sI1394
F0.0
sI6772
F0.0
sI630
F0.0
sI120
F0.0
sI4927
F0.0
sI638
F0.0
sI1407
F0.0
sI1667
F0.0
sI7045
F0.0
sI646
F0.0
sI651
F0.0
sI653
F0.0
sI142
F0.0
sI493
F0.0
sI635
F0.0
sI1170
F0.0
sI662
F0.0
sI2967
F0.0
sI664
F0.0
sI3232
F0.0
sI1441
F0.0
sI2978
F0.0
sI2727
F0.0
sI4008
F0.0
sI170
F0.0
sI427
F0.0
sI4015
F0.0
sI1718
F0.0
sI884
F0.0
sI2234
F0.0
sI444
F0.0
sI1725
F0.0
sI448
F0.0
sI705
F0.0
sI1474
F0.0
sI196
F0.0
sI3525
F0.0
sI1223
F0.0
sI547
F0.0
sI1492
F0.0
sI71381
F0.0
sI726
F0.0
sI36
F0.0
sI1499
F0.0
sI6034
F0.0
sI71392
F0.0
sI738
F0.0
sI739
F0.0
sI2277
F0.0
sI1514
F0.0
sI1849
F0.0
sI3063
F0.0
sI1017
F0.0
sI4090
F0.0
sI1531
F0.0
sI764
F0.0
sI767
F0.0
sg2
(g6
S'\x03\x00\x00\x00\x00 \xc3\xbc'
p320
tp321
Rp322
g12
I1
F0.5
tp323
a(I63
F8.827888011932373
(dp324
I1537
F0.0
sI2
F0.0
sI771
F0.0
sI7425
F0.0
sI3848
F0.0
sI2064
F0.0
sI23
F0.0
sI280
F0.0
sI28
F0.0
sI31
F0.0
sI32
F0.0
sI1570
F0.0
sI35
F0.0
sI1060
F0.0
sI1833
F0.0
sI45
F0.0
sI564
F0.0
sI1845
F0.0
sI1847
F0.0
sI825
F0.0
sI1594
F0.0
sI1855
F0.0
sI6465
F0.0
sI67
F0.0
sI2116
F0.0
sI587
F0.0
sI591
F0.0
sI3922
F0.0
sI2702
F0.0
sI6487
F0.0
sI1624
F0.0
sI601
F0.0
sI1377
F0.0
sI1634
F0.0
sI1636
F0.0
sI5222
F0.0
sI2406
F0.0
sI4200
F0.0
sI5225
F0.0
sI6506
F0.0
sI146
F0.0
sI5230
F0.0
sI6001
F0.0
sI1394
F0.0
sI6772
F0.0
sI630
F0.0
sI120
F0.0
sI4927
F0.0
sI638
F0.0
sI1407
F0.0
sI1667
F0.0
sI7045
F0.0
sI646
F0.0
sI651
F0.0
sI653
F0.0
sI142
F0.0
sI493
F0.0
sI635
F0.0
sI1170
F0.0
sI662
F0.0
sI2967
F0.0
sI664
F0.0
sI3232
F0.0
sI1441
F0.0
sI2978
F0.0
sI2727
F0.0
sI4008
F0.0
sI170
F0.0
sI427
F0.0
sI4015
F0.0
sI1718
F0.0
sI884
F0.0
sI2234
F0.0
sI444
F0.0
sI1725
F0.0
sI448
F0.0
sI705
F0.0
sI1474
F0.0
sI196
F0.0
sI3525
F0.0
sI1223
F0.0
sI547
F0.0
sI1492
F0.0
sI71381
F0.0
sI726
F0.0
sI36
F0.0
sI1499
F0.0
sI6034
F0.0
sI71392
F0.0
sI738
F0.0
sI739
F0.0
sI2277
F0.0
sI1514
F0.0
sI1849
F0.0
sI3063
F0.0
sI1017
F0.0
sI4090
F0.0
sI1531
F0.0
sI764
F0.0
sI767
F0.0
sg2
(g6
S'\x03\x00\x00\x00\x00 \xc3\xbc'
p325
tp326
Rp327
g12
I1
F0.5
tp328
a(I64
F8.964827060699463
(dp329
I1537
F0.0
sI2
F0.0
sI771
F0.0
sI7425
F0.0
sI3848
F0.0
sI2064
F0.0
sI23
F0.0
sI280
F0.0
sI28
F0.0
sI31
F0.0
sI32
F0.0
sI1570
F0.0
sI35
F0.0
sI1060
F0.0
sI1833
F0.0
sI45
F0.0
sI564
F0.0
sI1845
F0.0
sI1847
F0.0
sI825
F0.0
sI1594
F0.0
sI1855
F0.0
sI6465
F0.0
sI67
F0.0
sI2116
F0.0
sI587
F0.0
sI591
F0.0
sI3922
F0.0
sI2702
F0.0
sI6487
F0.0
sI1624
F0.0
sI601
F0.0
sI1377
F0.0
sI1634
F0.0
sI1636
F0.0
sI5222
F0.0
sI2406
F0.0
sI4200
F0.0
sI5225
F0.0
sI6506
F0.0
sI146
F0.0
sI5230
F0.0
sI6001
F0.0
sI1394
F0.0
sI6772
F0.0
sI630
F0.0
sI120
F0.0
sI4927
F0.0
sI638
F0.0
sI1407
F0.0
sI1667
F0.0
sI7045
F0.0
sI646
F0.0
sI651
F0.0
sI653
F0.0
sI142
F0.0
sI493
F0.0
sI635
F0.0
sI1170
F0.0
sI662
F0.0
sI2967
F0.0
sI664
F0.0
sI3232
F0.0
sI1441
F0.0
sI2978
F0.0
sI2727
F0.0
sI4008
F0.0
sI170
F0.0
sI427
F0.0
sI4015
F0.0
sI1718
F0.0
sI884
F0.0
sI2234
F0.0
sI444
F0.0
sI1725
F0.0
sI448
F0.0
sI705
F0.0
sI1474
F0.0
sI196
F0.0
sI3525
F0.0
sI1223
F0.0
sI547
F0.0
sI1492
F0.0
sI71381
F0.0
sI726
F0.0
sI36
F0.0
sI1499
F0.0
sI6034
F0.0
sI71392
F0.0
sI738
F0.0
sI739
F0.0
sI2277
F0.0
sI1514
F0.0
sI1849
F0.0
sI3063
F0.0
sI1017
F0.0
sI4090
F0.0
sI1531
F0.0
sI764
F0.0
sI767
F0.0
sg2
(g6
S'\x03\x00\x00\x00\x00 \xc3\xbc'
p330
tp331
Rp332
g12
I1
F0.5
tp333
a(I65
F9.101621150970459
(dp334
I1537
F0.0
sI2
F0.0
sI771
F0.0
sI7425
F0.0
sI3848
F0.0
sI2064
F0.0
sI23
F0.0
sI280
F0.0
sI28
F0.0
sI31
F0.0
sI32
F0.0
sI1570
F0.0
sI35
F0.0
sI1060
F0.0
sI1833
F0.0
sI45
F0.0
sI564
F0.0
sI1845
F0.0
sI1847
F0.0
sI825
F0.0
sI1594
F0.0
sI1855
F0.0
sI6465
F0.0
sI67
F0.0
sI2116
F0.0
sI587
F0.0
sI591
F0.0
sI3922
F0.0
sI2702
F0.0
sI6487
F0.0
sI1624
F0.0
sI601
F0.0
sI1377
F0.0
sI1634
F0.0
sI1636
F0.0
sI5222
F0.0
sI2406
F0.0
sI4200
F0.0
sI5225
F0.0
sI6506
F0.0
sI146
F0.0
sI5230
F0.0
sI6001
F0.0
sI1394
F0.0
sI6772
F0.0
sI630
F0.0
sI120
F0.0
sI4927
F0.0
sI638
F0.0
sI1407
F0.0
sI1667
F0.0
sI7045
F0.0
sI646
F0.0
sI651
F0.0
sI653
F0.0
sI142
F0.0
sI493
F0.0
sI635
F0.0
sI1170
F0.0
sI662
F0.0
sI2967
F0.0
sI664
F0.0
sI3232
F0.0
sI1441
F0.0
sI2978
F0.0
sI2727
F0.0
sI4008
F0.0
sI170
F0.0
sI427
F0.0
sI4015
F0.0
sI1718
F0.0
sI884
F0.0
sI2234
F0.0
sI444
F0.0
sI1725
F0.0
sI448
F0.0
sI705
F0.0
sI1474
F0.0
sI196
F0.0
sI3525
F0.0
sI1223
F0.0
sI547
F0.0
sI1492
F0.0
sI71381
F0.0
sI726
F0.0
sI36
F0.0
sI1499
F0.0
sI6034
F0.0
sI71392
F0.0
sI738
F0.0
sI739
F0.0
sI2277
F0.0
sI1514
F0.0
sI1849
F0.0
sI3063
F0.0
sI1017
F0.0
sI4090
F0.0
sI1531
F0.0
sI764
F0.0
sI767
F0.0
sg2
(g6
S'\x03\x00\x00\x00\x00 \xc3\xbc'
p335
tp336
Rp337
g12
I1
F0.5
tp338
a(I66
F9.238188028335571
(dp339
I1537
F0.0
sI2
F0.0
sI771
F0.0
sI7425
F0.0
sI3848
F0.0
sI2064
F0.0
sI23
F0.0
sI280
F0.0
sI28
F0.0
sI31
F0.0
sI32
F0.0
sI1570
F0.0
sI35
F0.0
sI1060
F0.0
sI1833
F0.0
sI45
F0.0
sI564
F0.0
sI1845
F0.0
sI1847
F0.0
sI825
F0.0
sI1594
F0.0
sI1855
F0.0
sI6465
F0.0
sI67
F0.0
sI2116
F0.0
sI587
F0.0
sI591
F0.0
sI3922
F0.0
sI2702
F0.0
sI6487
F0.0
sI1624
F0.0
sI601
F0.0
sI1377
F0.0
sI1634
F0.0
sI1636
F0.0
sI5222
F0.0
sI2406
F0.0
sI4200
F0.0
sI5225
F0.0
sI6506
F0.0
sI146
F0.0
sI5230
F0.0
sI6001
F0.0
sI1394
F0.0
sI6772
F0.0
sI630
F0.0
sI120
F0.0
sI4927
F0.0
sI638
F0.0
sI1407
F0.0
sI1667
F0.0
sI7045
F0.0
sI646
F0.0
sI651
F0.0
sI653
F0.0
sI142
F0.0
sI493
F0.0
sI635
F0.0
sI1170
F0.0
sI662
F0.0
sI2967
F0.0
sI664
F0.0
sI3232
F0.0
sI1441
F0.0
sI2978
F0.0
sI2727
F0.0
sI4008
F0.0
sI170
F0.0
sI427
F0.0
sI4015
F0.0
sI1718
F0.0
sI884
F0.0
sI2234
F0.0
sI444
F0.0
sI1725
F0.0
sI448
F0.0
sI705
F0.0
sI1474
F0.0
sI196
F0.0
sI3525
F0.0
sI1223
F0.0
sI547
F0.0
sI1492
F0.0
sI71381
F0.0
sI726
F0.0
sI36
F0.0
sI1499
F0.0
sI6034
F0.0
sI71392
F0.0
sI738
F0.0
sI739
F0.0
sI2277
F0.0
sI1514
F0.0
sI1849
F0.0
sI3063
F0.0
sI1017
F0.0
sI4090
F0.0
sI1531
F0.0
sI764
F0.0
sI767
F0.0
sg2
(g6
S'\x03\x00\x00\x00\x00 \xc3\xbc'
p340
tp341
Rp342
g12
I1
F0.5
tp343
a(I67
F9.374392032623291
(dp344
I1537
F0.0
sI2
F0.0
sI771
F0.0
sI7425
F0.0
sI3848
F0.0
sI2064
F0.0
sI23
F0.0
sI280
F0.0
sI28
F0.0
sI31
F0.0
sI32
F0.0
sI1570
F0.0
sI35
F0.0
sI1060
F0.0
sI1833
F0.0
sI45
F0.0
sI564
F0.0
sI1845
F0.0
sI1847
F0.0
sI825
F0.0
sI1594
F0.0
sI1855
F0.0
sI6465
F0.0
sI67
F0.0
sI2116
F0.0
sI587
F0.0
sI591
F0.0
sI3922
F0.0
sI2702
F0.0
sI6487
F0.0
sI1624
F0.0
sI601
F0.0
sI1377
F0.0
sI1634
F0.0
sI1636
F0.0
sI5222
F0.0
sI2406
F0.0
sI4200
F0.0
sI5225
F0.0
sI6506
F0.0
sI146
F0.0
sI5230
F0.0
sI6001
F0.0
sI1394
F0.0
sI6772
F0.0
sI630
F0.0
sI120
F0.0
sI4927
F0.0
sI638
F0.0
sI1407
F0.0
sI1667
F0.0
sI7045
F0.0
sI646
F0.0
sI651
F0.0
sI653
F0.0
sI142
F0.0
sI493
F0.0
sI635
F0.0
sI1170
F0.0
sI662
F0.0
sI2967
F0.0
sI664
F0.0
sI3232
F0.0
sI1441
F0.0
sI2978
F0.0
sI2727
F0.0
sI4008
F0.0
sI170
F0.0
sI427
F0.0
sI4015
F0.0
sI1718
F0.0
sI884
F0.0
sI2234
F0.0
sI444
F0.0
sI1725
F0.0
sI448
F0.0
sI705
F0.0
sI1474
F0.0
sI196
F0.0
sI3525
F0.0
sI1223
F0.0
sI547
F0.0
sI1492
F0.0
sI71381
F0.0
sI726
F0.0
sI36
F0.0
sI1499
F0.0
sI6034
F0.0
sI71392
F0.0
sI738
F0.0
sI739
F0.0
sI2277
F0.0
sI1514
F0.0
sI1849
F0.0
sI3063
F0.0
sI1017
F0.0
sI4090
F0.0
sI1531
F0.0
sI764
F0.0
sI767
F0.0
sg2
(g6
S'\x03\x00\x00\x00\x00 \xc3\xbc'
p345
tp346
Rp347
g12
I1
F0.5
tp348
a(I68
F9.510349988937378
(dp349
I1537
F0.0
sI2
F0.0
sI771
F0.0
sI7425
F0.0
sI3848
F0.0
sI2064
F0.0
sI23
F0.0
sI280
F0.0
sI28
F0.0
sI31
F0.0
sI32
F0.0
sI1570
F0.0
sI35
F0.0
sI1060
F0.0
sI1833
F0.0
sI45
F0.0
sI564
F0.0
sI1845
F0.0
sI1847
F0.0
sI825
F0.0
sI1594
F0.0
sI1855
F0.0
sI6465
F0.0
sI67
F0.0
sI2116
F0.0
sI587
F0.0
sI591
F0.0
sI3922
F0.0
sI2702
F0.0
sI6487
F0.0
sI1624
F0.0
sI601
F0.0
sI1377
F0.0
sI1634
F0.0
sI1636
F0.0
sI5222
F0.0
sI2406
F0.0
sI4200
F0.0
sI5225
F0.0
sI6506
F0.0
sI146
F0.0
sI5230
F0.0
sI6001
F0.0
sI1394
F0.0
sI6772
F0.0
sI630
F0.0
sI120
F0.0
sI4927
F0.0
sI638
F0.0
sI1407
F0.0
sI1667
F0.0
sI7045
F0.0
sI646
F0.0
sI651
F0.0
sI653
F0.0
sI142
F0.0
sI493
F0.0
sI635
F0.0
sI1170
F0.0
sI662
F0.0
sI2967
F0.0
sI664
F0.0
sI3232
F0.0
sI1441
F0.0
sI2978
F0.0
sI2727
F0.0
sI4008
F0.0
sI170
F0.0
sI427
F0.0
sI4015
F0.0
sI1718
F0.0
sI884
F0.0
sI2234
F0.0
sI444
F0.0
sI1725
F0.0
sI448
F0.0
sI705
F0.0
sI1474
F0.0
sI196
F0.0
sI3525
F0.0
sI1223
F0.0
sI547
F0.0
sI1492
F0.0
sI71381
F0.0
sI726
F0.0
sI36
F0.0
sI1499
F0.0
sI6034
F0.0
sI71392
F0.0
sI738
F0.0
sI739
F0.0
sI2277
F0.0
sI1514
F0.0
sI1849
F0.0
sI3063
F0.0
sI1017
F0.0
sI4090
F0.0
sI1531
F0.0
sI764
F0.0
sI767
F0.0
sg2
(g6
S'\x03\x00\x00\x00\x00 \xc3\xbc'
p350
tp351
Rp352
g12
I1
F0.5
tp353
a(I69
F9.647539138793945
(dp354
I1537
F0.0
sI2
F0.0
sI771
F0.0
sI7425
F0.0
sI3848
F0.0
sI2064
F0.0
sI23
F0.0
sI280
F0.0
sI28
F0.0
sI31
F0.0
sI32
F0.0
sI1570
F0.0
sI35
F0.0
sI1060
F0.0
sI1833
F0.0
sI45
F0.0
sI564
F0.0
sI1845
F0.0
sI1847
F0.0
sI825
F0.0
sI1594
F0.0
sI1855
F0.0
sI6465
F0.0
sI67
F0.0
sI2116
F0.0
sI587
F0.0
sI591
F0.0
sI3922
F0.0
sI2702
F0.0
sI6487
F0.0
sI1624
F0.0
sI601
F0.0
sI1377
F0.0
sI1634
F0.0
sI1636
F0.0
sI5222
F0.0
sI2406
F0.0
sI4200
F0.0
sI5225
F0.0
sI6506
F0.0
sI146
F0.0
sI5230
F0.0
sI6001
F0.0
sI1394
F0.0
sI6772
F0.0
sI630
F0.0
sI120
F0.0
sI4927
F0.0
sI638
F0.0
sI1407
F0.0
sI1667
F0.0
sI7045
F0.0
sI646
F0.0
sI651
F0.0
sI653
F0.0
sI142
F0.0
sI493
F0.0
sI635
F0.0
sI1170
F0.0
sI662
F0.0
sI2967
F0.0
sI664
F0.0
sI3232
F0.0
sI1441
F0.0
sI2978
F0.0
sI2727
F0.0
sI4008
F0.0
sI170
F0.0
sI427
F0.0
sI4015
F0.0
sI1718
F0.0
sI884
F0.0
sI2234
F0.0
sI444
F0.0
sI1725
F0.0
sI448
F0.0
sI705
F0.0
sI1474
F0.0
sI196
F0.0
sI3525
F0.0
sI1223
F0.0
sI547
F0.0
sI1492
F0.0
sI71381
F0.0
sI726
F0.0
sI36
F0.0
sI1499
F0.0
sI6034
F0.0
sI71392
F0.0
sI738
F0.0
sI739
F0.0
sI2277
F0.0
sI1514
F0.0
sI1849
F0.0
sI3063
F0.0
sI1017
F0.0
sI4090
F0.0
sI1531
F0.0
sI764
F0.0
sI767
F0.0
sg2
(g6
S'\x03\x00\x00\x00\x00 \xc3\xbc'
p355
tp356
Rp357
g12
I1
F0.5
tp358
a(I70
F9.783344030380249
(dp359
I1537
F0.0
sI2
F0.0
sI771
F0.0
sI7425
F0.0
sI3848
F0.0
sI2064
F0.0
sI23
F0.0
sI280
F0.0
sI28
F0.0
sI31
F0.0
sI32
F0.0
sI1570
F0.0
sI35
F0.0
sI1060
F0.0
sI1833
F0.0
sI45
F0.0
sI564
F0.0
sI1845
F0.0
sI1847
F0.0
sI825
F0.0
sI1594
F0.0
sI1855
F0.0
sI6465
F0.0
sI67
F0.0
sI2116
F0.0
sI587
F0.0
sI591
F0.0
sI3922
F0.0
sI2702
F0.0
sI6487
F0.0
sI1624
F0.0
sI601
F0.0
sI1377
F0.0
sI1634
F0.0
sI1636
F0.0
sI5222
F0.0
sI2406
F0.0
sI4200
F0.0
sI5225
F0.0
sI6506
F0.0
sI146
F0.0
sI5230
F0.0
sI6001
F0.0
sI1394
F0.0
sI6772
F0.0
sI630
F0.0
sI120
F0.0
sI4927
F0.0
sI638
F0.0
sI1407
F0.0
sI1667
F0.0
sI7045
F0.0
sI646
F0.0
sI651
F0.0
sI653
F0.0
sI142
F0.0
sI493
F0.0
sI635
F0.0
sI1170
F0.0
sI662
F0.0
sI2967
F0.0
sI664
F0.0
sI3232
F0.0
sI1441
F0.0
sI2978
F0.0
sI2727
F0.0
sI4008
F0.0
sI170
F0.0
sI427
F0.0
sI4015
F0.0
sI1718
F0.0
sI884
F0.0
sI2234
F0.0
sI444
F0.0
sI1725
F0.0
sI448
F0.0
sI705
F0.0
sI1474
F0.0
sI196
F0.0
sI3525
F0.0
sI1223
F0.0
sI547
F0.0
sI1492
F0.0
sI71381
F0.0
sI726
F0.0
sI36
F0.0
sI1499
F0.0
sI6034
F0.0
sI71392
F0.0
sI738
F0.0
sI739
F0.0
sI2277
F0.0
sI1514
F0.0
sI1849
F0.0
sI3063
F0.0
sI1017
F0.0
sI4090
F0.0
sI1531
F0.0
sI764
F0.0
sI767
F0.0
sg2
(g6
S'\x03\x00\x00\x00\x00 \xc3\xbc'
p360
tp361
Rp362
g12
I1
F0.5
tp363
a(I71
F9.920571088790894
(dp364
I1537
F0.0
sI2
F0.0
sI771
F0.0
sI7425
F0.0
sI3848
F0.0
sI2064
F0.0
sI23
F0.0
sI280
F0.0
sI28
F0.0
sI31
F0.0
sI32
F0.0
sI1570
F0.0
sI35
F0.0
sI1060
F0.0
sI1833
F0.0
sI45
F0.0
sI564
F0.0
sI1845
F0.0
sI1847
F0.0
sI825
F0.0
sI1594
F0.0
sI1855
F0.0
sI6465
F0.0
sI67
F0.0
sI2116
F0.0
sI587
F0.0
sI591
F0.0
sI3922
F0.0
sI2702
F0.0
sI6487
F0.0
sI1624
F0.0
sI601
F0.0
sI1377
F0.0
sI1634
F0.0
sI1636
F0.0
sI5222
F0.0
sI2406
F0.0
sI4200
F0.0
sI5225
F0.0
sI6506
F0.0
sI146
F0.0
sI5230
F0.0
sI6001
F0.0
sI1394
F0.0
sI6772
F0.0
sI630
F0.0
sI120
F0.0
sI4927
F0.0
sI638
F0.0
sI1407
F0.0
sI1667
F0.0
sI7045
F0.0
sI646
F0.0
sI651
F0.0
sI653
F0.0
sI142
F0.0
sI493
F0.0
sI635
F0.0
sI1170
F0.0
sI662
F0.0
sI2967
F0.0
sI664
F0.0
sI3232
F0.0
sI1441
F0.0
sI2978
F0.0
sI2727
F0.0
sI4008
F0.0
sI170
F0.0
sI427
F0.0
sI4015
F0.0
sI1718
F0.0
sI884
F0.0
sI2234
F0.0
sI444
F0.0
sI1725
F0.0
sI448
F0.0
sI705
F0.0
sI1474
F0.0
sI196
F0.0
sI3525
F0.0
sI1223
F0.0
sI547
F0.0
sI1492
F0.0
sI71381
F0.0
sI726
F0.0
sI36
F0.0
sI1499
F0.0
sI6034
F0.0
sI71392
F0.0
sI738
F0.0
sI739
F0.0
sI2277
F0.0
sI1514
F0.0
sI1849
F0.0
sI3063
F0.0
sI1017
F0.0
sI4090
F0.0
sI1531
F0.0
sI764
F0.0
sI767
F0.0
sg2
(g6
S'\x03\x00\x00\x00\x00 \xc3\xbc'
p365
tp366
Rp367
g12
I1
F0.5
tp368
a(I72
F10.057144165039062
(dp369
I1537
F0.0
sI2
F0.0
sI771
F0.0
sI7425
F0.0
sI3848
F0.0
sI2064
F0.0
sI23
F0.0
sI280
F0.0
sI28
F0.0
sI31
F0.0
sI32
F0.0
sI1570
F0.0
sI35
F0.0
sI1060
F0.0
sI1833
F0.0
sI45
F0.0
sI564
F0.0
sI1845
F0.0
sI1847
F0.0
sI825
F0.0
sI1594
F0.0
sI1855
F0.0
sI6465
F0.0
sI67
F0.0
sI2116
F0.0
sI587
F0.0
sI591
F0.0
sI3922
F0.0
sI2702
F0.0
sI6487
F0.0
sI1624
F0.0
sI601
F0.0
sI1377
F0.0
sI1634
F0.0
sI1636
F0.0
sI5222
F0.0
sI2406
F0.0
sI4200
F0.0
sI5225
F0.0
sI6506
F0.0
sI146
F0.0
sI5230
F0.0
sI6001
F0.0
sI1394
F0.0
sI6772
F0.0
sI630
F0.0
sI120
F0.0
sI4927
F0.0
sI638
F0.0
sI1407
F0.0
sI1667
F0.0
sI7045
F0.0
sI646
F0.0
sI651
F0.0
sI653
F0.0
sI142
F0.0
sI493
F0.0
sI635
F0.0
sI1170
F0.0
sI662
F0.0
sI2967
F0.0
sI664
F0.0
sI3232
F0.0
sI1441
F0.0
sI2978
F0.0
sI2727
F0.0
sI4008
F0.0
sI170
F0.0
sI427
F0.0
sI4015
F0.0
sI1718
F0.0
sI884
F0.0
sI2234
F0.0
sI444
F0.0
sI1725
F0.0
sI448
F0.0
sI705
F0.0
sI1474
F0.0
sI196
F0.0
sI3525
F0.0
sI1223
F0.0
sI547
F0.0
sI1492
F0.0
sI71381
F0.0
sI726
F0.0
sI36
F0.0
sI1499
F0.0
sI6034
F0.0
sI71392
F0.0
sI738
F0.0
sI739
F0.0
sI2277
F0.0
sI1514
F0.0
sI1849
F0.0
sI3063
F0.0
sI1017
F0.0
sI4090
F0.0
sI1531
F0.0
sI764
F0.0
sI767
F0.0
sg2
(g6
S'\x03\x00\x00\x00\x00 \xc3\xbc'
p370
tp371
Rp372
g12
I1
F0.5
tp373
a(I73
F10.193065166473389
(dp374
I1537
F0.0
sI2
F0.0
sI771
F0.0
sI7425
F0.0
sI3848
F0.0
sI2064
F0.0
sI23
F0.0
sI280
F0.0
sI28
F0.0
sI31
F0.0
sI32
F0.0
sI1570
F0.0
sI35
F0.0
sI1060
F0.0
sI1833
F0.0
sI45
F0.0
sI564
F0.0
sI1845
F0.0
sI1847
F0.0
sI825
F0.0
sI1594
F0.0
sI1855
F0.0
sI6465
F0.0
sI67
F0.0
sI2116
F0.0
sI587
F0.0
sI591
F0.0
sI3922
F0.0
sI2702
F0.0
sI6487
F0.0
sI1624
F0.0
sI601
F0.0
sI1377
F0.0
sI1634
F0.0
sI1636
F0.0
sI5222
F0.0
sI2406
F0.0
sI4200
F0.0
sI5225
F0.0
sI6506
F0.0
sI146
F0.0
sI5230
F0.0
sI6001
F0.0
sI1394
F0.0
sI6772
F0.0
sI630
F0.0
sI120
F0.0
sI4927
F0.0
sI638
F0.0
sI1407
F0.0
sI1667
F0.0
sI7045
F0.0
sI646
F0.0
sI651
F0.0
sI653
F0.0
sI142
F0.0
sI493
F0.0
sI635
F0.0
sI1170
F0.0
sI662
F0.0
sI2967
F0.0
sI664
F0.0
sI3232
F0.0
sI1441
F0.0
sI2978
F0.0
sI2727
F0.0
sI4008
F0.0
sI170
F0.0
sI427
F0.0
sI4015
F0.0
sI1718
F0.0
sI884
F0.0
sI2234
F0.0
sI444
F0.0
sI1725
F0.0
sI448
F0.0
sI705
F0.0
sI1474
F0.0
sI196
F0.0
sI3525
F0.0
sI1223
F0.0
sI547
F0.0
sI1492
F0.0
sI71381
F0.0
sI726
F0.0
sI36
F0.0
sI1499
F0.0
sI6034
F0.0
sI71392
F0.0
sI738
F0.0
sI739
F0.0
sI2277
F0.0
sI1514
F0.0
sI1849
F0.0
sI3063
F0.0
sI1017
F0.0
sI4090
F0.0
sI1531
F0.0
sI764
F0.0
sI767
F0.0
sg2
(g6
S'\x03\x00\x00\x00\x00 \xc3\xbc'
p375
tp376
Rp377
g12
I1
F0.5
tp378
a(I74
F10.330254077911377
(dp379
I1537
F0.0
sI2
F0.0
sI771
F0.0
sI7425
F0.0
sI3848
F0.0
sI2064
F0.0
sI23
F0.0
sI280
F0.0
sI28
F0.0
sI31
F0.0
sI32
F0.0
sI1570
F0.0
sI35
F0.0
sI1060
F0.0
sI1833
F0.0
sI45
F0.0
sI564
F0.0
sI1845
F0.0
sI1847
F0.0
sI825
F0.0
sI1594
F0.0
sI1855
F0.0
sI6465
F0.0
sI67
F0.0
sI2116
F0.0
sI587
F0.0
sI591
F0.0
sI3922
F0.0
sI2702
F0.0
sI6487
F0.0
sI1624
F0.0
sI601
F0.0
sI1377
F0.0
sI1634
F0.0
sI1636
F0.0
sI5222
F0.0
sI2406
F0.0
sI4200
F0.0
sI5225
F0.0
sI6506
F0.0
sI146
F0.0
sI5230
F0.0
sI6001
F0.0
sI1394
F0.0
sI6772
F0.0
sI630
F0.0
sI120
F0.0
sI4927
F0.0
sI638
F0.0
sI1407
F0.0
sI1667
F0.0
sI7045
F0.0
sI646
F0.0
sI651
F0.0
sI653
F0.0
sI142
F0.0
sI493
F0.0
sI635
F0.0
sI1170
F0.0
sI662
F0.0
sI2967
F0.0
sI664
F0.0
sI3232
F0.0
sI1441
F0.0
sI2978
F0.0
sI2727
F0.0
sI4008
F0.0
sI170
F0.0
sI427
F0.0
sI4015
F0.0
sI1718
F0.0
sI884
F0.0
sI2234
F0.0
sI444
F0.0
sI1725
F0.0
sI448
F0.0
sI705
F0.0
sI1474
F0.0
sI196
F0.0
sI3525
F0.0
sI1223
F0.0
sI547
F0.0
sI1492
F0.0
sI71381
F0.0
sI726
F0.0
sI36
F0.0
sI1499
F0.0
sI6034
F0.0
sI71392
F0.0
sI738
F0.0
sI739
F0.0
sI2277
F0.0
sI1514
F0.0
sI1849
F0.0
sI3063
F0.0
sI1017
F0.0
sI4090
F0.0
sI1531
F0.0
sI764
F0.0
sI767
F0.0
sg2
(g6
S'\x03\x00\x00\x00\x00 \xc3\xbc'
p380
tp381
Rp382
g12
I1
F0.5
tp383
a(I75
F10.46692705154419
(dp384
I1537
F0.0
sI2
F0.0
sI771
F0.0
sI7425
F0.0
sI3848
F0.0
sI2064
F0.0
sI23
F0.0
sI280
F0.0
sI28
F0.0
sI31
F0.0
sI32
F0.0
sI1570
F0.0
sI35
F0.0
sI1060
F0.0
sI1833
F0.0
sI45
F0.0
sI564
F0.0
sI1845
F0.0
sI1847
F0.0
sI825
F0.0
sI1594
F0.0
sI1855
F0.0
sI6465
F0.0
sI67
F0.0
sI2116
F0.0
sI587
F0.0
sI591
F0.0
sI3922
F0.0
sI2702
F0.0
sI6487
F0.0
sI1624
F0.0
sI601
F0.0
sI1377
F0.0
sI1634
F0.0
sI1636
F0.0
sI5222
F0.0
sI2406
F0.0
sI4200
F0.0
sI5225
F0.0
sI6506
F0.0
sI146
F0.0
sI5230
F0.0
sI6001
F0.0
sI1394
F0.0
sI6772
F0.0
sI630
F0.0
sI120
F0.0
sI4927
F0.0
sI638
F0.0
sI1407
F0.0
sI1667
F0.0
sI7045
F0.0
sI646
F0.0
sI651
F0.0
sI653
F0.0
sI142
F0.0
sI493
F0.0
sI635
F0.0
sI1170
F0.0
sI662
F0.0
sI2967
F0.0
sI664
F0.0
sI3232
F0.0
sI1441
F0.0
sI2978
F0.0
sI2727
F0.0
sI4008
F0.0
sI170
F0.0
sI427
F0.0
sI4015
F0.0
sI1718
F0.0
sI884
F0.0
sI2234
F0.0
sI444
F0.0
sI1725
F0.0
sI448
F0.0
sI705
F0.0
sI1474
F0.0
sI196
F0.0
sI3525
F0.0
sI1223
F0.0
sI547
F0.0
sI1492
F0.0
sI71381
F0.0
sI726
F0.0
sI36
F0.0
sI1499
F0.0
sI6034
F0.0
sI71392
F0.0
sI738
F0.0
sI739
F0.0
sI2277
F0.0
sI1514
F0.0
sI1849
F0.0
sI3063
F0.0
sI1017
F0.0
sI4090
F0.0
sI1531
F0.0
sI764
F0.0
sI767
F0.0
sg2
(g6
S'\x03\x00\x00\x00\x00 \xc3\xbc'
p385
tp386
Rp387
g12
I1
F0.5
tp388
a(I76
F10.603615999221802
(dp389
I1537
F0.0
sI2
F0.0
sI771
F0.0
sI7425
F0.0
sI3848
F0.0
sI2064
F0.0
sI23
F0.0
sI280
F0.0
sI28
F0.0
sI31
F0.0
sI32
F0.0
sI1570
F0.0
sI35
F0.0
sI1060
F0.0
sI1833
F0.0
sI45
F0.0
sI564
F0.0
sI1845
F0.0
sI1847
F0.0
sI825
F0.0
sI1594
F0.0
sI1855
F0.0
sI6465
F0.0
sI67
F0.0
sI2116
F0.0
sI587
F0.0
sI591
F0.0
sI3922
F0.0
sI2702
F0.0
sI6487
F0.0
sI1624
F0.0
sI601
F0.0
sI1377
F0.0
sI1634
F0.0
sI1636
F0.0
sI5222
F0.0
sI2406
F0.0
sI4200
F0.0
sI5225
F0.0
sI6506
F0.0
sI146
F0.0
sI5230
F0.0
sI6001
F0.0
sI1394
F0.0
sI6772
F0.0
sI630
F0.0
sI120
F0.0
sI4927
F0.0
sI638
F0.0
sI1407
F0.0
sI1667
F0.0
sI7045
F0.0
sI646
F0.0
sI651
F0.0
sI653
F0.0
sI142
F0.0
sI493
F0.0
sI635
F0.0
sI1170
F0.0
sI662
F0.0
sI2967
F0.0
sI664
F0.0
sI3232
F0.0
sI1441
F0.0
sI2978
F0.0
sI2727
F0.0
sI4008
F0.0
sI170
F0.0
sI427
F0.0
sI4015
F0.0
sI1718
F0.0
sI884
F0.0
sI2234
F0.0
sI444
F0.0
sI1725
F0.0
sI448
F0.0
sI705
F0.0
sI1474
F0.0
sI196
F0.0
sI3525
F0.0
sI1223
F0.0
sI547
F0.0
sI1492
F0.0
sI71381
F0.0
sI726
F0.0
sI36
F0.0
sI1499
F0.0
sI6034
F0.0
sI71392
F0.0
sI738
F0.0
sI739
F0.0
sI2277
F0.0
sI1514
F0.0
sI1849
F0.0
sI3063
F0.0
sI1017
F0.0
sI4090
F0.0
sI1531
F0.0
sI764
F0.0
sI767
F0.0
sg2
(g6
S'\x03\x00\x00\x00\x00 \xc3\xbc'
p390
tp391
Rp392
g12
I1
F0.5
tp393
a(I77
F10.740570068359375
(dp394
I1537
F0.0
sI2
F0.0
sI771
F0.0
sI7425
F0.0
sI3848
F0.0
sI2064
F0.0
sI23
F0.0
sI280
F0.0
sI28
F0.0
sI31
F0.0
sI32
F0.0
sI1570
F0.0
sI35
F0.0
sI1060
F0.0
sI1833
F0.0
sI45
F0.0
sI564
F0.0
sI1845
F0.0
sI1847
F0.0
sI825
F0.0
sI1594
F0.0
sI1855
F0.0
sI6465
F0.0
sI67
F0.0
sI2116
F0.0
sI587
F0.0
sI591
F0.0
sI3922
F0.0
sI2702
F0.0
sI6487
F0.0
sI1624
F0.0
sI601
F0.0
sI1377
F0.0
sI1634
F0.0
sI1636
F0.0
sI5222
F0.0
sI2406
F0.0
sI4200
F0.0
sI5225
F0.0
sI6506
F0.0
sI146
F0.0
sI5230
F0.0
sI6001
F0.0
sI1394
F0.0
sI6772
F0.0
sI630
F0.0
sI120
F0.0
sI4927
F0.0
sI638
F0.0
sI1407
F0.0
sI1667
F0.0
sI7045
F0.0
sI646
F0.0
sI651
F0.0
sI653
F0.0
sI142
F0.0
sI493
F0.0
sI635
F0.0
sI1170
F0.0
sI662
F0.0
sI2967
F0.0
sI664
F0.0
sI3232
F0.0
sI1441
F0.0
sI2978
F0.0
sI2727
F0.0
sI4008
F0.0
sI170
F0.0
sI427
F0.0
sI4015
F0.0
sI1718
F0.0
sI884
F0.0
sI2234
F0.0
sI444
F0.0
sI1725
F0.0
sI448
F0.0
sI705
F0.0
sI1474
F0.0
sI196
F0.0
sI3525
F0.0
sI1223
F0.0
sI547
F0.0
sI1492
F0.0
sI71381
F0.0
sI726
F0.0
sI36
F0.0
sI1499
F0.0
sI6034
F0.0
sI71392
F0.0
sI738
F0.0
sI739
F0.0
sI2277
F0.0
sI1514
F0.0
sI1849
F0.0
sI3063
F0.0
sI1017
F0.0
sI4090
F0.0
sI1531
F0.0
sI764
F0.0
sI767
F0.0
sg2
(g6
S'\x03\x00\x00\x00\x00 \xc3\xbc'
p395
tp396
Rp397
g12
I1
F0.5
tp398
a(I78
F10.877424001693726
(dp399
I1537
F0.0
sI2
F0.0
sI771
F0.0
sI7425
F0.0
sI3848
F0.0
sI2064
F0.0
sI23
F0.0
sI280
F0.0
sI28
F0.0
sI31
F0.0
sI32
F0.0
sI1570
F0.0
sI35
F0.0
sI1060
F0.0
sI1833
F0.0
sI45
F0.0
sI564
F0.0
sI1845
F0.0
sI1847
F0.0
sI825
F0.0
sI1594
F0.0
sI1855
F0.0
sI6465
F0.0
sI67
F0.0
sI2116
F0.0
sI587
F0.0
sI591
F0.0
sI3922
F0.0
sI2702
F0.0
sI6487
F0.0
sI1624
F0.0
sI601
F0.0
sI1377
F0.0
sI1634
F0.0
sI1636
F0.0
sI5222
F0.0
sI2406
F0.0
sI4200
F0.0
sI5225
F0.0
sI6506
F0.0
sI146
F0.0
sI5230
F0.0
sI6001
F0.0
sI1394
F0.0
sI6772
F0.0
sI630
F0.0
sI120
F0.0
sI4927
F0.0
sI638
F0.0
sI1407
F0.0
sI1667
F0.0
sI7045
F0.0
sI646
F0.0
sI651
F0.0
sI653
F0.0
sI142
F0.0
sI493
F0.0
sI635
F0.0
sI1170
F0.0
sI662
F0.0
sI2967
F0.0
sI664
F0.0
sI3232
F0.0
sI1441
F0.0
sI2978
F0.0
sI2727
F0.0
sI4008
F0.0
sI170
F0.0
sI427
F0.0
sI4015
F0.0
sI1718
F0.0
sI884
F0.0
sI2234
F0.0
sI444
F0.0
sI1725
F0.0
sI448
F0.0
sI705
F0.0
sI1474
F0.0
sI196
F0.0
sI3525
F0.0
sI1223
F0.0
sI547
F0.0
sI1492
F0.0
sI71381
F0.0
sI726
F0.0
sI36
F0.0
sI1499
F0.0
sI6034
F0.0
sI71392
F0.0
sI738
F0.0
sI739
F0.0
sI2277
F0.0
sI1514
F0.0
sI1849
F0.0
sI3063
F0.0
sI1017
F0.0
sI4090
F0.0
sI1531
F0.0
sI764
F0.0
sI767
F0.0
sg2
(g6
S'\x03\x00\x00\x00\x00 \xc3\xbc'
p400
tp401
Rp402
g12
I1
F0.5
tp403
a(I79
F11.013976097106934
(dp404
I1537
F0.0
sI2
F0.0
sI771
F0.0
sI7425
F0.0
sI3848
F0.0
sI2064
F0.0
sI23
F0.0
sI280
F0.0
sI28
F0.0
sI31
F0.0
sI32
F0.0
sI1570
F0.0
sI35
F0.0
sI1060
F0.0
sI1833
F0.0
sI45
F0.0
sI564
F0.0
sI1845
F0.0
sI1847
F0.0
sI825
F0.0
sI1594
F0.0
sI1855
F0.0
sI6465
F0.0
sI67
F0.0
sI2116
F0.0
sI587
F0.0
sI591
F0.0
sI3922
F0.0
sI2702
F0.0
sI6487
F0.0
sI1624
F0.0
sI601
F0.0
sI1377
F0.0
sI1634
F0.0
sI1636
F0.0
sI5222
F0.0
sI2406
F0.0
sI4200
F0.0
sI5225
F0.0
sI6506
F0.0
sI146
F0.0
sI5230
F0.0
sI6001
F0.0
sI1394
F0.0
sI6772
F0.0
sI630
F0.0
sI120
F0.0
sI4927
F0.0
sI638
F0.0
sI1407
F0.0
sI1667
F0.0
sI7045
F0.0
sI646
F0.0
sI651
F0.0
sI653
F0.0
sI142
F0.0
sI493
F0.0
sI635
F0.0
sI1170
F0.0
sI662
F0.0
sI2967
F0.0
sI664
F0.0
sI3232
F0.0
sI1441
F0.0
sI2978
F0.0
sI2727
F0.0
sI4008
F0.0
sI170
F0.0
sI427
F0.0
sI4015
F0.0
sI1718
F0.0
sI884
F0.0
sI2234
F0.0
sI444
F0.0
sI1725
F0.0
sI448
F0.0
sI705
F0.0
sI1474
F0.0
sI196
F0.0
sI3525
F0.0
sI1223
F0.0
sI547
F0.0
sI1492
F0.0
sI71381
F0.0
sI726
F0.0
sI36
F0.0
sI1499
F0.0
sI6034
F0.0
sI71392
F0.0
sI738
F0.0
sI739
F0.0
sI2277
F0.0
sI1514
F0.0
sI1849
F0.0
sI3063
F0.0
sI1017
F0.0
sI4090
F0.0
sI1531
F0.0
sI764
F0.0
sI767
F0.0
sg2
(g6
S'\x03\x00\x00\x00\x00 \xc3\xbc'
p405
tp406
Rp407
g12
I1
F0.5
tp408
a(I80
F11.150363206863403
(dp409
I1537
F0.0
sI2
F0.0
sI771
F0.0
sI7425
F0.0
sI3848
F0.0
sI2064
F0.0
sI23
F0.0
sI280
F0.0
sI28
F0.0
sI31
F0.0
sI32
F0.0
sI1570
F0.0
sI35
F0.0
sI1060
F0.0
sI1833
F0.0
sI45
F0.0
sI564
F0.0
sI1845
F0.0
sI1847
F0.0
sI825
F0.0
sI1594
F0.0
sI1855
F0.0
sI6465
F0.0
sI67
F0.0
sI2116
F0.0
sI587
F0.0
sI591
F0.0
sI3922
F0.0
sI2702
F0.0
sI6487
F0.0
sI1624
F0.0
sI601
F0.0
sI1377
F0.0
sI1634
F0.0
sI1636
F0.0
sI5222
F0.0
sI2406
F0.0
sI4200
F0.0
sI5225
F0.0
sI6506
F0.0
sI146
F0.0
sI5230
F0.0
sI6001
F0.0
sI1394
F0.0
sI6772
F0.0
sI630
F0.0
sI120
F0.0
sI4927
F0.0
sI638
F0.0
sI1407
F0.0
sI1667
F0.0
sI7045
F0.0
sI646
F0.0
sI651
F0.0
sI653
F0.0
sI142
F0.0
sI493
F0.0
sI635
F0.0
sI1170
F0.0
sI662
F0.0
sI2967
F0.0
sI664
F0.0
sI3232
F0.0
sI1441
F0.0
sI2978
F0.0
sI2727
F0.0
sI4008
F0.0
sI170
F0.0
sI427
F0.0
sI4015
F0.0
sI1718
F0.0
sI884
F0.0
sI2234
F0.0
sI444
F0.0
sI1725
F0.0
sI448
F0.0
sI705
F0.0
sI1474
F0.0
sI196
F0.0
sI3525
F0.0
sI1223
F0.0
sI547
F0.0
sI1492
F0.0
sI71381
F0.0
sI726
F0.0
sI36
F0.0
sI1499
F0.0
sI6034
F0.0
sI71392
F0.0
sI738
F0.0
sI739
F0.0
sI2277
F0.0
sI1514
F0.0
sI1849
F0.0
sI3063
F0.0
sI1017
F0.0
sI4090
F0.0
sI1531
F0.0
sI764
F0.0
sI767
F0.0
sg2
(g6
S'\x03\x00\x00\x00\x00 \xc3\xbc'
p410
tp411
Rp412
g12
I1
F0.5
tp413
a(I81
F11.286277055740356
(dp414
I1537
F0.0
sI2
F0.0
sI771
F0.0
sI7425
F0.0
sI3848
F0.0
sI2064
F0.0
sI23
F0.0
sI280
F0.0
sI28
F0.0
sI31
F0.0
sI32
F0.0
sI1570
F0.0
sI35
F0.0
sI1060
F0.0
sI1833
F0.0
sI45
F0.0
sI564
F0.0
sI1845
F0.0
sI1847
F0.0
sI825
F0.0
sI1594
F0.0
sI1855
F0.0
sI6465
F0.0
sI67
F0.0
sI2116
F0.0
sI587
F0.0
sI591
F0.0
sI3922
F0.0
sI2702
F0.0
sI6487
F0.0
sI1624
F0.0
sI601
F0.0
sI1377
F0.0
sI1634
F0.0
sI1636
F0.0
sI5222
F0.0
sI2406
F0.0
sI4200
F0.0
sI5225
F0.0
sI6506
F0.0
sI146
F0.0
sI5230
F0.0
sI6001
F0.0
sI1394
F0.0
sI6772
F0.0
sI630
F0.0
sI120
F0.0
sI4927
F0.0
sI638
F0.0
sI1407
F0.0
sI1667
F0.0
sI7045
F0.0
sI646
F0.0
sI651
F0.0
sI653
F0.0
sI142
F0.0
sI493
F0.0
sI635
F0.0
sI1170
F0.0
sI662
F0.0
sI2967
F0.0
sI664
F0.0
sI3232
F0.0
sI1441
F0.0
sI2978
F0.0
sI2727
F0.0
sI4008
F0.0
sI170
F0.0
sI427
F0.0
sI4015
F0.0
sI1718
F0.0
sI884
F0.0
sI2234
F0.0
sI444
F0.0
sI1725
F0.0
sI448
F0.0
sI705
F0.0
sI1474
F0.0
sI196
F0.0
sI3525
F0.0
sI1223
F0.0
sI547
F0.0
sI1492
F0.0
sI71381
F0.0
sI726
F0.0
sI36
F0.0
sI1499
F0.0
sI6034
F0.0
sI71392
F0.0
sI738
F0.0
sI739
F0.0
sI2277
F0.0
sI1514
F0.0
sI1849
F0.0
sI3063
F0.0
sI1017
F0.0
sI4090
F0.0
sI1531
F0.0
sI764
F0.0
sI767
F0.0
sg2
(g6
S'\x03\x00\x00\x00\x00 \xc3\xbc'
p415
tp416
Rp417
g12
I1
F0.5
tp418
a(I82
F11.422749042510986
(dp419
I1537
F0.0
sI2
F0.0
sI771
F0.0
sI7425
F0.0
sI3848
F0.0
sI2064
F0.0
sI23
F0.0
sI280
F0.0
sI28
F0.0
sI31
F0.0
sI32
F0.0
sI1570
F0.0
sI35
F0.0
sI1060
F0.0
sI1833
F0.0
sI45
F0.0
sI564
F0.0
sI1845
F0.0
sI1847
F0.0
sI825
F0.0
sI1594
F0.0
sI1855
F0.0
sI6465
F0.0
sI67
F0.0
sI2116
F0.0
sI587
F0.0
sI591
F0.0
sI3922
F0.0
sI2702
F0.0
sI6487
F0.0
sI1624
F0.0
sI601
F0.0
sI1377
F0.0
sI1634
F0.0
sI1636
F0.0
sI5222
F0.0
sI2406
F0.0
sI4200
F0.0
sI5225
F0.0
sI6506
F0.0
sI146
F0.0
sI5230
F0.0
sI6001
F0.0
sI1394
F0.0
sI6772
F0.0
sI630
F0.0
sI120
F0.0
sI4927
F0.0
sI638
F0.0
sI1407
F0.0
sI1667
F0.0
sI7045
F0.0
sI646
F0.0
sI651
F0.0
sI653
F0.0
sI142
F0.0
sI493
F0.0
sI635
F0.0
sI1170
F0.0
sI662
F0.0
sI2967
F0.0
sI664
F0.0
sI3232
F0.0
sI1441
F0.0
sI2978
F0.0
sI2727
F0.0
sI4008
F0.0
sI170
F0.0
sI427
F0.0
sI4015
F0.0
sI1718
F0.0
sI884
F0.0
sI2234
F0.0
sI444
F0.0
sI1725
F0.0
sI448
F0.0
sI705
F0.0
sI1474
F0.0
sI196
F0.0
sI3525
F0.0
sI1223
F0.0
sI547
F0.0
sI1492
F0.0
sI71381
F0.0
sI726
F0.0
sI36
F0.0
sI1499
F0.0
sI6034
F0.0
sI71392
F0.0
sI738
F0.0
sI739
F0.0
sI2277
F0.0
sI1514
F0.0
sI1849
F0.0
sI3063
F0.0
sI1017
F0.0
sI4090
F0.0
sI1531
F0.0
sI764
F0.0
sI767
F0.0
sg2
(g6
S'\x03\x00\x00\x00\x00 \xc3\xbc'
p420
tp421
Rp422
g12
I1
F0.5
tp423
a(I83
F11.560513973236084
(dp424
I1537
F0.0
sI2
F0.0
sI771
F0.0
sI7425
F0.0
sI3848
F0.0
sI2064
F0.0
sI23
F0.0
sI280
F0.0
sI28
F0.0
sI31
F0.0
sI32
F0.0
sI1570
F0.0
sI35
F0.0
sI1060
F0.0
sI1833
F0.0
sI45
F0.0
sI564
F0.0
sI1845
F0.0
sI1847
F0.0
sI825
F0.0
sI1594
F0.0
sI1855
F0.0
sI6465
F0.0
sI67
F0.0
sI2116
F0.0
sI587
F0.0
sI591
F0.0
sI3922
F0.0
sI2702
F0.0
sI6487
F0.0
sI1624
F0.0
sI601
F0.0
sI1377
F0.0
sI1634
F0.0
sI1636
F0.0
sI5222
F0.0
sI2406
F0.0
sI4200
F0.0
sI5225
F0.0
sI6506
F0.0
sI146
F0.0
sI5230
F0.0
sI6001
F0.0
sI1394
F0.0
sI6772
F0.0
sI630
F0.0
sI120
F0.0
sI4927
F0.0
sI638
F0.0
sI1407
F0.0
sI1667
F0.0
sI7045
F0.0
sI646
F0.0
sI651
F0.0
sI653
F0.0
sI142
F0.0
sI493
F0.0
sI635
F0.0
sI1170
F0.0
sI662
F0.0
sI2967
F0.0
sI664
F0.0
sI3232
F0.0
sI1441
F0.0
sI2978
F0.0
sI2727
F0.0
sI4008
F0.0
sI170
F0.0
sI427
F0.0
sI4015
F0.0
sI1718
F0.0
sI884
F0.0
sI2234
F0.0
sI444
F0.0
sI1725
F0.0
sI448
F0.0
sI705
F0.0
sI1474
F0.0
sI196
F0.0
sI3525
F0.0
sI1223
F0.0
sI547
F0.0
sI1492
F0.0
sI71381
F0.0
sI726
F0.0
sI36
F0.0
sI1499
F0.0
sI6034
F0.0
sI71392
F0.0
sI738
F0.0
sI739
F0.0
sI2277
F0.0
sI1514
F0.0
sI1849
F0.0
sI3063
F0.0
sI1017
F0.0
sI4090
F0.0
sI1531
F0.0
sI764
F0.0
sI767
F0.0
sg2
(g6
S'\x03\x00\x00\x00\x00 \xc3\xbc'
p425
tp426
Rp427
g12
I1
F0.5
tp428
a(I84
F11.69647216796875
(dp429
I1537
F0.0
sI2
F0.0
sI771
F0.0
sI7425
F0.0
sI3848
F0.0
sI2064
F0.0
sI23
F0.0
sI280
F0.0
sI28
F0.0
sI31
F0.0
sI32
F0.0
sI1570
F0.0
sI35
F0.0
sI1060
F0.0
sI1833
F0.0
sI45
F0.0
sI564
F0.0
sI1845
F0.0
sI1847
F0.0
sI825
F0.0
sI1594
F0.0
sI1855
F0.0
sI6465
F0.0
sI67
F0.0
sI2116
F0.0
sI587
F0.0
sI591
F0.0
sI3922
F0.0
sI2702
F0.0
sI6487
F0.0
sI1624
F0.0
sI601
F0.0
sI1377
F0.0
sI1634
F0.0
sI1636
F0.0
sI5222
F0.0
sI2406
F0.0
sI4200
F0.0
sI5225
F0.0
sI6506
F0.0
sI146
F0.0
sI5230
F0.0
sI6001
F0.0
sI1394
F0.0
sI6772
F0.0
sI630
F0.0
sI120
F0.0
sI4927
F0.0
sI638
F0.0
sI1407
F0.0
sI1667
F0.0
sI7045
F0.0
sI646
F0.0
sI651
F0.0
sI653
F0.0
sI142
F0.0
sI493
F0.0
sI635
F0.0
sI1170
F0.0
sI662
F0.0
sI2967
F0.0
sI664
F0.0
sI3232
F0.0
sI1441
F0.0
sI2978
F0.0
sI2727
F0.0
sI4008
F0.0
sI170
F0.0
sI427
F0.0
sI4015
F0.0
sI1718
F0.0
sI884
F0.0
sI2234
F0.0
sI444
F0.0
sI1725
F0.0
sI448
F0.0
sI705
F0.0
sI1474
F0.0
sI196
F0.0
sI3525
F0.0
sI1223
F0.0
sI547
F0.0
sI1492
F0.0
sI71381
F0.0
sI726
F0.0
sI36
F0.0
sI1499
F0.0
sI6034
F0.0
sI71392
F0.0
sI738
F0.0
sI739
F0.0
sI2277
F0.0
sI1514
F0.0
sI1849
F0.0
sI3063
F0.0
sI1017
F0.0
sI4090
F0.0
sI1531
F0.0
sI764
F0.0
sI767
F0.0
sg2
(g6
S'\x03\x00\x00\x00\x00 \xc3\xbc'
p430
tp431
Rp432
g12
I1
F0.5
tp433
a(I85
F11.833283185958862
(dp434
I1537
F0.0
sI2
F0.0
sI771
F0.0
sI7425
F0.0
sI3848
F0.0
sI2064
F0.0
sI23
F0.0
sI280
F0.0
sI28
F0.0
sI31
F0.0
sI32
F0.0
sI1570
F0.0
sI35
F0.0
sI1060
F0.0
sI1833
F0.0
sI45
F0.0
sI564
F0.0
sI1845
F0.0
sI1847
F0.0
sI825
F0.0
sI1594
F0.0
sI1855
F0.0
sI6465
F0.0
sI67
F0.0
sI2116
F0.0
sI587
F0.0
sI591
F0.0
sI3922
F0.0
sI2702
F0.0
sI6487
F0.0
sI1624
F0.0
sI601
F0.0
sI1377
F0.0
sI1634
F0.0
sI1636
F0.0
sI5222
F0.0
sI2406
F0.0
sI4200
F0.0
sI5225
F0.0
sI6506
F0.0
sI146
F0.0
sI5230
F0.0
sI6001
F0.0
sI1394
F0.0
sI6772
F0.0
sI630
F0.0
sI120
F0.0
sI4927
F0.0
sI638
F0.0
sI1407
F0.0
sI1667
F0.0
sI7045
F0.0
sI646
F0.0
sI651
F0.0
sI653
F0.0
sI142
F0.0
sI493
F0.0
sI635
F0.0
sI1170
F0.0
sI662
F0.0
sI2967
F0.0
sI664
F0.0
sI3232
F0.0
sI1441
F0.0
sI2978
F0.0
sI2727
F0.0
sI4008
F0.0
sI170
F0.0
sI427
F0.0
sI4015
F0.0
sI1718
F0.0
sI884
F0.0
sI2234
F0.0
sI444
F0.0
sI1725
F0.0
sI448
F0.0
sI705
F0.0
sI1474
F0.0
sI196
F0.0
sI3525
F0.0
sI1223
F0.0
sI547
F0.0
sI1492
F0.0
sI71381
F0.0
sI726
F0.0
sI36
F0.0
sI1499
F0.0
sI6034
F0.0
sI71392
F0.0
sI738
F0.0
sI739
F0.0
sI2277
F0.0
sI1514
F0.0
sI1849
F0.0
sI3063
F0.0
sI1017
F0.0
sI4090
F0.0
sI1531
F0.0
sI764
F0.0
sI767
F0.0
sg2
(g6
S'\x03\x00\x00\x00\x00 \xc3\xbc'
p435
tp436
Rp437
g12
I1
F0.5
tp438
a(I86
F11.971180200576782
(dp439
I1537
F0.0
sI2
F0.0
sI771
F0.0
sI7425
F0.0
sI3848
F0.0
sI2064
F0.0
sI23
F0.0
sI280
F0.0
sI28
F0.0
sI31
F0.0
sI32
F0.0
sI1570
F0.0
sI35
F0.0
sI1060
F0.0
sI1833
F0.0
sI45
F0.0
sI564
F0.0
sI1845
F0.0
sI1847
F0.0
sI825
F0.0
sI1594
F0.0
sI1855
F0.0
sI6465
F0.0
sI67
F0.0
sI2116
F0.0
sI587
F0.0
sI591
F0.0
sI3922
F0.0
sI2702
F0.0
sI6487
F0.0
sI1624
F0.0
sI601
F0.0
sI1377
F0.0
sI1634
F0.0
sI1636
F0.0
sI5222
F0.0
sI2406
F0.0
sI4200
F0.0
sI5225
F0.0
sI6506
F0.0
sI146
F0.0
sI5230
F0.0
sI6001
F0.0
sI1394
F0.0
sI6772
F0.0
sI630
F0.0
sI120
F0.0
sI4927
F0.0
sI638
F0.0
sI1407
F0.0
sI1667
F0.0
sI7045
F0.0
sI646
F0.0
sI651
F0.0
sI653
F0.0
sI142
F0.0
sI493
F0.0
sI635
F0.0
sI1170
F0.0
sI662
F0.0
sI2967
F0.0
sI664
F0.0
sI3232
F0.0
sI1441
F0.0
sI2978
F0.0
sI2727
F0.0
sI4008
F0.0
sI170
F0.0
sI427
F0.0
sI4015
F0.0
sI1718
F0.0
sI884
F0.0
sI2234
F0.0
sI444
F0.0
sI1725
F0.0
sI448
F0.0
sI705
F0.0
sI1474
F0.0
sI196
F0.0
sI3525
F0.0
sI1223
F0.0
sI547
F0.0
sI1492
F0.0
sI71381
F0.0
sI726
F0.0
sI36
F0.0
sI1499
F0.0
sI6034
F0.0
sI71392
F0.0
sI738
F0.0
sI739
F0.0
sI2277
F0.0
sI1514
F0.0
sI1849
F0.0
sI3063
F0.0
sI1017
F0.0
sI4090
F0.0
sI1531
F0.0
sI764
F0.0
sI767
F0.0
sg2
(g6
S'\x03\x00\x00\x00\x00 \xc3\xbc'
p440
tp441
Rp442
g12
I1
F0.5
tp443
a(I87
F12.106837034225464
(dp444
I1537
F0.0
sI2
F0.0
sI771
F0.0
sI7425
F0.0
sI3848
F0.0
sI2064
F0.0
sI23
F0.0
sI280
F0.0
sI28
F0.0
sI31
F0.0
sI32
F0.0
sI1570
F0.0
sI35
F0.0
sI1060
F0.0
sI1833
F0.0
sI45
F0.0
sI564
F0.0
sI1845
F0.0
sI1847
F0.0
sI825
F0.0
sI1594
F0.0
sI1855
F0.0
sI6465
F0.0
sI67
F0.0
sI2116
F0.0
sI587
F0.0
sI591
F0.0
sI3922
F0.0
sI2702
F0.0
sI6487
F0.0
sI1624
F0.0
sI601
F0.0
sI1377
F0.0
sI1634
F0.0
sI1636
F0.0
sI5222
F0.0
sI2406
F0.0
sI4200
F0.0
sI5225
F0.0
sI6506
F0.0
sI146
F0.0
sI5230
F0.0
sI6001
F0.0
sI1394
F0.0
sI6772
F0.0
sI630
F0.0
sI120
F0.0
sI4927
F0.0
sI638
F0.0
sI1407
F0.0
sI1667
F0.0
sI7045
F0.0
sI646
F0.0
sI651
F0.0
sI653
F0.0
sI142
F0.0
sI493
F0.0
sI635
F0.0
sI1170
F0.0
sI662
F0.0
sI2967
F0.0
sI664
F0.0
sI3232
F0.0
sI1441
F0.0
sI2978
F0.0
sI2727
F0.0
sI4008
F0.0
sI170
F0.0
sI427
F0.0
sI4015
F0.0
sI1718
F0.0
sI884
F0.0
sI2234
F0.0
sI444
F0.0
sI1725
F0.0
sI448
F0.0
sI705
F0.0
sI1474
F0.0
sI196
F0.0
sI3525
F0.0
sI1223
F0.0
sI547
F0.0
sI1492
F0.0
sI71381
F0.0
sI726
F0.0
sI36
F0.0
sI1499
F0.0
sI6034
F0.0
sI71392
F0.0
sI738
F0.0
sI739
F0.0
sI2277
F0.0
sI1514
F0.0
sI1849
F0.0
sI3063
F0.0
sI1017
F0.0
sI4090
F0.0
sI1531
F0.0
sI764
F0.0
sI767
F0.0
sg2
(g6
S'\x03\x00\x00\x00\x00 \xc3\xbc'
p445
tp446
Rp447
g12
I1
F0.5
tp448
a(I88
F12.24288010597229
(dp449
I1537
F0.0
sI2
F0.0
sI771
F0.0
sI7425
F0.0
sI3848
F0.0
sI2064
F0.0
sI23
F0.0
sI280
F0.0
sI28
F0.0
sI31
F0.0
sI32
F0.0
sI1570
F0.0
sI35
F0.0
sI1060
F0.0
sI1833
F0.0
sI45
F0.0
sI564
F0.0
sI1845
F0.0
sI1847
F0.0
sI825
F0.0
sI1594
F0.0
sI1855
F0.0
sI6465
F0.0
sI67
F0.0
sI2116
F0.0
sI587
F0.0
sI591
F0.0
sI3922
F0.0
sI2702
F0.0
sI6487
F0.0
sI1624
F0.0
sI601
F0.0
sI1377
F0.0
sI1634
F0.0
sI1636
F0.0
sI5222
F0.0
sI2406
F0.0
sI4200
F0.0
sI5225
F0.0
sI6506
F0.0
sI146
F0.0
sI5230
F0.0
sI6001
F0.0
sI1394
F0.0
sI6772
F0.0
sI630
F0.0
sI120
F0.0
sI4927
F0.0
sI638
F0.0
sI1407
F0.0
sI1667
F0.0
sI7045
F0.0
sI646
F0.0
sI651
F0.0
sI653
F0.0
sI142
F0.0
sI493
F0.0
sI635
F0.0
sI1170
F0.0
sI662
F0.0
sI2967
F0.0
sI664
F0.0
sI3232
F0.0
sI1441
F0.0
sI2978
F0.0
sI2727
F0.0
sI4008
F0.0
sI170
F0.0
sI427
F0.0
sI4015
F0.0
sI1718
F0.0
sI884
F0.0
sI2234
F0.0
sI444
F0.0
sI1725
F0.0
sI448
F0.0
sI705
F0.0
sI1474
F0.0
sI196
F0.0
sI3525
F0.0
sI1223
F0.0
sI547
F0.0
sI1492
F0.0
sI71381
F0.0
sI726
F0.0
sI36
F0.0
sI1499
F0.0
sI6034
F0.0
sI71392
F0.0
sI738
F0.0
sI739
F0.0
sI2277
F0.0
sI1514
F0.0
sI1849
F0.0
sI3063
F0.0
sI1017
F0.0
sI4090
F0.0
sI1531
F0.0
sI764
F0.0
sI767
F0.0
sg2
(g6
S'\x03\x00\x00\x00\x00 \xc3\xbc'
p450
tp451
Rp452
g12
I1
F0.5
tp453
a(I89
F12.379736185073853
(dp454
I1537
F0.0
sI2
F0.0
sI771
F0.0
sI7425
F0.0
sI3848
F0.0
sI2064
F0.0
sI23
F0.0
sI280
F0.0
sI28
F0.0
sI31
F0.0
sI32
F0.0
sI1570
F0.0
sI35
F0.0
sI1060
F0.0
sI1833
F0.0
sI45
F0.0
sI564
F0.0
sI1845
F0.0
sI1847
F0.0
sI825
F0.0
sI1594
F0.0
sI1855
F0.0
sI6465
F0.0
sI67
F0.0
sI2116
F0.0
sI587
F0.0
sI591
F0.0
sI3922
F0.0
sI2702
F0.0
sI6487
F0.0
sI1624
F0.0
sI601
F0.0
sI1377
F0.0
sI1634
F0.0
sI1636
F0.0
sI5222
F0.0
sI2406
F0.0
sI4200
F0.0
sI5225
F0.0
sI6506
F0.0
sI146
F0.0
sI5230
F0.0
sI6001
F0.0
sI1394
F0.0
sI6772
F0.0
sI630
F0.0
sI120
F0.0
sI4927
F0.0
sI638
F0.0
sI1407
F0.0
sI1667
F0.0
sI7045
F0.0
sI646
F0.0
sI651
F0.0
sI653
F0.0
sI142
F0.0
sI493
F0.0
sI635
F0.0
sI1170
F0.0
sI662
F0.0
sI2967
F0.0
sI664
F0.0
sI3232
F0.0
sI1441
F0.0
sI2978
F0.0
sI2727
F0.0
sI4008
F0.0
sI170
F0.0
sI427
F0.0
sI4015
F0.0
sI1718
F0.0
sI884
F0.0
sI2234
F0.0
sI444
F0.0
sI1725
F0.0
sI448
F0.0
sI705
F0.0
sI1474
F0.0
sI196
F0.0
sI3525
F0.0
sI1223
F0.0
sI547
F0.0
sI1492
F0.0
sI71381
F0.0
sI726
F0.0
sI36
F0.0
sI1499
F0.0
sI6034
F0.0
sI71392
F0.0
sI738
F0.0
sI739
F0.0
sI2277
F0.0
sI1514
F0.0
sI1849
F0.0
sI3063
F0.0
sI1017
F0.0
sI4090
F0.0
sI1531
F0.0
sI764
F0.0
sI767
F0.0
sg2
(g6
S'\x03\x00\x00\x00\x00 \xc3\xbc'
p455
tp456
Rp457
g12
I1
F0.5
tp458
a(I90
F12.516471147537231
(dp459
I1537
F0.0
sI2
F0.0
sI771
F0.0
sI7425
F0.0
sI3848
F0.0
sI2064
F0.0
sI23
F0.0
sI280
F0.0
sI28
F0.0
sI31
F0.0
sI32
F0.0
sI1570
F0.0
sI35
F0.0
sI1060
F0.0
sI1833
F0.0
sI45
F0.0
sI564
F0.0
sI1845
F0.0
sI1847
F0.0
sI825
F0.0
sI1594
F0.0
sI1855
F0.0
sI6465
F0.0
sI67
F0.0
sI2116
F0.0
sI587
F0.0
sI591
F0.0
sI3922
F0.0
sI2702
F0.0
sI6487
F0.0
sI1624
F0.0
sI601
F0.0
sI1377
F0.0
sI1634
F0.0
sI1636
F0.0
sI5222
F0.0
sI2406
F0.0
sI4200
F0.0
sI5225
F0.0
sI6506
F0.0
sI146
F0.0
sI5230
F0.0
sI6001
F0.0
sI1394
F0.0
sI6772
F0.0
sI630
F0.0
sI120
F0.0
sI4927
F0.0
sI638
F0.0
sI1407
F0.0
sI1667
F0.0
sI7045
F0.0
sI646
F0.0
sI651
F0.0
sI653
F0.0
sI142
F0.0
sI493
F0.0
sI635
F0.0
sI1170
F0.0
sI662
F0.0
sI2967
F0.0
sI664
F0.0
sI3232
F0.0
sI1441
F0.0
sI2978
F0.0
sI2727
F0.0
sI4008
F0.0
sI170
F0.0
sI427
F0.0
sI4015
F0.0
sI1718
F0.0
sI884
F0.0
sI2234
F0.0
sI444
F0.0
sI1725
F0.0
sI448
F0.0
sI705
F0.0
sI1474
F0.0
sI196
F0.0
sI3525
F0.0
sI1223
F0.0
sI547
F0.0
sI1492
F0.0
sI71381
F0.0
sI726
F0.0
sI36
F0.0
sI1499
F0.0
sI6034
F0.0
sI71392
F0.0
sI738
F0.0
sI739
F0.0
sI2277
F0.0
sI1514
F0.0
sI1849
F0.0
sI3063
F0.0
sI1017
F0.0
sI4090
F0.0
sI1531
F0.0
sI764
F0.0
sI767
F0.0
sg2
(g6
S'\x03\x00\x00\x00\x00 \xc3\xbc'
p460
tp461
Rp462
g12
I1
F0.5
tp463
a(I91
F12.653582096099854
(dp464
I1537
F0.0
sI2
F0.0
sI771
F0.0
sI7425
F0.0
sI3848
F0.0
sI2064
F0.0
sI23
F0.0
sI280
F0.0
sI28
F0.0
sI31
F0.0
sI32
F0.0
sI1570
F0.0
sI35
F0.0
sI1060
F0.0
sI1833
F0.0
sI45
F0.0
sI564
F0.0
sI1845
F0.0
sI1847
F0.0
sI825
F0.0
sI1594
F0.0
sI1855
F0.0
sI6465
F0.0
sI67
F0.0
sI2116
F0.0
sI587
F0.0
sI591
F0.0
sI3922
F0.0
sI2702
F0.0
sI6487
F0.0
sI1624
F0.0
sI601
F0.0
sI1377
F0.0
sI1634
F0.0
sI1636
F0.0
sI5222
F0.0
sI2406
F0.0
sI4200
F0.0
sI5225
F0.0
sI6506
F0.0
sI146
F0.0
sI5230
F0.0
sI6001
F0.0
sI1394
F0.0
sI6772
F0.0
sI630
F0.0
sI120
F0.0
sI4927
F0.0
sI638
F0.0
sI1407
F0.0
sI1667
F0.0
sI7045
F0.0
sI646
F0.0
sI651
F0.0
sI653
F0.0
sI142
F0.0
sI493
F0.0
sI635
F0.0
sI1170
F0.0
sI662
F0.0
sI2967
F0.0
sI664
F0.0
sI3232
F0.0
sI1441
F0.0
sI2978
F0.0
sI2727
F0.0
sI4008
F0.0
sI170
F0.0
sI427
F0.0
sI4015
F0.0
sI1718
F0.0
sI884
F0.0
sI2234
F0.0
sI444
F0.0
sI1725
F0.0
sI448
F0.0
sI705
F0.0
sI1474
F0.0
sI196
F0.0
sI3525
F0.0
sI1223
F0.0
sI547
F0.0
sI1492
F0.0
sI71381
F0.0
sI726
F0.0
sI36
F0.0
sI1499
F0.0
sI6034
F0.0
sI71392
F0.0
sI738
F0.0
sI739
F0.0
sI2277
F0.0
sI1514
F0.0
sI1849
F0.0
sI3063
F0.0
sI1017
F0.0
sI4090
F0.0
sI1531
F0.0
sI764
F0.0
sI767
F0.0
sg2
(g6
S'\x03\x00\x00\x00\x00 \xc3\xbc'
p465
tp466
Rp467
g12
I1
F0.5
tp468
a(I92
F12.791038036346436
(dp469
I1537
F0.0
sI2
F0.0
sI771
F0.0
sI7425
F0.0
sI3848
F0.0
sI2064
F0.0
sI23
F0.0
sI280
F0.0
sI28
F0.0
sI31
F0.0
sI32
F0.0
sI1570
F0.0
sI35
F0.0
sI1060
F0.0
sI1833
F0.0
sI45
F0.0
sI564
F0.0
sI1845
F0.0
sI1847
F0.0
sI825
F0.0
sI1594
F0.0
sI1855
F0.0
sI6465
F0.0
sI67
F0.0
sI2116
F0.0
sI587
F0.0
sI591
F0.0
sI3922
F0.0
sI2702
F0.0
sI6487
F0.0
sI1624
F0.0
sI601
F0.0
sI1377
F0.0
sI1634
F0.0
sI1636
F0.0
sI5222
F0.0
sI2406
F0.0
sI4200
F0.0
sI5225
F0.0
sI6506
F0.0
sI146
F0.0
sI5230
F0.0
sI6001
F0.0
sI1394
F0.0
sI6772
F0.0
sI630
F0.0
sI120
F0.0
sI4927
F0.0
sI638
F0.0
sI1407
F0.0
sI1667
F0.0
sI7045
F0.0
sI646
F0.0
sI651
F0.0
sI653
F0.0
sI142
F0.0
sI493
F0.0
sI635
F0.0
sI1170
F0.0
sI662
F0.0
sI2967
F0.0
sI664
F0.0
sI3232
F0.0
sI1441
F0.0
sI2978
F0.0
sI2727
F0.0
sI4008
F0.0
sI170
F0.0
sI427
F0.0
sI4015
F0.0
sI1718
F0.0
sI884
F0.0
sI2234
F0.0
sI444
F0.0
sI1725
F0.0
sI448
F0.0
sI705
F0.0
sI1474
F0.0
sI196
F0.0
sI3525
F0.0
sI1223
F0.0
sI547
F0.0
sI1492
F0.0
sI71381
F0.0
sI726
F0.0
sI36
F0.0
sI1499
F0.0
sI6034
F0.0
sI71392
F0.0
sI738
F0.0
sI739
F0.0
sI2277
F0.0
sI1514
F0.0
sI1849
F0.0
sI3063
F0.0
sI1017
F0.0
sI4090
F0.0
sI1531
F0.0
sI764
F0.0
sI767
F0.0
sg2
(g6
S'\x03\x00\x00\x00\x00 \xc3\xbc'
p470
tp471
Rp472
g12
I1
F0.5
tp473
a(I93
F12.92836308479309
(dp474
I1537
F0.0
sI2
F0.0
sI771
F0.0
sI7425
F0.0
sI3848
F0.0
sI2064
F0.0
sI23
F0.0
sI280
F0.0
sI28
F0.0
sI31
F0.0
sI32
F0.0
sI1570
F0.0
sI35
F0.0
sI1060
F0.0
sI1833
F0.0
sI45
F0.0
sI564
F0.0
sI1845
F0.0
sI1847
F0.0
sI825
F0.0
sI1594
F0.0
sI1855
F0.0
sI6465
F0.0
sI67
F0.0
sI2116
F0.0
sI587
F0.0
sI591
F0.0
sI3922
F0.0
sI2702
F0.0
sI6487
F0.0
sI1624
F0.0
sI601
F0.0
sI1377
F0.0
sI1634
F0.0
sI1636
F0.0
sI5222
F0.0
sI2406
F0.0
sI4200
F0.0
sI5225
F0.0
sI6506
F0.0
sI146
F0.0
sI5230
F0.0
sI6001
F0.0
sI1394
F0.0
sI6772
F0.0
sI630
F0.0
sI120
F0.0
sI4927
F0.0
sI638
F0.0
sI1407
F0.0
sI1667
F0.0
sI7045
F0.0
sI646
F0.0
sI651
F0.0
sI653
F0.0
sI142
F0.0
sI493
F0.0
sI635
F0.0
sI1170
F0.0
sI662
F0.0
sI2967
F0.0
sI664
F0.0
sI3232
F0.0
sI1441
F0.0
sI2978
F0.0
sI2727
F0.0
sI4008
F0.0
sI170
F0.0
sI427
F0.0
sI4015
F0.0
sI1718
F0.0
sI884
F0.0
sI2234
F0.0
sI444
F0.0
sI1725
F0.0
sI448
F0.0
sI705
F0.0
sI1474
F0.0
sI196
F0.0
sI3525
F0.0
sI1223
F0.0
sI547
F0.0
sI1492
F0.0
sI71381
F0.0
sI726
F0.0
sI36
F0.0
sI1499
F0.0
sI6034
F0.0
sI71392
F0.0
sI738
F0.0
sI739
F0.0
sI2277
F0.0
sI1514
F0.0
sI1849
F0.0
sI3063
F0.0
sI1017
F0.0
sI4090
F0.0
sI1531
F0.0
sI764
F0.0
sI767
F0.0
sg2
(g6
S'\x03\x00\x00\x00\x00 \xc3\xbc'
p475
tp476
Rp477
g12
I1
F0.5
tp478
a(I94
F13.065345048904419
(dp479
I1537
F0.0
sI2
F0.0
sI771
F0.0
sI7425
F0.0
sI3848
F0.0
sI2064
F0.0
sI23
F0.0
sI280
F0.0
sI28
F0.0
sI31
F0.0
sI32
F0.0
sI1570
F0.0
sI35
F0.0
sI1060
F0.0
sI1833
F0.0
sI45
F0.0
sI564
F0.0
sI1845
F0.0
sI1847
F0.0
sI825
F0.0
sI1594
F0.0
sI1855
F0.0
sI6465
F0.0
sI67
F0.0
sI2116
F0.0
sI587
F0.0
sI591
F0.0
sI3922
F0.0
sI2702
F0.0
sI6487
F0.0
sI1624
F0.0
sI601
F0.0
sI1377
F0.0
sI1634
F0.0
sI1636
F0.0
sI5222
F0.0
sI2406
F0.0
sI4200
F0.0
sI5225
F0.0
sI6506
F0.0
sI146
F0.0
sI5230
F0.0
sI6001
F0.0
sI1394
F0.0
sI6772
F0.0
sI630
F0.0
sI120
F0.0
sI4927
F0.0
sI638
F0.0
sI1407
F0.0
sI1667
F0.0
sI7045
F0.0
sI646
F0.0
sI651
F0.0
sI653
F0.0
sI142
F0.0
sI493
F0.0
sI635
F0.0
sI1170
F0.0
sI662
F0.0
sI2967
F0.0
sI664
F0.0
sI3232
F0.0
sI1441
F0.0
sI2978
F0.0
sI2727
F0.0
sI4008
F0.0
sI170
F0.0
sI427
F0.0
sI4015
F0.0
sI1718
F0.0
sI884
F0.0
sI2234
F0.0
sI444
F0.0
sI1725
F0.0
sI448
F0.0
sI705
F0.0
sI1474
F0.0
sI196
F0.0
sI3525
F0.0
sI1223
F0.0
sI547
F0.0
sI1492
F0.0
sI71381
F0.0
sI726
F0.0
sI36
F0.0
sI1499
F0.0
sI6034
F0.0
sI71392
F0.0
sI738
F0.0
sI739
F0.0
sI2277
F0.0
sI1514
F0.0
sI1849
F0.0
sI3063
F0.0
sI1017
F0.0
sI4090
F0.0
sI1531
F0.0
sI764
F0.0
sI767
F0.0
sg2
(g6
S'\x03\x00\x00\x00\x00 \xc3\xbc'
p480
tp481
Rp482
g12
I1
F0.5
tp483
a(I95
F13.201925992965698
(dp484
I1537
F0.0
sI2
F0.0
sI771
F0.0
sI7425
F0.0
sI3848
F0.0
sI2064
F0.0
sI23
F0.0
sI280
F0.0
sI28
F0.0
sI31
F0.0
sI32
F0.0
sI1570
F0.0
sI35
F0.0
sI1060
F0.0
sI1833
F0.0
sI45
F0.0
sI564
F0.0
sI1845
F0.0
sI1847
F0.0
sI825
F0.0
sI1594
F0.0
sI1855
F0.0
sI6465
F0.0
sI67
F0.0
sI2116
F0.0
sI587
F0.0
sI591
F0.0
sI3922
F0.0
sI2702
F0.0
sI6487
F0.0
sI1624
F0.0
sI601
F0.0
sI1377
F0.0
sI1634
F0.0
sI1636
F0.0
sI5222
F0.0
sI2406
F0.0
sI4200
F0.0
sI5225
F0.0
sI6506
F0.0
sI146
F0.0
sI5230
F0.0
sI6001
F0.0
sI1394
F0.0
sI6772
F0.0
sI630
F0.0
sI120
F0.0
sI4927
F0.0
sI638
F0.0
sI1407
F0.0
sI1667
F0.0
sI7045
F0.0
sI646
F0.0
sI651
F0.0
sI653
F0.0
sI142
F0.0
sI493
F0.0
sI635
F0.0
sI1170
F0.0
sI662
F0.0
sI2967
F0.0
sI664
F0.0
sI3232
F0.0
sI1441
F0.0
sI2978
F0.0
sI2727
F0.0
sI4008
F0.0
sI170
F0.0
sI427
F0.0
sI4015
F0.0
sI1718
F0.0
sI884
F0.0
sI2234
F0.0
sI444
F0.0
sI1725
F0.0
sI448
F0.0
sI705
F0.0
sI1474
F0.0
sI196
F0.0
sI3525
F0.0
sI1223
F0.0
sI547
F0.0
sI1492
F0.0
sI71381
F0.0
sI726
F0.0
sI36
F0.0
sI1499
F0.0
sI6034
F0.0
sI71392
F0.0
sI738
F0.0
sI739
F0.0
sI2277
F0.0
sI1514
F0.0
sI1849
F0.0
sI3063
F0.0
sI1017
F0.0
sI4090
F0.0
sI1531
F0.0
sI764
F0.0
sI767
F0.0
sg2
(g6
S'\x03\x00\x00\x00\x00 \xc3\xbc'
p485
tp486
Rp487
g12
I1
F0.5
tp488
a(I96
F13.338124990463257
(dp489
I1537
F0.0
sI2
F0.0
sI771
F0.0
sI7425
F0.0
sI3848
F0.0
sI2064
F0.0
sI23
F0.0
sI280
F0.0
sI28
F0.0
sI31
F0.0
sI32
F0.0
sI1570
F0.0
sI35
F0.0
sI1060
F0.0
sI1833
F0.0
sI45
F0.0
sI564
F0.0
sI1845
F0.0
sI1847
F0.0
sI825
F0.0
sI1594
F0.0
sI1855
F0.0
sI6465
F0.0
sI67
F0.0
sI2116
F0.0
sI587
F0.0
sI591
F0.0
sI3922
F0.0
sI2702
F0.0
sI6487
F0.0
sI1624
F0.0
sI601
F0.0
sI1377
F0.0
sI1634
F0.0
sI1636
F0.0
sI5222
F0.0
sI2406
F0.0
sI4200
F0.0
sI5225
F0.0
sI6506
F0.0
sI146
F0.0
sI5230
F0.0
sI6001
F0.0
sI1394
F0.0
sI6772
F0.0
sI630
F0.0
sI120
F0.0
sI4927
F0.0
sI638
F0.0
sI1407
F0.0
sI1667
F0.0
sI7045
F0.0
sI646
F0.0
sI651
F0.0
sI653
F0.0
sI142
F0.0
sI493
F0.0
sI635
F0.0
sI1170
F0.0
sI662
F0.0
sI2967
F0.0
sI664
F0.0
sI3232
F0.0
sI1441
F0.0
sI2978
F0.0
sI2727
F0.0
sI4008
F0.0
sI170
F0.0
sI427
F0.0
sI4015
F0.0
sI1718
F0.0
sI884
F0.0
sI2234
F0.0
sI444
F0.0
sI1725
F0.0
sI448
F0.0
sI705
F0.0
sI1474
F0.0
sI196
F0.0
sI3525
F0.0
sI1223
F0.0
sI547
F0.0
sI1492
F0.0
sI71381
F0.0
sI726
F0.0
sI36
F0.0
sI1499
F0.0
sI6034
F0.0
sI71392
F0.0
sI738
F0.0
sI739
F0.0
sI2277
F0.0
sI1514
F0.0
sI1849
F0.0
sI3063
F0.0
sI1017
F0.0
sI4090
F0.0
sI1531
F0.0
sI764
F0.0
sI767
F0.0
sg2
(g6
S'\x03\x00\x00\x00\x00 \xc3\xbc'
p490
tp491
Rp492
g12
I1
F0.5
tp493
a(I97
F13.474862098693848
(dp494
I1537
F0.0
sI2
F0.0
sI771
F0.0
sI7425
F0.0
sI3848
F0.0
sI2064
F0.0
sI23
F0.0
sI280
F0.0
sI28
F0.0
sI31
F0.0
sI32
F0.0
sI1570
F0.0
sI35
F0.0
sI1060
F0.0
sI1833
F0.0
sI45
F0.0
sI564
F0.0
sI1845
F0.0
sI1847
F0.0
sI825
F0.0
sI1594
F0.0
sI1855
F0.0
sI6465
F0.0
sI67
F0.0
sI2116
F0.0
sI587
F0.0
sI591
F0.0
sI3922
F0.0
sI2702
F0.0
sI6487
F0.0
sI1624
F0.0
sI601
F0.0
sI1377
F0.0
sI1634
F0.0
sI1636
F0.0
sI5222
F0.0
sI2406
F0.0
sI4200
F0.0
sI5225
F0.0
sI6506
F0.0
sI146
F0.0
sI5230
F0.0
sI6001
F0.0
sI1394
F0.0
sI6772
F0.0
sI630
F0.0
sI120
F0.0
sI4927
F0.0
sI638
F0.0
sI1407
F0.0
sI1667
F0.0
sI7045
F0.0
sI646
F0.0
sI651
F0.0
sI653
F0.0
sI142
F0.0
sI493
F0.0
sI635
F0.0
sI1170
F0.0
sI662
F0.0
sI2967
F0.0
sI664
F0.0
sI3232
F0.0
sI1441
F0.0
sI2978
F0.0
sI2727
F0.0
sI4008
F0.0
sI170
F0.0
sI427
F0.0
sI4015
F0.0
sI1718
F0.0
sI884
F0.0
sI2234
F0.0
sI444
F0.0
sI1725
F0.0
sI448
F0.0
sI705
F0.0
sI1474
F0.0
sI196
F0.0
sI3525
F0.0
sI1223
F0.0
sI547
F0.0
sI1492
F0.0
sI71381
F0.0
sI726
F0.0
sI36
F0.0
sI1499
F0.0
sI6034
F0.0
sI71392
F0.0
sI738
F0.0
sI739
F0.0
sI2277
F0.0
sI1514
F0.0
sI1849
F0.0
sI3063
F0.0
sI1017
F0.0
sI4090
F0.0
sI1531
F0.0
sI764
F0.0
sI767
F0.0
sg2
(g6
S'\x03\x00\x00\x00\x00 \xc3\xbc'
p495
tp496
Rp497
g12
I1
F0.5
tp498
a(I98
F13.612365007400513
(dp499
I1537
F0.0
sI2
F0.0
sI771
F0.0
sI7425
F0.0
sI3848
F0.0
sI2064
F0.0
sI23
F0.0
sI280
F0.0
sI28
F0.0
sI31
F0.0
sI32
F0.0
sI1570
F0.0
sI35
F0.0
sI1060
F0.0
sI1833
F0.0
sI45
F0.0
sI564
F0.0
sI1845
F0.0
sI1847
F0.0
sI825
F0.0
sI1594
F0.0
sI1855
F0.0
sI6465
F0.0
sI67
F0.0
sI2116
F0.0
sI587
F0.0
sI591
F0.0
sI3922
F0.0
sI2702
F0.0
sI6487
F0.0
sI1624
F0.0
sI601
F0.0
sI1377
F0.0
sI1634
F0.0
sI1636
F0.0
sI5222
F0.0
sI2406
F0.0
sI4200
F0.0
sI5225
F0.0
sI6506
F0.0
sI146
F0.0
sI5230
F0.0
sI6001
F0.0
sI1394
F0.0
sI6772
F0.0
sI630
F0.0
sI120
F0.0
sI4927
F0.0
sI638
F0.0
sI1407
F0.0
sI1667
F0.0
sI7045
F0.0
sI646
F0.0
sI651
F0.0
sI653
F0.0
sI142
F0.0
sI493
F0.0
sI635
F0.0
sI1170
F0.0
sI662
F0.0
sI2967
F0.0
sI664
F0.0
sI3232
F0.0
sI1441
F0.0
sI2978
F0.0
sI2727
F0.0
sI4008
F0.0
sI170
F0.0
sI427
F0.0
sI4015
F0.0
sI1718
F0.0
sI884
F0.0
sI2234
F0.0
sI444
F0.0
sI1725
F0.0
sI448
F0.0
sI705
F0.0
sI1474
F0.0
sI196
F0.0
sI3525
F0.0
sI1223
F0.0
sI547
F0.0
sI1492
F0.0
sI71381
F0.0
sI726
F0.0
sI36
F0.0
sI1499
F0.0
sI6034
F0.0
sI71392
F0.0
sI738
F0.0
sI739
F0.0
sI2277
F0.0
sI1514
F0.0
sI1849
F0.0
sI3063
F0.0
sI1017
F0.0
sI4090
F0.0
sI1531
F0.0
sI764
F0.0
sI767
F0.0
sg2
(g6
S'\x03\x00\x00\x00\x00 \xc3\xbc'
p500
tp501
Rp502
g12
I1
F0.5
tp503
a(I99
F13.750015020370483
(dp504
I1537
F0.0
sI2
F0.0
sI771
F0.0
sI7425
F0.0
sI3848
F0.0
sI2064
F0.0
sI23
F0.0
sI280
F0.0
sI28
F0.0
sI31
F0.0
sI32
F0.0
sI1570
F0.0
sI35
F0.0
sI1060
F0.0
sI1833
F0.0
sI45
F0.0
sI564
F0.0
sI1845
F0.0
sI1847
F0.0
sI825
F0.0
sI1594
F0.0
sI1855
F0.0
sI6465
F0.0
sI67
F0.0
sI2116
F0.0
sI587
F0.0
sI591
F0.0
sI3922
F0.0
sI2702
F0.0
sI6487
F0.0
sI1624
F0.0
sI601
F0.0
sI1377
F0.0
sI1634
F0.0
sI1636
F0.0
sI5222
F0.0
sI2406
F0.0
sI4200
F0.0
sI5225
F0.0
sI6506
F0.0
sI146
F0.0
sI5230
F0.0
sI6001
F0.0
sI1394
F0.0
sI6772
F0.0
sI630
F0.0
sI120
F0.0
sI4927
F0.0
sI638
F0.0
sI1407
F0.0
sI1667
F0.0
sI7045
F0.0
sI646
F0.0
sI651
F0.0
sI653
F0.0
sI142
F0.0
sI493
F0.0
sI635
F0.0
sI1170
F0.0
sI662
F0.0
sI2967
F0.0
sI664
F0.0
sI3232
F0.0
sI1441
F0.0
sI2978
F0.0
sI2727
F0.0
sI4008
F0.0
sI170
F0.0
sI427
F0.0
sI4015
F0.0
sI1718
F0.0
sI884
F0.0
sI2234
F0.0
sI444
F0.0
sI1725
F0.0
sI448
F0.0
sI705
F0.0
sI1474
F0.0
sI196
F0.0
sI3525
F0.0
sI1223
F0.0
sI547
F0.0
sI1492
F0.0
sI71381
F0.0
sI726
F0.0
sI36
F0.0
sI1499
F0.0
sI6034
F0.0
sI71392
F0.0
sI738
F0.0
sI739
F0.0
sI2277
F0.0
sI1514
F0.0
sI1849
F0.0
sI3063
F0.0
sI1017
F0.0
sI4090
F0.0
sI1531
F0.0
sI764
F0.0
sI767
F0.0
sg2
(g6
S'\x03\x00\x00\x00\x00 \xc3\xbc'
p505
tp506
Rp507
g12
I1
F0.5
tp508
a.