(lp0
((dp1
I2316
F0.22000000000000017
sI2317
F0.0
sI2318
F0.0
sI340
F0.0
sI342
F1.0000000000000007
sI344
F0.0
sI345
F1.0000000000000007
sI346
F0.0
sI348
F0.0
sI349
F0.7800000000000006
scnumpy.core.multiarray
scalar
p2
(cnumpy
dtype
p3
(S'f8'
p4
I0
I1
tp5
Rp6
(I3
S'<'
p7
NNNI-1
I-1
I0
tp8
bS'=\xea\x10:%\x1d\xe3?'
p9
tp10
Rp11
F349.5395050048828
I500
S'sampler'
p12
I25
tp13
a((dp14
I2316
F0.20000000000000015
sI2317
F0.0
sI2318
F0.0
sI340
F0.0
sI342
F1.0000000000000007
sI344
F0.0
sI345
F1.0000000000000007
sI346
F0.0
sI348
F0.0
sI349
F0.8000000000000006
sg2
(g6
S'b\xe2@#\x07\x19\xe3?'
p15
tp16
Rp17
F529.2603809833527
I500
S'sampler'
p18
I50
tp19
a((dp20
I2316
F0.18000000000000013
sI2317
F0.0
sI2318
F0.0
sI340
F0.0
sI342
F1.0000000000000007
sI344
F0.0
sI345
F1.0000000000000007
sI346
F0.0
sI348
F0.0
sI349
F0.8200000000000006
sg2
(g6
S'\x86\xdap\x0c\xe9\x14\xe3?'
p21
tp22
Rp23
F1128.1538479328156
I500
S'sampler'
p24
I75
tp25
a((dp26
I2316
F0.19000000000000014
sI2317
F0.0
sI2318
F0.0
sI340
F0.0
sI342
F1.0000000000000007
sI344
F0.0
sI345
F1.0000000000000007
sI346
F0.0
sI348
F0.0
sI349
F0.8100000000000006
sg2
(g6
S't\xde\xd8\x17\xf8\x16\xe3?'
p27
tp28
Rp29
F1294.9377510547638
I500
S'sampler'
p30
I100
tp31
a((dp32
I2316
F0.19200000000000014
sI2317
F0.0
sI2318
F0.0
sI340
F0.0
sI342
F1.0000000000000007
sI344
F0.0
sI345
F1.0000000000000007
sI346
F0.0
sI348
F0.0
sI349
F0.8080000000000006
sg2
(g6
S'\xa4E\x87\x80a\x17\xe3?'
p33
tp34
Rp35
F1854.309357881546
I500
S'sampler'
p36
I125
tp37
a((dp38
I2316
F0.18600000000000014
sI2317
F0.0
sI2318
F0.0
sI340
F0.0
sI342
F1.0000000000000007
sI344
F0.0
sI345
F1.0000000000000007
sI346
F0.0
sI348
F0.0
sI349
F0.8140000000000006
sg2
(g6
S'\x15\x10|F%\x16\xe3?'
p39
tp40
Rp41
F2034.2839000225067
I500
S'sampler'
p42
I150
tp43
a((dp44
I2316
F0.19200000000000014
sI2317
F0.0
sI2318
F0.0
sI340
F0.0
sI342
F1.0000000000000007
sI344
F0.0
sI345
F1.0000000000000007
sI346
F0.0
sI348
F0.0
sI349
F0.8080000000000006
sg2
(g6
S'\xa4E\x87\x80a\x17\xe3?'
p45
tp46
Rp47
F2443.058683872223
I500
S'sampler'
p48
I175
tp49
a((dp50
I2316
F0.19000000000000014
sI2317
F0.0
sI2318
F0.0
sI340
F0.0
sI342
F1.0000000000000007
sI344
F0.0
sI345
F1.0000000000000007
sI346
F0.0
sI348
F0.0
sI349
F0.8100000000000006
sg2
(g6
S't\xde\xd8\x17\xf8\x16\xe3?'
p51
tp52
Rp53
F2624.2774889469147
I500
S'sampler'
p54
I200
tp55
a((dp56
I2316
F0.18600000000000014
sI2317
F0.0
sI2318
F0.0
sI340
F0.0
sI342
F1.0000000000000007
sI344
F0.0
sI345
F1.0000000000000007
sI346
F0.0
sI348
F0.0
sI349
F0.8140000000000006
sg2
(g6
S'\x15\x10|F%\x16\xe3?'
p57
tp58
Rp59
F3215.647228002548
I500
S'sampler'
p60
I225
tp61
a((dp62
I2316
F0.19200000000000014
sI2317
F0.0
sI2318
F0.0
sI340
F0.0
sI342
F1.0000000000000007
sI344
F0.0
sI345
F1.0000000000000007
sI346
F0.0
sI348
F0.0
sI349
F0.8080000000000006
sg2
(g6
S'\xa4E\x87\x80a\x17\xe3?'
p63
tp64
Rp65
F3376.951057910919
I500
S'sampler'
p66
I250
tp67
a((dp68
I2316
F0.19200000000000014
sI2317
F0.0
sI2318
F0.0
sI340
F0.0
sI342
F1.0000000000000007
sI344
F0.0
sI345
F1.0000000000000007
sI346
F0.0
sI348
F0.0
sI349
F0.8080000000000006
sg2
(g6
S'\xa4E\x87\x80a\x17\xe3?'
p69
tp70
Rp71
F3828.942300796509
I500
S'sampler'
p72
I275
tp73
a((dp74
I2316
F0.18000000000000013
sI2317
F0.0
sI2318
F0.0
sI340
F0.0
sI342
F1.0000000000000007
sI344
F0.0
sI345
F1.0000000000000007
sI346
F0.0
sI348
F0.0
sI349
F0.8200000000000006
sg2
(g6
S'\x86\xdap\x0c\xe9\x14\xe3?'
p75
tp76
Rp77
F3984.6721770763397
I500
S'sampler'
p78
I625
tp79
a((dp80
I2316
F0.19800000000000015
sI2317
F0.0
sI2318
F0.0
sI340
F0.0
sI342
F1.0000000000000007
sI344
F0.0
sI345
F1.0000000000000007
sI346
F0.0
sI348
F0.0
sI349
F0.8020000000000006
sg2
(g6
S'2{\x92\xba\x9d\x18\xe3?'
p81
tp82
Rp83
F3995.250736951828
I500
S'sampler'
p84
I300
tp85
a.