(lp0
((dp1
I2316
F0.21333333333333307
sI2317
F0.0
sI2318
F0.0
sI340
F0.0
sI342
F0.9999999999999961
sI344
F0.0
sI345
F0.9999999999999961
sI346
F0.0
sI348
F0.0
sI349
F0.786666666666665
scnumpy.core.multiarray
scalar
p2
(cnumpy
dtype
p3
(S'f8'
p4
I0
I1
tp5
Rp6
(I3
S'<'
p7
NNNI-1
I-1
I0
tp8
bS'\x9a\xe7 \xdd\xc5\x1b\xe3?'
p9
tp10
Rp11
F208.26995301246643
I300
S'sampler'
p12
I25
tp13
a((dp14
I2316
F0.19666666666666643
sI2317
F0.0
sI2318
F0.0
sI340
F0.0
sI342
F0.9999999999999961
sI344
F0.0
sI345
F0.9999999999999961
sI346
F0.0
sI348
F0.0
sI349
F0.8033333333333315
sg2
(g6
S'\x0e\xe1\xc8tW\x18\xe3?'
p15
tp16
Rp17
F405.6987898349762
I300
S'sampler'
p18
I50
tp19
a((dp20
I2316
F0.19666666666666643
sI2317
F0.0
sI2318
F0.0
sI340
F0.0
sI342
F0.9999999999999961
sI344
F0.0
sI345
F0.9999999999999961
sI346
F0.0
sI348
F0.0
sI349
F0.8033333333333315
sg2
(g6
S'\x0e\xe1\xc8tW\x18\xe3?'
p21
tp22
Rp23
F498.33559799194336
I300
S'sampler'
p24
I75
tp25
a((dp26
I2316
F0.19666666666666643
sI2317
F0.0
sI2318
F0.0
sI340
F0.0
sI342
F0.9999999999999961
sI344
F0.0
sI345
F0.9999999999999961
sI346
F0.0
sI348
F0.0
sI349
F0.8033333333333315
sg2
(g6
S'\x0e\xe1\xc8tW\x18\xe3?'
p27
tp28
Rp29
F889.9753460884094
I300
S'sampler'
p30
I100
tp31
a((dp32
I2316
F0.18999999999999978
sI2317
F0.0
sI2318
F0.0
sI340
F0.0
sI342
F0.9999999999999961
sI344
F0.0
sI345
F0.9999999999999961
sI346
F0.0
sI348
F0.0
sI349
F0.809999999999998
sg2
(g6
S'o\xde\xd8\x17\xf8\x16\xe3?'
p33
tp34
Rp35
F986.1250240802765
I300
S'sampler'
p36
I125
tp37
a((dp38
I2316
F0.18999999999999978
sI2317
F0.0
sI2318
F0.0
sI340
F0.0
sI342
F0.9999999999999961
sI344
F0.0
sI345
F0.9999999999999961
sI346
F0.0
sI348
F0.0
sI349
F0.809999999999998
sg2
(g6
S'o\xde\xd8\x17\xf8\x16\xe3?'
p39
tp40
Rp41
F1341.8623430728912
I300
S'sampler'
p42
I150
tp43
a((dp44
I2316
F0.18333333333333313
sI2317
F0.0
sI2318
F0.0
sI340
F0.0
sI342
F0.9999999999999961
sI344
F0.0
sI345
F0.9999999999999961
sI346
F0.0
sI348
F0.0
sI349
F0.8166666666666647
sg2
(g6
S'\xd1\xdb\xe8\xba\x98\x15\xe3?'
p45
tp46
Rp47
F1431.5187339782715
I300
S'sampler'
p48
I175
tp49
a((dp50
I2316
F0.19666666666666643
sI2317
F0.0
sI2318
F0.0
sI340
F0.0
sI342
F0.9999999999999961
sI344
F0.0
sI345
F0.9999999999999961
sI346
F0.0
sI348
F0.0
sI349
F0.8033333333333315
sg2
(g6
S'\x0e\xe1\xc8tW\x18\xe3?'
p51
tp52
Rp53
F1796.8646411895752
I300
S'sampler'
p54
I200
tp55
a((dp56
I2316
F0.18999999999999978
sI2317
F0.0
sI2318
F0.0
sI340
F0.0
sI342
F0.9999999999999961
sI344
F0.0
sI345
F0.9999999999999961
sI346
F0.0
sI348
F0.0
sI349
F0.809999999999998
sg2
(g6
S'o\xde\xd8\x17\xf8\x16\xe3?'
p57
tp58
Rp59
F1887.6782319545746
I300
S'sampler'
p60
I225
tp61
a((dp62
I2316
F0.1799999999999998
sI2317
F0.0
sI2318
F0.0
sI340
F0.0
sI342
F0.9999999999999961
sI344
F0.0
sI345
F0.9999999999999961
sI346
F0.0
sI348
F0.0
sI349
F0.819999999999998
sg2
(g6
S'\x82\xdap\x0c\xe9\x14\xe3?'
p63
tp64
Rp65
F2016.296511888504
I300
S'sampler'
p66
I250
tp67
a((dp68
I2316
F0.18666666666666645
sI2317
F0.0
sI2318
F0.0
sI340
F0.0
sI342
F0.9999999999999961
sI344
F0.0
sI345
F0.9999999999999961
sI346
F0.0
sI348
F0.0
sI349
F0.8133333333333314
sg2
(g6
S' \xdd`iH\x16\xe3?'
p69
tp70
Rp71
F2104.119868040085
I300
S'sampler'
p72
I275
tp73
a((dp74
I2316
F0.18999999999999978
sI2317
F0.0
sI2318
F0.0
sI340
F0.0
sI342
F0.9999999999999961
sI344
F0.0
sI345
F0.9999999999999961
sI346
F0.0
sI348
F0.0
sI349
F0.809999999999998
sg2
(g6
S'o\xde\xd8\x17\xf8\x16\xe3?'
p75
tp76
Rp77
F2399.2430980205536
I300
S'sampler'
p78
I300
tp79
a((dp80
I2316
F0.18666666666666645
sI2317
F0.0
sI2318
F0.0
sI340
F0.0
sI342
F0.9999999999999961
sI344
F0.0
sI345
F0.9999999999999961
sI346
F0.0
sI348
F0.0
sI349
F0.8133333333333314
sg2
(g6
S' \xdd`iH\x16\xe3?'
p81
tp82
Rp83
F2501.5910861492157
I300
S'sampler'
p84
I325
tp85
a((dp86
I2316
F0.1933333333333331
sI2317
F0.0
sI2318
F0.0
sI340
F0.0
sI342
F0.9999999999999961
sI344
F0.0
sI345
F0.9999999999999961
sI346
F0.0
sI348
F0.0
sI349
F0.8066666666666648
sg2
(g6
S'\xbe\xdfP\xc6\xa7\x17\xe3?'
p87
tp88
Rp89
F2827.3315439224243
I300
S'sampler'
p90
I350
tp91
a((dp92
I2316
F0.18333333333333313
sI2317
F0.0
sI2318
F0.0
sI340
F0.0
sI342
F0.9999999999999961
sI344
F0.0
sI345
F0.9999999999999961
sI346
F0.0
sI348
F0.0
sI349
F0.8166666666666647
sg2
(g6
S'\xd1\xdb\xe8\xba\x98\x15\xe3?'
p93
tp94
Rp95
F2900.902629852295
I300
S'sampler'
p96
I375
tp97
a((dp98
I2316
F0.18999999999999978
sI2317
F0.0
sI2318
F0.0
sI340
F0.0
sI342
F0.9999999999999961
sI344
F0.0
sI345
F0.9999999999999961
sI346
F0.0
sI348
F0.0
sI349
F0.809999999999998
sg2
(g6
S'o\xde\xd8\x17\xf8\x16\xe3?'
p99
tp100
Rp101
F3409.7223410606384
I300
S'sampler'
p102
I400
tp103
a((dp104
I2316
F0.18333333333333313
sI2317
F0.0
sI2318
F0.0
sI340
F0.0
sI342
F0.9999999999999961
sI344
F0.0
sI345
F0.9999999999999961
sI346
F0.0
sI348
F0.0
sI349
F0.8166666666666647
sg2
(g6
S'\xd1\xdb\xe8\xba\x98\x15\xe3?'
p105
tp106
Rp107
F3506.5003061294556
I300
S'sampler'
p108
I425
tp109
a((dp110
I2316
F0.18999999999999978
sI2317
F0.0
sI2318
F0.0
sI340
F0.0
sI342
F0.9999999999999961
sI344
F0.0
sI345
F0.9999999999999961
sI346
F0.0
sI348
F0.0
sI349
F0.809999999999998
sg2
(g6
S'o\xde\xd8\x17\xf8\x16\xe3?'
p111
tp112
Rp113
F3897.6926119327545
I300
S'sampler'
p114
I450
tp115
a((dp116
I2316
F0.1799999999999998
sI2317
F0.0
sI2318
F0.0
sI340
F0.0
sI342
F0.9999999999999961
sI344
F0.0
sI345
F0.9999999999999961
sI346
F0.0
sI348
F0.0
sI349
F0.819999999999998
sg2
(g6
S'\x82\xdap\x0c\xe9\x14\xe3?'
p117
tp118
Rp119
F3991.786460876465
I300
S'sampler'
p120
I475
tp121
a.