(lp0
((dp1
I2316
F0.20000000000000004
sI2317
F0.0
sI2318
F0.0
sI340
F0.0
sI342
F1.0000000000000007
sI344
F0.0
sI345
F1.0000000000000007
sI346
F0.0
sI348
F0.0
sI349
F0.8000000000000005
scnumpy.core.multiarray
scalar
p2
(cnumpy
dtype
p3
(S'f8'
p4
I0
I1
tp5
Rp6
(I3
S'<'
p7
NNNI-1
I-1
I0
tp8
bS'b\xe2@#\x07\x19\xe3?'
p9
tp10
Rp11
F73.11144399642944
I100
S'sampler'
p12
I25
tp13
a((dp14
I2316
F0.19000000000000003
sI2317
F0.0
sI2318
F0.0
sI340
F0.0
sI342
F1.0000000000000007
sI344
F0.0
sI345
F1.0000000000000007
sI346
F0.0
sI348
F0.0
sI349
F0.8100000000000005
sg2
(g6
S't\xde\xd8\x17\xf8\x16\xe3?'
p15
tp16
Rp17
F109.42557001113892
I100
S'sampler'
p18
I50
tp19
a((dp20
I2316
F0.20000000000000004
sI2317
F0.0
sI2318
F0.0
sI340
F0.0
sI342
F1.0000000000000007
sI344
F0.0
sI345
F1.0000000000000007
sI346
F0.0
sI348
F0.0
sI349
F0.8000000000000005
sg2
(g6
S'b\xe2@#\x07\x19\xe3?'
p21
tp22
Rp23
F201.9871950149536
I100
S'sampler'
p24
I75
tp25
a((dp26
I2316
F0.18000000000000002
sI2317
F0.0
sI2318
F0.0
sI340
F0.0
sI342
F1.0000000000000007
sI344
F0.0
sI345
F1.0000000000000007
sI346
F0.0
sI348
F0.0
sI349
F0.8200000000000005
sg2
(g6
S'\x87\xdap\x0c\xe9\x14\xe3?'
p27
tp28
Rp29
F239.90614700317383
I100
S'sampler'
p30
I100
tp31
a((dp32
I2316
F0.16
sI2317
F0.0
sI2318
F0.0
sI340
F0.0
sI342
F1.0000000000000007
sI344
F0.0
sI345
F1.0000000000000007
sI346
F0.0
sI348
F0.0
sI349
F0.8400000000000005
sg2
(g6
S'\xab\xd2\xa0\xf5\xca\x10\xe3?'
p33
tp34
Rp35
F338.78555703163147
I100
S'sampler'
p36
I125
tp37
a((dp38
I2316
F0.20000000000000004
sI2317
F0.0
sI2318
F0.0
sI340
F0.0
sI342
F1.0000000000000007
sI344
F0.0
sI345
F1.0000000000000007
sI346
F0.0
sI348
F0.0
sI349
F0.8000000000000005
sg2
(g6
S'b\xe2@#\x07\x19\xe3?'
p39
tp40
Rp41
F372.29499912261963
I100
S'sampler'
p42
I150
tp43
a((dp44
I2316
F0.21000000000000005
sI2317
F0.0
sI2318
F0.0
sI340
F0.0
sI342
F1.0000000000000007
sI344
F0.0
sI345
F1.0000000000000007
sI346
F0.0
sI348
F0.0
sI349
F0.7900000000000005
sg2
(g6
S'P\xe6\xa8.\x16\x1b\xe3?'
p45
tp46
Rp47
F500.6625828742981
I100
S'sampler'
p48
I175
tp49
a((dp50
I2316
F0.19000000000000003
sI2317
F0.0
sI2318
F0.0
sI340
F0.0
sI342
F1.0000000000000007
sI344
F0.0
sI345
F1.0000000000000007
sI346
F0.0
sI348
F0.0
sI349
F0.8100000000000005
sg2
(g6
S't\xde\xd8\x17\xf8\x16\xe3?'
p51
tp52
Rp53
F530.5905590057373
I100
S'sampler'
p54
I200
tp55
a((dp56
I2316
F0.20000000000000004
sI2317
F0.0
sI2318
F0.0
sI340
F0.0
sI342
F1.0000000000000007
sI344
F0.0
sI345
F1.0000000000000007
sI346
F0.0
sI348
F0.0
sI349
F0.8000000000000005
sg2
(g6
S'b\xe2@#\x07\x19\xe3?'
p57
tp58
Rp59
F587.8120760917664
I100
S'sampler'
p60
I225
tp61
a((dp62
I2316
F0.19000000000000003
sI2317
F0.0
sI2318
F0.0
sI340
F0.0
sI342
F1.0000000000000007
sI344
F0.0
sI345
F1.0000000000000007
sI346
F0.0
sI348
F0.0
sI349
F0.8100000000000005
sg2
(g6
S't\xde\xd8\x17\xf8\x16\xe3?'
p63
tp64
Rp65
F618.8542861938477
I100
S'sampler'
p66
I250
tp67
a((dp68
I2316
F0.17
sI2317
F0.0
sI2318
F0.0
sI340
F0.0
sI342
F1.0000000000000007
sI344
F0.0
sI345
F1.0000000000000007
sI346
F0.0
sI348
F0.0
sI349
F0.8300000000000005
sg2
(g6
S'\x9a\xd6\x08\x01\xda\x12\xe3?'
p69
tp70
Rp71
F754.7380349636078
I100
S'sampler'
p72
I275
tp73
a((dp74
I2316
F0.19000000000000003
sI2317
F0.0
sI2318
F0.0
sI340
F0.0
sI342
F1.0000000000000007
sI344
F0.0
sI345
F1.0000000000000007
sI346
F0.0
sI348
F0.0
sI349
F0.8100000000000005
sg2
(g6
S't\xde\xd8\x17\xf8\x16\xe3?'
p75
tp76
Rp77
F785.7978360652924
I100
S'sampler'
p78
I300
tp79
a((dp80
I2316
F0.19000000000000003
sI2317
F0.0
sI2318
F0.0
sI340
F0.0
sI342
F1.0000000000000007
sI344
F0.0
sI345
F1.0000000000000007
sI346
F0.0
sI348
F0.0
sI349
F0.8100000000000005
sg2
(g6
S't\xde\xd8\x17\xf8\x16\xe3?'
p81
tp82
Rp83
F841.3779480457306
I100
S'sampler'
p84
I325
tp85
a((dp86
I2316
F0.19000000000000003
sI2317
F0.0
sI2318
F0.0
sI340
F0.0
sI342
F1.0000000000000007
sI344
F0.0
sI345
F1.0000000000000007
sI346
F0.0
sI348
F0.0
sI349
F0.8100000000000005
sg2
(g6
S't\xde\xd8\x17\xf8\x16\xe3?'
p87
tp88
Rp89
F872.844003200531
I100
S'sampler'
p90
I350
tp91
a((dp92
I2316
F0.17
sI2317
F0.0
sI2318
F0.0
sI340
F0.0
sI342
F1.0000000000000007
sI344
F0.0
sI345
F1.0000000000000007
sI346
F0.0
sI348
F0.0
sI349
F0.8300000000000005
sg2
(g6
S'\x9a\xd6\x08\x01\xda\x12\xe3?'
p93
tp94
Rp95
F902.7770938873291
I100
S'sampler'
p96
I625
tp97
a((dp98
I2316
F0.18000000000000002
sI2317
F0.0
sI2318
F0.0
sI340
F0.0
sI342
F1.0000000000000007
sI344
F0.0
sI345
F1.0000000000000007
sI346
F0.0
sI348
F0.0
sI349
F0.8200000000000005
sg2
(g6
S'\x87\xdap\x0c\xe9\x14\xe3?'
p99
tp100
Rp101
F964.4459011554718
I100
S'sampler'
p102
I375
tp103
a((dp104
I2316
F0.17
sI2317
F0.0
sI2318
F0.0
sI340
F0.0
sI342
F1.0000000000000007
sI344
F0.0
sI345
F1.0000000000000007
sI346
F0.0
sI348
F0.0
sI349
F0.8300000000000005
sg2
(g6
S'\x9a\xd6\x08\x01\xda\x12\xe3?'
p105
tp106
Rp107
F992.1284408569336
I100
S'sampler'
p108
I400
tp109
a((dp110
I2316
F0.18000000000000002
sI2317
F0.0
sI2318
F0.0
sI340
F0.0
sI342
F1.0000000000000007
sI344
F0.0
sI345
F1.0000000000000007
sI346
F0.0
sI348
F0.0
sI349
F0.8200000000000005
sg2
(g6
S'\x87\xdap\x0c\xe9\x14\xe3?'
p111
tp112
Rp113
F1179.5577178001404
I100
S'sampler'
p114
I425
tp115
a((dp116
I2316
F0.19000000000000003
sI2317
F0.0
sI2318
F0.0
sI340
F0.0
sI342
F1.0000000000000007
sI344
F0.0
sI345
F1.0000000000000007
sI346
F0.0
sI348
F0.0
sI349
F0.8100000000000005
sg2
(g6
S't\xde\xd8\x17\xf8\x16\xe3?'
p117
tp118
Rp119
F1214.7912919521332
I100
S'sampler'
p120
I450
tp121
a((dp122
I2316
F0.19000000000000003
sI2317
F0.0
sI2318
F0.0
sI340
F0.0
sI342
F1.0000000000000007
sI344
F0.0
sI345
F1.0000000000000007
sI346
F0.0
sI348
F0.0
sI349
F0.8100000000000005
sg2
(g6
S't\xde\xd8\x17\xf8\x16\xe3?'
p123
tp124
Rp125
F1338.8145809173584
I100
S'sampler'
p126
I475
tp127
a((dp128
I2316
F0.18000000000000002
sI2317
F0.0
sI2318
F0.0
sI340
F0.0
sI342
F1.0000000000000007
sI344
F0.0
sI345
F1.0000000000000007
sI346
F0.0
sI348
F0.0
sI349
F0.8200000000000005
sg2
(g6
S'\x87\xdap\x0c\xe9\x14\xe3?'
p129
tp130
Rp131
F1367.8754818439484
I100
S'sampler'
p132
I500
tp133
a((dp134
I2316
F0.17
sI2317
F0.0
sI2318
F0.0
sI340
F0.0
sI342
F1.0000000000000007
sI344
F0.0
sI345
F1.0000000000000007
sI346
F0.0
sI348
F0.0
sI349
F0.8300000000000005
sg2
(g6
S'\x9a\xd6\x08\x01\xda\x12\xe3?'
p135
tp136
Rp137
F1372.253377199173
I100
S'sampler'
p138
I525
tp139
a((dp140
I2316
F0.17
sI2317
F0.0
sI2318
F0.0
sI340
F0.0
sI342
F1.0000000000000007
sI344
F0.0
sI345
F1.0000000000000007
sI346
F0.0
sI348
F0.0
sI349
F0.8300000000000005
sg2
(g6
S'\x9a\xd6\x08\x01\xda\x12\xe3?'
p141
tp142
Rp143
F1401.3324179649353
I100
S'sampler'
p144
I550
tp145
a((dp146
I2316
F0.17
sI2317
F0.0
sI2318
F0.0
sI340
F0.0
sI342
F1.0000000000000007
sI344
F0.0
sI345
F1.0000000000000007
sI346
F0.0
sI348
F0.0
sI349
F0.8300000000000005
sg2
(g6
S'\x9a\xd6\x08\x01\xda\x12\xe3?'
p147
tp148
Rp149
F1496.1961741447449
I100
S'sampler'
p150
I575
tp151
a((dp152
I2316
F0.18000000000000002
sI2317
F0.0
sI2318
F0.0
sI340
F0.0
sI342
F1.0000000000000007
sI344
F0.0
sI345
F1.0000000000000007
sI346
F0.0
sI348
F0.0
sI349
F0.8200000000000005
sg2
(g6
S'\x87\xdap\x0c\xe9\x14\xe3?'
p153
tp154
Rp155
F1525.2133328914642
I100
S'sampler'
p156
I600
tp157
a.