(dp0
I1
F0.12065656851078921
sI2
F0.5813044568657588
sI3
F0.08023707495443066
sI4
F0.9264098745588347
sI5
F0.5573376672106485
sI6
F0.32685487973004046
sI7
F0.7289288239164253
sI8
F0.45583793670818695
sI9
F0.006896858227348979
sI10
F0.4220900873974841
s..