(lp0
(I0
F0.035761117935180664
(dp1
I1
F0.01
sI2
F0.0
sI3
F0.0
sI4
F0.01
sI5
F0.0
sI6
F0.0
sI7
F0.0
sI8
F0.0
sI9
F0.0
sI10
F0.01
scnumpy.core.multiarray
scalar
p2
(cnumpy
dtype
p3
(S'f8'
p4
I0
I1
tp5
Rp6
(I3
S'<'
p7
NNNI-1
I-1
I0
tp8
bS'\xa9\t\xdf\xefv\x8f\x81?'
p9
tp10
Rp11
S'polynomial'
p12
I3
F0.5
tp13
a(I1
F0.06941699981689453
(dp14
I1
F0.02
sI2
F0.0
sI3
F0.0
sI4
F0.02
sI5
F0.0
sI6
F0.0
sI7
F0.0
sI8
F0.0
sI9
F0.0
sI10
F0.02
sg2
(g6
S'\xef\x0b`\x8f\xdd{\x91?'
p15
tp16
Rp17
g12
I3
F0.5
tp18
a(I2
F0.10298609733581543
(dp19
I1
F0.03
sI2
F0.0
sI3
F0.0
sI4
F0.03
sI5
F0.0
sI6
F0.0
sI7
F0.0
sI8
F0.0
sI9
F0.0
sI10
F0.03
sg2
(g6
S'\xdb\xf9\x91\xf4\x8f\x1c\x9a?'
p20
tp21
Rp22
g12
I3
F0.5
tp23
a(I3
F0.13645505905151367
(dp24
I1
F0.04
sI2
F0.0
sI3
F0.0
sI4
F0.04
sI5
F0.0
sI6
F0.0
sI7
F0.0
sI8
F0.0
sI9
F0.0
sI10
F0.04
sg2
(g6
S'\x91\xd9\xe2*\xfeT\xa1?'
p25
tp26
Rp27
g12
I3
F0.5
tp28
a(I4
F0.1702561378479004
(dp29
I1
F0.05
sI2
F0.0
sI3
F0.0
sI4
F0.05
sI5
F0.0
sI6
F0.0
sI7
F0.0
sI8
F0.0
sI9
F0.0
sI10
F0.05
sg2
(g6
S')\xce\x9d0&\x92\xa5?'
p30
tp31
Rp32
g12
I3
F0.5
tp33
a(I5
F0.20398211479187012
(dp34
I1
F0.060000000000000005
sI2
F0.0
sI3
F0.0
sI4
F0.060000000000000005
sI5
F0.0
sI6
F0.0
sI7
F0.0
sI8
F0.0
sI9
F0.0
sI10
F0.060000000000000005
sg2
(g6
S'\xf5\x0c\x9a\xe2\xd4\xc5\xa9?'
p35
tp36
Rp37
g12
I3
F0.5
tp38
a(I6
F0.2376420497894287
(dp39
I1
F0.07
sI2
F0.0
sI3
F0.0
sI4
F0.07
sI5
F0.0
sI6
F0.0
sI7
F0.0
sI8
F0.0
sI9
F0.0
sI10
F0.07
sg2
(g6
S'<\xc8\xf7\x17\x1f\xf0\xad?'
p40
tp41
Rp42
g12
I3
F0.5
tp43
a(I7
F0.2720150947570801
(dp44
I1
F0.08
sI2
F0.0
sI3
F0.0
sI4
F0.08
sI5
F0.0
sI6
F0.0
sI7
F0.0
sI8
F0.0
sI9
F0.0
sI10
F0.08
sg2
(g6
S'!\x99\xeb\xd3\x8c\x08\xb1?'
p45
tp46
Rp47
g12
I3
F0.5
tp48
a(I8
F0.30658507347106934
(dp49
I1
F0.09
sI2
F0.0
sI3
F0.0
sI4
F0.09
sI5
F0.0
sI6
F0.0
sI7
F0.0
sI8
F0.0
sI9
F0.0
sI10
F0.09
sg2
(g6
S'\xa4>\xac\xb4l\x14\xb3?'
p50
tp51
Rp52
g12
I3
F0.5
tp53
a(I9
F0.34101200103759766
(dp54
I1
F0.09999999999999999
sI2
F0.0
sI3
F0.0
sI4
F0.09999999999999999
sI5
F0.0
sI6
F0.0
sI7
F0.0
sI8
F0.0
sI9
F0.0
sI10
F0.09999999999999999
sg2
(g6
S'\xcb\xed\xcd\x99\xb9\x1b\xb5?'
p55
tp56
Rp57
g12
I3
F0.5
tp58
a(I10
F0.3754751682281494
(dp59
I1
F0.10999999999999999
sI2
F0.0
sI3
F0.0
sI4
F0.10999999999999999
sI5
F0.0
sI6
F0.0
sI7
F0.0
sI8
F0.0
sI9
F0.0
sI10
F0.10999999999999999
sg2
(g6
S'\xb7\xbf\xe0\xee}\x1e\xb7?'
p60
tp61
Rp62
g12
I3
F0.5
tp63
a(I11
F0.40977907180786133
(dp64
I1
F0.11999999999999998
sI2
F0.0
sI3
F0.0
sI4
F0.11999999999999998
sI5
F0.0
sI6
F0.0
sI7
F0.0
sI8
F0.0
sI9
F0.0
sI10
F0.11999999999999998
sg2
(g6
S'\x8a\xcdt\x1f\xc4\x1c\xb9?'
p65
tp66
Rp67
g12
I3
F0.5
tp68
a(I12
F0.44431400299072266
(dp69
I1
F0.12999999999999998
sI2
F0.0
sI3
F0.0
sI4
F0.12999999999999998
sI5
F0.0
sI6
F0.0
sI7
F0.0
sI8
F0.0
sI9
F0.0
sI10
F0.12999999999999998
sg2
(g6
S'g0\x1a\x97\x96\x16\xbb?'
p70
tp71
Rp72
g12
I3
F0.5
tp73
a(I13
F0.4786059856414795
(dp74
I1
F0.13999999999999999
sI2
F0.0
sI3
F0.0
sI4
F0.13999999999999999
sI5
F0.0
sI6
F0.0
sI7
F0.0
sI8
F0.0
sI9
F0.0
sI10
F0.13999999999999999
sg2
(g6
S'o\x01a\xc1\xff\x0b\xbd?'
p75
tp76
Rp77
g12
I3
F0.5
tp78
a(I14
F0.5130491256713867
(dp79
I1
F0.15
sI2
F0.0
sI3
F0.0
sI4
F0.15
sI5
F0.0
sI6
F0.0
sI7
F0.0
sI8
F0.0
sI9
F0.0
sI10
F0.15
sg2
(g6
S'\xc6Y\xd9\t\n\xfd\xbe?'
p80
tp81
Rp82
g12
I3
F0.5
tp83
a(I15
F0.5473430156707764
(dp84
I1
F0.16
sI2
F0.0
sI3
F0.0
sI4
F0.16
sI5
F0.0
sI6
F0.0
sI7
F0.0
sI8
F0.0
sI9
F0.0
sI10
F0.16
sg2
(g6
S'E\xa9\t\xee\xdft\xc0?'
p85
tp86
Rp87
g12
I3
F0.5
tp88
a(I16
F0.5817670822143555
(dp89
I1
F0.17
sI2
F0.0
sI3
F0.0
sI4
F0.17
sI5
F0.0
sI6
F0.0
sI7
F0.0
sI8
F0.0
sI9
F0.0
sI10
F0.17
sg2
(g6
S'q\x82\xcf\xd1\x15i\xc1?'
p90
tp91
Rp92
g12
I3
F0.5
tp93
a(I17
F0.6155500411987305
(dp94
I1
F0.18000000000000002
sI2
F0.0
sI3
F0.0
sI4
F0.18000000000000002
sI5
F0.0
sI6
F0.0
sI7
F0.0
sI8
F0.0
sI9
F0.0
sI10
F0.18000000000000002
sg2
(g6
S'\xf6D\x06\xe6+[\xc2?'
p95
tp96
Rp97
g12
I3
F0.5
tp98
a(I18
F0.6491291522979736
(dp99
I1
F0.19000000000000003
sI2
F0.0
sI3
F0.0
sI4
F0.19000000000000003
sI5
F0.0
sI6
F0.0
sI7
F0.0
sI8
F0.0
sI9
F0.0
sI10
F0.19000000000000003
sg2
(g6
S"g\xfdu`'K\xc3?"
p100
tp101
Rp102
g12
I3
F0.5
tp103
a(I19
F0.6832990646362305
(dp104
I1
F0.20000000000000004
sI2
F0.0
sI3
F0.0
sI4
F0.20000000000000004
sI5
F0.0
sI6
F0.0
sI7
F0.0
sI8
F0.0
sI9
F0.0
sI10
F0.20000000000000004
sg2
(g6
S'Q\xb8\xe6v\r9\xc4?'
p105
tp106
Rp107
g12
I3
F0.5
tp108
a(I20
F0.7177481651306152
(dp109
I1
F0.21000000000000005
sI2
F0.0
sI3
F0.0
sI4
F0.21000000000000005
sI5
F0.0
sI6
F0.0
sI7
F0.0
sI8
F0.0
sI9
F0.0
sI10
F0.21000000000000005
sg2
(g6
S'J\x82 _\xe3$\xc5?'
p110
tp111
Rp112
g12
I3
F0.5
tp113
a(I21
F0.7519669532775879
(dp114
I1
F0.22000000000000006
sI2
F0.0
sI3
F0.0
sI4
F0.22000000000000006
sI5
F0.0
sI6
F0.0
sI7
F0.0
sI8
F0.0
sI9
F0.0
sI10
F0.22000000000000006
sg2
(g6
S'\xe0g\xebN\xae\x0e\xc6?'
p115
tp116
Rp117
g12
I3
F0.5
tp118
a(I22
F0.7862889766693115
(dp119
I1
F0.23000000000000007
sI2
F0.0
sI3
F0.0
sI4
F0.23000000000000007
sI5
F0.0
sI6
F0.0
sI7
F0.0
sI8
F0.0
sI9
F0.0
sI10
F0.23000000000000007
sg2
(g6
S'\xa6u\x0f|s\xf6\xc6?'
p120
tp121
Rp122
g12
I3
F0.5
tp123
a(I23
F0.8205890655517578
(dp124
I1
F0.24000000000000007
sI2
F0.0
sI3
F0.0
sI4
F0.24000000000000007
sI5
F0.0
sI6
F0.0
sI7
F0.0
sI8
F0.0
sI9
F0.0
sI10
F0.24000000000000007
sg2
(g6
S'*\xb8T\x1c8\xdc\xc7?'
p125
tp126
Rp127
g12
I3
F0.5
tp128
a(I24
F0.8541650772094727
(dp129
I1
F0.25000000000000006
sI2
F0.0
sI3
F0.0
sI4
F0.25000000000000006
sI5
F0.0
sI6
F0.0
sI7
F0.0
sI8
F0.0
sI9
F0.0
sI10
F0.25000000000000006
sg2
(g6
S'\x01<\x83e\x01\xc0\xc8?'
p130
tp131
Rp132
g12
I3
F0.5
tp133
a(I25
F0.88767409324646
(dp134
I1
F0.26000000000000006
sI2
F0.0
sI3
F0.0
sI4
F0.26000000000000006
sI5
F0.0
sI6
F0.0
sI7
F0.0
sI8
F0.0
sI9
F0.0
sI10
F0.26000000000000006
sg2
(g6
S'\xb8\rc\x8d\xd4\xa1\xc9?'
p135
tp136
Rp137
g12
I3
F0.5
tp138
a(I26
F0.9212110042572021
(dp139
I1
F0.2700000000000001
sI2
F0.0
sI3
F0.0
sI4
F0.2700000000000001
sI5
F0.0
sI6
F0.0
sI7
F0.0
sI8
F0.0
sI9
F0.0
sI10
F0.2700000000000001
sg2
(g6
S'\xe49\xbc\xc9\xb6\x81\xca?'
p140
tp141
Rp142
g12
I3
F0.5
tp143
a(I27
F0.9547011852264404
(dp144
I1
F0.2800000000000001
sI2
F0.0
sI3
F0.0
sI4
F0.2800000000000001
sI5
F0.0
sI6
F0.0
sI7
F0.0
sI8
F0.0
sI9
F0.0
sI10
F0.2800000000000001
sg2
(g6
S'\x12\xcdVP\xad_\xcb?'
p145
tp146
Rp147
g12
I3
F0.5
tp148
a(I28
F0.9882731437683105
(dp149
I1
F0.2900000000000001
sI2
F0.0
sI3
F0.0
sI4
F0.2900000000000001
sI5
F0.0
sI6
F0.0
sI7
F0.0
sI8
F0.0
sI9
F0.0
sI10
F0.2900000000000001
sg2
(g6
S'\xd6\xd3\xfaV\xbd;\xcc?'
p150
tp151
Rp152
g12
I3
F0.5
tp153
a(I29
F1.0218679904937744
(dp154
I1
F0.3000000000000001
sI2
F0.0
sI3
F0.0
sI4
F0.3000000000000001
sI5
F0.0
sI6
F0.0
sI7
F0.0
sI8
F0.0
sI9
F0.0
sI10
F0.3000000000000001
sg2
(g6
S'\xbeZp\x13\xec\x15\xcd?'
p155
tp156
Rp157
g12
I3
F0.5
tp158
a(I30
F1.0554730892181396
(dp159
I1
F0.3100000000000001
sI2
F0.0
sI3
F0.0
sI4
F0.3100000000000001
sI5
F0.0
sI6
F0.0
sI7
F0.0
sI8
F0.0
sI9
F0.0
sI10
F0.3100000000000001
sg2
(g6
S'^n\x7f\xbb>\xee\xcd?'
p160
tp161
Rp162
g12
I3
F0.5
tp163
a(I31
F1.0897800922393799
(dp164
I1
F0.3200000000000001
sI2
F0.0
sI3
F0.0
sI4
F0.3200000000000001
sI5
F0.0
sI6
F0.0
sI7
F0.0
sI8
F0.0
sI9
F0.0
sI10
F0.3200000000000001
sg2
(g6
S'F\x1b\xf0\x84\xba\xc4\xce?'
p165
tp166
Rp167
g12
I3
F0.5
tp168
a(I32
F1.1240429878234863
(dp169
I1
F0.3300000000000001
sI2
F0.0
sI3
F0.0
sI4
F0.3300000000000001
sI5
F0.0
sI6
F0.0
sI7
F0.0
sI8
F0.0
sI9
F0.0
sI10
F0.3300000000000001
sg2
(g6
S'\x07n\x8a\xa5d\x99\xcf?'
p170
tp171
Rp172
g12
I3
F0.5
tp173
a(I33
F1.1584620475769043
(dp174
I1
F0.34000000000000014
sI2
F0.0
sI3
F0.0
sI4
F0.34000000000000014
sI5
F0.0
sI6
F0.0
sI7
F0.0
sI8
F0.0
sI9
F0.0
sI10
F0.34000000000000014
sg2
(g6
S'\x999\x8b)!6\xd0?'
p175
tp176
Rp177
g12
I3
F0.5
tp178
a(I34
F1.1928839683532715
(dp179
I1
F0.35000000000000014
sI2
F0.0
sI3
F0.0
sI4
F0.35000000000000014
sI5
F0.0
sI6
F0.0
sI7
F0.0
sI8
F0.0
sI9
F0.0
sI10
F0.35000000000000014
sg2
(g6
S'\xad\x1b\xaea\xac\x9e\xd0?'
p180
tp181
Rp182
g12
I3
F0.5
tp183
a(I35
F1.2271411418914795
(dp184
I1
F0.36000000000000015
sI2
F0.0
sI3
F0.0
sI4
F0.36000000000000015
sI5
F0.0
sI6
F0.0
sI7
F0.0
sI8
F0.0
sI9
F0.0
sI10
F0.36000000000000015
sg2
(g6
S'\x86\xe3\x11\x96V\x06\xd1?'
p185
tp186
Rp187
g12
I3
F0.5
tp188
a(I36
F1.2614221572875977
(dp189
I1
F0.37000000000000016
sI2
F0.0
sI3
F0.0
sI4
F0.37000000000000016
sI5
F0.0
sI6
F0.0
sI7
F0.0
sI8
F0.0
sI9
F0.0
sI10
F0.37000000000000016
sg2
(g6
S'm\x97\x9aa"m\xd1?'
p190
tp191
Rp192
g12
I3
F0.5
tp193
a(I37
F1.2954661846160889
(dp194
I1
F0.38000000000000017
sI2
F0.0
sI3
F0.0
sI4
F0.38000000000000017
sI5
F0.0
sI6
F0.0
sI7
F0.0
sI8
F0.0
sI9
F0.0
sI10
F0.38000000000000017
sg2
(g6
S'\xac=,_\x12\xd3\xd1?'
p195
tp196
Rp197
g12
I3
F0.5
tp198
a(I38
F1.3292920589447021
(dp199
I1
F0.3900000000000002
sI2
F0.0
sI3
F0.0
sI4
F0.3900000000000002
sI5
F0.0
sI6
F0.0
sI7
F0.0
sI8
F0.0
sI9
F0.0
sI10
F0.3900000000000002
sg2
(g6
S'\x8a\xdc\xaa))8\xd2?'
p200
tp201
Rp202
g12
I3
F0.5
tp203
a(I39
F1.3627030849456787
(dp204
I1
F0.4000000000000002
sI2
F0.0
sI3
F0.0
sI4
F0.4000000000000002
sI5
F0.0
sI6
F0.0
sI7
F0.0
sI8
F0.0
sI9
F0.0
sI10
F0.4000000000000002
sg2
(g6
S'Qz\xfa[i\x9c\xd2?'
p205
tp206
Rp207
g12
I3
F0.5
tp208
a(I40
F1.397339105606079
(dp209
I1
F0.4100000000000002
sI2
F0.0
sI3
F0.0
sI4
F0.4100000000000002
sI5
F0.0
sI6
F0.0
sI7
F0.0
sI8
F0.0
sI9
F0.0
sI10
F0.4100000000000002
sg2
(g6
S'H\x1d\xff\x90\xd5\xff\xd2?'
p210
tp211
Rp212
g12
I3
F0.5
tp213
a(I41
F1.431279182434082
(dp214
I1
F0.4200000000000002
sI2
F0.0
sI3
F0.0
sI4
F0.4200000000000002
sI5
F0.0
sI6
F0.0
sI7
F0.0
sI8
F0.0
sI9
F0.0
sI10
F0.4200000000000002
sg2
(g6
S'\xb8\xcb\x9ccpb\xd3?'
p215
tp216
Rp217
g12
I3
F0.5
tp218
a(I42
F1.4648730754852295
(dp219
I1
F0.4300000000000002
sI2
F0.0
sI3
F0.0
sI4
F0.4300000000000002
sI5
F0.0
sI6
F0.0
sI7
F0.0
sI8
F0.0
sI9
F0.0
sI10
F0.4300000000000002
sg2
(g6
S'\xe8\x8b\xb7n<\xc4\xd3?'
p220
tp221
Rp222
g12
I3
F0.5
tp223
a(I43
F1.4984281063079834
(dp224
I1
F0.4400000000000002
sI2
F0.0
sI3
F0.0
sI4
F0.4400000000000002
sI5
F0.0
sI6
F0.0
sI7
F0.0
sI8
F0.0
sI9
F0.0
sI10
F0.4400000000000002
sg2
(g6
S'%d3M<%\xd4?'
p225
tp226
Rp227
g12
I3
F0.5
tp228
a(I44
F1.5321099758148193
(dp229
I1
F0.45000000000000023
sI2
F0.0
sI3
F0.0
sI4
F0.45000000000000023
sI5
F0.0
sI6
F0.0
sI7
F0.0
sI8
F0.0
sI9
F0.0
sI10
F0.45000000000000023
sg2
(g6
S'\xb4Z\xf4\x99r\x85\xd4?'
p230
tp231
Rp232
g12
I3
F0.5
tp233
a(I45
F1.5657579898834229
(dp234
I1
F0.46000000000000024
sI2
F0.0
sI3
F0.0
sI4
F0.46000000000000024
sI5
F0.0
sI6
F0.0
sI7
F0.0
sI8
F0.0
sI9
F0.0
sI10
F0.46000000000000024
sg2
(g6
S'\xdcu\xde\xef\xe1\xe4\xd4?'
p235
tp236
Rp237
g12
I3
F0.5
tp238
a(I46
F1.5998950004577637
(dp239
I1
F0.47000000000000025
sI2
F0.0
sI3
F0.0
sI4
F0.47000000000000025
sI5
F0.0
sI6
F0.0
sI7
F0.0
sI8
F0.0
sI9
F0.0
sI10
F0.47000000000000025
sg2
(g6
S'\xea\xbb\xd5\xe9\x8cC\xd5?'
p240
tp241
Rp242
g12
I3
F0.5
tp243
a(I47
F1.6342041492462158
(dp244
I1
F0.48000000000000026
sI2
F0.0
sI3
F0.0
sI4
F0.48000000000000026
sI5
F0.0
sI6
F0.0
sI7
F0.0
sI8
F0.0
sI9
F0.0
sI10
F0.48000000000000026
sg2
(g6
S'"3\xbe"v\xa1\xd5?'
p245
tp246
Rp247
g12
I3
F0.5
tp248
a(I48
F1.6681981086730957
(dp249
I1
F0.49000000000000027
sI2
F0.0
sI3
F0.0
sI4
F0.49000000000000027
sI5
F0.0
sI6
F0.0
sI7
F0.0
sI8
F0.0
sI9
F0.0
sI10
F0.49000000000000027
sg2
(g6
S'\xd0\xe1{5\xa0\xfe\xd5?'
p250
tp251
Rp252
g12
I3
F0.5
tp253
a(I49
F1.701780080795288
(dp254
I1
F0.5000000000000002
sI2
F0.0
sI3
F0.0
sI4
F0.5000000000000002
sI5
F0.0
sI6
F0.0
sI7
F0.0
sI8
F0.0
sI9
F0.0
sI10
F0.5000000000000002
sg2
(g6
S'8\xce\xf2\xbc\r[\xd6?'
p255
tp256
Rp257
g12
I3
F0.5
tp258
a(I50
F1.7356631755828857
(dp259
I1
F0.5100000000000002
sI2
F0.0
sI3
F0.0
sI4
F0.5100000000000002
sI5
F0.0
sI6
F0.0
sI7
F0.0
sI8
F0.0
sI9
F0.0
sI10
F0.5100000000000002
sg2
(g6
S'\xaa\xfe\x06T\xc1\xb6\xd6?'
p260
tp261
Rp262
g12
I3
F0.5
tp263
a(I51
F1.769284963607788
(dp264
I1
F0.5200000000000002
sI2
F0.0
sI3
F0.0
sI4
F0.5200000000000002
sI5
F0.0
sI6
F0.0
sI7
F0.0
sI8
F0.0
sI9
F0.0
sI10
F0.5200000000000002
sg2
(g6
S'hy\x9c\x95\xbd\x11\xd7?'
p265
tp266
Rp267
g12
I3
F0.5
tp268
a(I52
F1.8033411502838135
(dp269
I1
F0.5300000000000002
sI2
F0.0
sI3
F0.0
sI4
F0.5300000000000002
sI5
F0.0
sI6
F0.0
sI7
F0.0
sI8
F0.0
sI9
F0.0
sI10
F0.5300000000000002
sg2
(g6
S'\xbdD\x97\x1c\x05l\xd7?'
p270
tp271
Rp272
g12
I3
F0.5
tp273
a(I53
F1.8369460105895996
(dp274
I1
F0.5400000000000003
sI2
F0.0
sI3
F0.0
sI4
F0.5400000000000003
sI5
F0.0
sI6
F0.0
sI7
F0.0
sI8
F0.0
sI9
F0.0
sI10
F0.5400000000000003
sg2
(g6
S'\xf3f\xdb\x83\x9a\xc5\xd7?'
p275
tp276
Rp277
g12
I3
F0.5
tp278
a(I54
F1.8706371784210205
(dp279
I1
F0.5500000000000003
sI2
F0.0
sI3
F0.0
sI4
F0.5500000000000003
sI5
F0.0
sI6
F0.0
sI7
F0.0
sI8
F0.0
sI9
F0.0
sI10
F0.5500000000000003
sg2
(g6
S'M\xe6Lf\x80\x1e\xd8?'
p280
tp281
Rp282
g12
I3
F0.5
tp283
a(I55
F1.9047441482543945
(dp284
I1
F0.5600000000000003
sI2
F0.0
sI3
F0.0
sI4
F0.5600000000000003
sI5
F0.0
sI6
F0.0
sI7
F0.0
sI8
F0.0
sI9
F0.0
sI10
F0.5600000000000003
sg2
(g6
S'\x1a\xc9\xcf^\xb9v\xd8?'
p285
tp286
Rp287
g12
I3
F0.5
tp288
a(I56
F1.9391260147094727
(dp289
I1
F0.5700000000000003
sI2
F0.0
sI3
F0.0
sI4
F0.5700000000000003
sI5
F0.0
sI6
F0.0
sI7
F0.0
sI8
F0.0
sI9
F0.0
sI10
F0.5700000000000003
sg2
(g6
S'\xa0\x15H\x08H\xce\xd8?'
p290
tp291
Rp292
g12
I3
F0.5
tp293
a(I57
F1.9729681015014648
(dp294
I1
F0.5800000000000003
sI2
F0.0
sI3
F0.0
sI4
F0.5800000000000003
sI5
F0.0
sI6
F0.0
sI7
F0.0
sI8
F0.0
sI9
F0.0
sI10
F0.5800000000000003
sg2
(g6
S'&\xd2\x99\xfd.%\xd9?'
p295
tp296
Rp297
g12
I3
F0.5
tp298
a(I58
F2.0065841674804688
(dp299
I1
F0.5900000000000003
sI2
F0.0
sI3
F0.0
sI4
F0.5900000000000003
sI5
F0.0
sI6
F0.0
sI7
F0.0
sI8
F0.0
sI9
F0.0
sI10
F0.5900000000000003
sg2
(g6
S'\xf5\x04\xa9\xd9p{\xd9?'
p300
tp301
Rp302
g12
I3
F0.5
tp303
a(I59
F2.040335178375244
(dp304
I1
F0.6000000000000003
sI2
F0.0
sI3
F0.0
sI4
F0.6000000000000003
sI5
F0.0
sI6
F0.0
sI7
F0.0
sI8
F0.0
sI9
F0.0
sI10
F0.6000000000000003
sg2
(g6
S'X\xb4Y7\x10\xd1\xd9?'
p305
tp306
Rp307
g12
I3
F0.5
tp308
a(I60
F2.074907064437866
(dp309
I1
F0.6100000000000003
sI2
F0.0
sI3
F0.0
sI4
F0.6100000000000003
sI5
F0.0
sI6
F0.0
sI7
F0.0
sI8
F0.0
sI9
F0.0
sI10
F0.6100000000000003
sg2
(g6
S'\x94\xe6\x8f\xb1\x0f&\xda?'
p310
tp311
Rp312
g12
I3
F0.5
tp313
a(I61
F2.1092729568481445
(dp314
I1
F0.6200000000000003
sI2
F0.0
sI3
F0.0
sI4
F0.6200000000000003
sI5
F0.0
sI6
F0.0
sI7
F0.0
sI8
F0.0
sI9
F0.0
sI10
F0.6200000000000003
sg2
(g6
S'\xf4\xa1/\xe3qz\xda?'
p315
tp316
Rp317
g12
I3
F0.5
tp318
a(I62
F2.1437580585479736
(dp319
I1
F0.6300000000000003
sI2
F0.0
sI3
F0.0
sI4
F0.6300000000000003
sI5
F0.0
sI6
F0.0
sI7
F0.0
sI8
F0.0
sI9
F0.0
sI10
F0.6300000000000003
sg2
(g6
S'\xbf\xec\x1cg9\xce\xda?'
p320
tp321
Rp322
g12
I3
F0.5
tp323
a(I63
F2.1782829761505127
(dp324
I1
F0.6400000000000003
sI2
F0.0
sI3
F0.0
sI4
F0.6400000000000003
sI5
F0.0
sI6
F0.0
sI7
F0.0
sI8
F0.0
sI9
F0.0
sI10
F0.6400000000000003
sg2
(g6
S'?\xcd;\xd8h!\xdb?'
p325
tp326
Rp327
g12
I3
F0.5
tp328
a(I64
F2.21260404586792
(dp329
I1
F0.6500000000000004
sI2
F0.0
sI3
F0.0
sI4
F0.6500000000000004
sI5
F0.0
sI6
F0.0
sI7
F0.0
sI8
F0.0
sI9
F0.0
sI10
F0.6500000000000004
sg2
(g6
S'\xbcIp\xd1\x02t\xdb?'
p330
tp331
Rp332
g12
I3
F0.5
tp333
a(I65
F2.24631404876709
(dp334
I1
F0.6600000000000004
sI2
F0.0
sI3
F0.0
sI4
F0.6600000000000004
sI5
F0.0
sI6
F0.0
sI7
F0.0
sI8
F0.0
sI9
F0.0
sI10
F0.6600000000000004
sg2
(g6
S'~h\x9e\xed\t\xc6\xdb?'
p335
tp336
Rp337
g12
I3
F0.5
tp338
a(I66
F2.279330015182495
(dp339
I1
F0.6700000000000004
sI2
F0.0
sI3
F0.0
sI4
F0.6700000000000004
sI5
F0.0
sI6
F0.0
sI7
F0.0
sI8
F0.0
sI9
F0.0
sI10
F0.6700000000000004
sg2
(g6
S'\xce/\xaa\xc7\x80\x17\xdc?'
p340
tp341
Rp342
g12
I3
F0.5
tp343
a(I67
F2.3124310970306396
(dp344
I1
F0.6800000000000004
sI2
F0.0
sI3
F0.0
sI4
F0.6800000000000004
sI5
F0.0
sI6
F0.0
sI7
F0.0
sI8
F0.0
sI9
F0.0
sI10
F0.6800000000000004
sg2
(g6
S'\xf4\xa5w\xfaih\xdc?'
p345
tp346
Rp347
g12
I3
F0.5
tp348
a(I68
F2.3452789783477783
(dp349
I1
F0.6900000000000004
sI2
F0.0
sI3
F0.0
sI4
F0.6900000000000004
sI5
F0.0
sI6
F0.0
sI7
F0.0
sI8
F0.0
sI9
F0.0
sI10
F0.6900000000000004
sg2
(g6
S'9\xd1\xea \xc8\xb8\xdc?'
p350
tp351
Rp352
g12
I3
F0.5
tp353
a(I69
F2.3778929710388184
(dp354
I1
F0.7000000000000004
sI2
F0.0
sI3
F0.0
sI4
F0.7000000000000004
sI5
F0.0
sI6
F0.0
sI7
F0.0
sI8
F0.0
sI9
F0.0
sI10
F0.7000000000000004
sg2
(g6
S'\xe6\xb7\xe7\xd5\x9d\x08\xdd?'
p355
tp356
Rp357
g12
I3
F0.5
tp358
a(I70
F2.410470962524414
(dp359
I1
F0.7100000000000004
sI2
F0.0
sI3
F0.0
sI4
F0.7100000000000004
sI5
F0.0
sI6
F0.0
sI7
F0.0
sI8
F0.0
sI9
F0.0
sI10
F0.7100000000000004
sg2
(g6
S'A`R\xb4\xedW\xdd?'
p360
tp361
Rp362
g12
I3
F0.5
tp363
a(I71
F2.4433181285858154
(dp364
I1
F0.7200000000000004
sI2
F0.0
sI3
F0.0
sI4
F0.7200000000000004
sI5
F0.0
sI6
F0.0
sI7
F0.0
sI8
F0.0
sI9
F0.0
sI10
F0.7200000000000004
sg2
(g6
S'\x96\xd0\x0eW\xba\xa6\xdd?'
p365
tp366
Rp367
g12
I3
F0.5
tp368
a(I72
F2.4761180877685547
(dp369
I1
F0.7300000000000004
sI2
F0.0
sI3
F0.0
sI4
F0.7300000000000004
sI5
F0.0
sI6
F0.0
sI7
F0.0
sI8
F0.0
sI9
F0.0
sI10
F0.7300000000000004
sg2
(g6
S'*\x0f\x01Y\x06\xf5\xdd?'
p370
tp371
Rp372
g12
I3
F0.5
tp373
a(I73
F2.5087051391601562
(dp374
I1
F0.7400000000000004
sI2
F0.0
sI3
F0.0
sI4
F0.7400000000000004
sI5
F0.0
sI6
F0.0
sI7
F0.0
sI8
F0.0
sI9
F0.0
sI10
F0.7400000000000004
sg2
(g6
S'H"\rU\xd4B\xde?'
p375
tp376
Rp377
g12
I3
F0.5
tp378
a(I74
F2.5415260791778564
(dp379
I1
F0.7500000000000004
sI2
F0.0
sI3
F0.0
sI4
F0.7500000000000004
sI5
F0.0
sI6
F0.0
sI7
F0.0
sI8
F0.0
sI9
F0.0
sI10
F0.7500000000000004
sg2
(g6
S':\x10\x17\xe6&\x90\xde?'
p380
tp381
Rp382
g12
I3
F0.5
tp383
a(I75
F2.5744049549102783
(dp384
I1
F0.7600000000000005
sI2
F0.0
sI3
F0.0
sI4
F0.7600000000000005
sI5
F0.0
sI6
F0.0
sI7
F0.0
sI8
F0.0
sI9
F0.0
sI10
F0.7600000000000005
sg2
(g6
S'D\xdf\x02\xa7\x00\xdd\xde?'
p385
tp386
Rp387
g12
I3
F0.5
tp388
a(I76
F2.607056140899658
(dp389
I1
F0.7700000000000005
sI2
F0.0
sI3
F0.0
sI4
F0.7700000000000005
sI5
F0.0
sI6
F0.0
sI7
F0.0
sI8
F0.0
sI9
F0.0
sI10
F0.7700000000000005
sg2
(g6
S'\xb1\x95\xb42d)\xdf?'
p390
tp391
Rp392
g12
I3
F0.5
tp393
a(I77
F2.6397969722747803
(dp394
I1
F0.7800000000000005
sI2
F0.0
sI3
F0.0
sI4
F0.7800000000000005
sI5
F0.0
sI6
F0.0
sI7
F0.0
sI8
F0.0
sI9
F0.0
sI10
F0.7800000000000005
sg2
(g6
S'\xcb9\x10$Tu\xdf?'
p395
tp396
Rp397
g12
I3
F0.5
tp398
a(I78
F2.672621011734009
(dp399
I1
F0.7900000000000005
sI2
F0.0
sI3
F0.0
sI4
F0.7900000000000005
sI5
F0.0
sI6
F0.0
sI7
F0.0
sI8
F0.0
sI9
F0.0
sI10
F0.7900000000000005
sg2
(g6
S'\xd7\xd1\xf9\x15\xd3\xc0\xdf?'
p400
tp401
Rp402
g12
I3
F0.5
tp403
a(I79
F2.705376148223877
(dp404
I1
F0.8000000000000005
sI2
F0.0
sI3
F0.0
sI4
F0.8000000000000005
sI5
F0.0
sI6
F0.0
sI7
F0.0
sI8
F0.0
sI9
F0.0
sI10
F0.8000000000000005
sg2
(g6
S'\x10\xb2\xaa\xd1\xf1\x05\xe0?'
p405
tp406
Rp407
g12
I3
F0.5
tp408
a(I80
F2.7385520935058594
(dp409
I1
F0.8100000000000005
sI2
F0.0
sI3
F0.0
sI4
F0.8100000000000005
sI5
F0.0
sI6
F0.0
sI7
F0.0
sI8
F0.0
sI9
F0.0
sI10
F0.8100000000000005
sg2
(g6
S'v{\x833D+\xe0?'
p410
tp411
Rp412
g12
I3
F0.5
tp413
a(I81
F2.772071123123169
(dp414
I1
F0.8200000000000005
sI2
F0.0
sI3
F0.0
sI4
F0.8200000000000005
sI5
F0.0
sI6
F0.0
sI7
F0.0
sI8
F0.0
sI9
F0.0
sI10
F0.8200000000000005
sg2
(g6
S'DH\xf9\xfdaP\xe0?'
p415
tp416
Rp417
g12
I3
F0.5
tp418
a(I82
F2.8057730197906494
(dp419
I1
F0.8300000000000005
sI2
F0.0
sI3
F0.0
sI4
F0.8300000000000005
sI5
F0.0
sI6
F0.0
sI7
F0.0
sI8
F0.0
sI9
F0.0
sI10
F0.8300000000000005
sg2
(g6
S'\x9d\x1b~~Lu\xe0?'
p420
tp421
Rp422
g12
I3
F0.5
tp423
a(I83
F2.839264154434204
(dp424
I1
F0.8400000000000005
sI2
F0.0
sI3
F0.0
sI4
F0.8400000000000005
sI5
F0.0
sI6
F0.0
sI7
F0.0
sI8
F0.0
sI9
F0.0
sI10
F0.8400000000000005
sg2
(g6
S'\xa5\xf8\x83\x02\x05\x9a\xe0?'
p425
tp426
Rp427
g12
I3
F0.5
tp428
a(I84
F2.8728890419006348
(dp429
I1
F0.8500000000000005
sI2
F0.0
sI3
F0.0
sI4
F0.8500000000000005
sI5
F0.0
sI6
F0.0
sI7
F0.0
sI8
F0.0
sI9
F0.0
sI10
F0.8500000000000005
sg2
(g6
S'\x81\xe2|\xd7\x8c\xbe\xe0?'
p430
tp431
Rp432
g12
I3
F0.5
tp433
a(I85
F2.9062771797180176
(dp434
I1
F0.8600000000000005
sI2
F0.0
sI3
F0.0
sI4
F0.8600000000000005
sI5
F0.0
sI6
F0.0
sI7
F0.0
sI8
F0.0
sI9
F0.0
sI10
F0.8600000000000005
sg2
(g6
S'S\xdc\xdaJ\xe5\xe2\xe0?'
p435
tp436
Rp437
g12
I3
F0.5
tp438
a(I86
F2.939795970916748
(dp439
I1
F0.8700000000000006
sI2
F0.0
sI3
F0.0
sI4
F0.8700000000000006
sI5
F0.0
sI6
F0.0
sI7
F0.0
sI8
F0.0
sI9
F0.0
sI10
F0.8700000000000006
sg2
(g6
S'B\xe9\x0f\xaa\x0f\x07\xe1?'
p440
tp441
Rp442
g12
I3
F0.5
tp443
a(I87
F2.973121166229248
(dp444
I1
F0.8800000000000006
sI2
F0.0
sI3
F0.0
sI4
F0.8800000000000006
sI5
F0.0
sI6
F0.0
sI7
F0.0
sI8
F0.0
sI9
F0.0
sI10
F0.8800000000000006
sg2
(g6
S'r\x0c\x8eB\r+\xe1?'
p445
tp446
Rp447
g12
I3
F0.5
tp448
a(I88
F3.0067429542541504
(dp449
I1
F0.8900000000000006
sI2
F0.0
sI3
F0.0
sI4
F0.8900000000000006
sI5
F0.0
sI6
F0.0
sI7
F0.0
sI8
F0.0
sI9
F0.0
sI10
F0.8900000000000006
sg2
(g6
S'\x05I\xc7a\xdfN\xe1?'
p450
tp451
Rp452
g12
I3
F0.5
tp453
a(I89
F3.0405659675598145
(dp454
I1
F0.9000000000000006
sI2
F0.0
sI3
F0.0
sI4
F0.9000000000000006
sI5
F0.0
sI6
F0.0
sI7
F0.0
sI8
F0.0
sI9
F0.0
sI10
F0.9000000000000006
sg2
(g6
S'"\xa2-U\x87r\xe1?'
p455
tp456
Rp457
g12
I3
F0.5
tp458
a(I90
F3.0734219551086426
(dp459
I1
F0.9100000000000006
sI2
F0.0
sI3
F0.0
sI4
F0.9100000000000006
sI5
F0.0
sI6
F0.0
sI7
F0.0
sI8
F0.0
sI9
F0.0
sI10
F0.9100000000000006
sg2
(g6
S'\xec\x1a3j\x06\x96\xe1?'
p460
tp461
Rp462
g12
I3
F0.5
tp463
a(I91
F3.1058881282806396
(dp464
I1
F0.9200000000000006
sI2
F0.0
sI3
F0.0
sI4
F0.9200000000000006
sI5
F0.0
sI6
F0.0
sI7
F0.0
sI8
F0.0
sI9
F0.0
sI10
F0.9200000000000006
sg2
(g6
S'\x86\xb6I\xee]\xb9\xe1?'
p465
tp466
Rp467
g12
I3
F0.5
tp468
a(I92
F3.1386520862579346
(dp469
I1
F0.9300000000000006
sI2
F0.0
sI3
F0.0
sI4
F0.9300000000000006
sI5
F0.0
sI6
F0.0
sI7
F0.0
sI8
F0.0
sI9
F0.0
sI10
F0.9300000000000006
sg2
(g6
S'\x17x\xe3.\x8f\xdc\xe1?'
p470
tp471
Rp472
g12
I3
F0.5
tp473
a(I93
F3.1715290546417236
(dp474
I1
F0.9400000000000006
sI2
F0.0
sI3
F0.0
sI4
F0.9400000000000006
sI5
F0.0
sI6
F0.0
sI7
F0.0
sI8
F0.0
sI9
F0.0
sI10
F0.9400000000000006
sg2
(g6
S'\xc0bry\x9b\xff\xe1?'
p475
tp476
Rp477
g12
I3
F0.5
tp478
a(I94
F3.2042441368103027
(dp479
I1
F0.9500000000000006
sI2
F0.0
sI3
F0.0
sI4
F0.9500000000000006
sI5
F0.0
sI6
F0.0
sI7
F0.0
sI8
F0.0
sI9
F0.0
sI10
F0.9500000000000006
sg2
(g6
S'\xa8yh\x1b\x84"\xe2?'
p480
tp481
Rp482
g12
I3
F0.5
tp483
a(I95
F3.236989974975586
(dp484
I1
F0.9600000000000006
sI2
F0.0
sI3
F0.0
sI4
F0.9600000000000006
sI5
F0.0
sI6
F0.0
sI7
F0.0
sI8
F0.0
sI9
F0.0
sI10
F0.9600000000000006
sg2
(g6
S'\xf3\xbf7bJE\xe2?'
p485
tp486
Rp487
g12
I3
F0.5
tp488
a(I96
F3.269735097885132
(dp489
I1
F0.9700000000000006
sI2
F0.0
sI3
F0.0
sI4
F0.9700000000000006
sI5
F0.0
sI6
F0.0
sI7
F0.0
sI8
F0.0
sI9
F0.0
sI10
F0.9700000000000006
sg2
(g6
S'\xc38R\x9b\xefg\xe2?'
p490
tp491
Rp492
g12
I3
F0.5
tp493
a(I97
F3.3023929595947266
(dp494
I1
F0.9800000000000006
sI2
F0.0
sI3
F0.0
sI4
F0.9800000000000006
sI5
F0.0
sI6
F0.0
sI7
F0.0
sI8
F0.0
sI9
F0.0
sI10
F0.9800000000000006
sg2
(g6
S'>\xe7)\x14u\x8a\xe2?'
p495
tp496
Rp497
g12
I3
F0.5
tp498
a(I98
F3.335381031036377
(dp499
I1
F0.9900000000000007
sI2
F0.0
sI3
F0.0
sI4
F0.9900000000000007
sI5
F0.0
sI6
F0.0
sI7
F0.0
sI8
F0.0
sI9
F0.0
sI10
F0.9900000000000007
sg2
(g6
S'\x88\xce0\x1a\xdc\xac\xe2?'
p500
tp501
Rp502
g12
I3
F0.5
tp503
a(I99
F3.368929147720337
(dp504
I1
F1.0000000000000007
sI2
F0.0
sI3
F0.0
sI4
F1.0000000000000007
sI5
F0.0
sI6
F0.0
sI7
F0.0
sI8
F0.0
sI9
F0.0
sI10
F1.0000000000000007
sg2
(g6
S'\xc8\xf1\xd8\xfa%\xcf\xe2?'
p505
tp506
Rp507
g12
I3
F0.5
tp508
a.