(lp0
(I0
F0.49819111824035645
(dp1
I1
F0.01
sI2
F0.0
sI3
F0.0
sI4
F0.01
sI5
F0.0
sI6
F0.0
sI7
F0.0
sI8
F0.0
sI9
F0.0
sI10
F0.01
scnumpy.core.multiarray
scalar
p2
(cnumpy
dtype
p3
(S'f8'
p4
I0
I1
tp5
Rp6
(I3
S'<'
p7
NNNI-1
I-1
I0
tp8
bS'\xa9\t\xdf\xefv\x8f\x81?'
p9
tp10
Rp11
S'sampler'
p12
I250
tp13
a(I1
F0.975581169128418
(dp14
I1
F0.02
sI2
F0.0
sI3
F0.0
sI4
F0.02
sI5
F0.0
sI6
F0.0
sI7
F0.0
sI8
F0.0
sI9
F0.0
sI10
F0.02
sg2
(g6
S'\xef\x0b`\x8f\xdd{\x91?'
p15
tp16
Rp17
g12
I250
tp18
a(I2
F1.4513330459594727
(dp19
I1
F0.03
sI2
F0.0
sI3
F0.0
sI4
F0.03
sI5
F0.0
sI6
F0.0
sI7
F0.0
sI8
F0.0
sI9
F0.0
sI10
F0.03
sg2
(g6
S'\xdb\xf9\x91\xf4\x8f\x1c\x9a?'
p20
tp21
Rp22
g12
I250
tp23
a(I3
F1.9184000492095947
(dp24
I1
F0.04
sI2
F0.0
sI3
F0.0
sI4
F0.04
sI5
F0.0
sI6
F0.0
sI7
F0.0
sI8
F0.0
sI9
F0.0
sI10
F0.04
sg2
(g6
S'\x91\xd9\xe2*\xfeT\xa1?'
p25
tp26
Rp27
g12
I250
tp28
a(I4
F2.3940460681915283
(dp29
I1
F0.05
sI2
F0.0
sI3
F0.0
sI4
F0.05
sI5
F0.0
sI6
F0.0
sI7
F0.0
sI8
F0.0
sI9
F0.0
sI10
F0.05
sg2
(g6
S')\xce\x9d0&\x92\xa5?'
p30
tp31
Rp32
g12
I250
tp33
a(I5
F2.860028028488159
(dp34
I1
F0.060000000000000005
sI2
F0.0
sI3
F0.0
sI4
F0.060000000000000005
sI5
F0.0
sI6
F0.0
sI7
F0.0
sI8
F0.0
sI9
F0.0
sI10
F0.060000000000000005
sg2
(g6
S'\xf5\x0c\x9a\xe2\xd4\xc5\xa9?'
p35
tp36
Rp37
g12
I250
tp38
a(I6
F3.3338470458984375
(dp39
I1
F0.07
sI2
F0.0
sI3
F0.0
sI4
F0.07
sI5
F0.0
sI6
F0.0
sI7
F0.0
sI8
F0.0
sI9
F0.0
sI10
F0.07
sg2
(g6
S'<\xc8\xf7\x17\x1f\xf0\xad?'
p40
tp41
Rp42
g12
I250
tp43
a(I7
F3.8007099628448486
(dp44
I1
F0.08
sI2
F0.0
sI3
F0.0
sI4
F0.08
sI5
F0.0
sI6
F0.0
sI7
F0.0
sI8
F0.0
sI9
F0.0
sI10
F0.08
sg2
(g6
S'!\x99\xeb\xd3\x8c\x08\xb1?'
p45
tp46
Rp47
g12
I250
tp48
a(I8
F4.268835067749023
(dp49
I1
F0.09
sI2
F0.0
sI3
F0.0
sI4
F0.09
sI5
F0.0
sI6
F0.0
sI7
F0.0
sI8
F0.0
sI9
F0.0
sI10
F0.09
sg2
(g6
S'\xa4>\xac\xb4l\x14\xb3?'
p50
tp51
Rp52
g12
I250
tp53
a(I9
F4.7227020263671875
(dp54
I1
F0.09999999999999999
sI2
F0.0
sI3
F0.0
sI4
F0.09999999999999999
sI5
F0.0
sI6
F0.0
sI7
F0.0
sI8
F0.0
sI9
F0.0
sI10
F0.09999999999999999
sg2
(g6
S'\xcb\xed\xcd\x99\xb9\x1b\xb5?'
p55
tp56
Rp57
g12
I250
tp58
a(I10
F5.1789891719818115
(dp59
I1
F0.10999999999999999
sI2
F0.0
sI3
F0.0
sI4
F0.10999999999999999
sI5
F0.0
sI6
F0.0
sI7
F0.0
sI8
F0.0
sI9
F0.0
sI10
F0.10999999999999999
sg2
(g6
S'\xb7\xbf\xe0\xee}\x1e\xb7?'
p60
tp61
Rp62
g12
I250
tp63
a(I11
F5.633996963500977
(dp64
I1
F0.11999999999999998
sI2
F0.0
sI3
F0.0
sI4
F0.11999999999999998
sI5
F0.0
sI6
F0.0
sI7
F0.0
sI8
F0.0
sI9
F0.0
sI10
F0.11999999999999998
sg2
(g6
S'\x8a\xcdt\x1f\xc4\x1c\xb9?'
p65
tp66
Rp67
g12
I250
tp68
a(I12
F6.095602989196777
(dp69
I1
F0.12999999999999998
sI2
F0.0
sI3
F0.0
sI4
F0.12999999999999998
sI5
F0.0
sI6
F0.0
sI7
F0.0
sI8
F0.0
sI9
F0.0
sI10
F0.12999999999999998
sg2
(g6
S'g0\x1a\x97\x96\x16\xbb?'
p70
tp71
Rp72
g12
I250
tp73
a(I13
F6.55872106552124
(dp74
I1
F0.13999999999999999
sI2
F0.0
sI3
F0.0
sI4
F0.13999999999999999
sI5
F0.0
sI6
F0.0
sI7
F0.0
sI8
F0.0
sI9
F0.0
sI10
F0.13999999999999999
sg2
(g6
S'o\x01a\xc1\xff\x0b\xbd?'
p75
tp76
Rp77
g12
I250
tp78
a(I14
F7.015809059143066
(dp79
I1
F0.15
sI2
F0.0
sI3
F0.0
sI4
F0.15
sI5
F0.0
sI6
F0.0
sI7
F0.0
sI8
F0.0
sI9
F0.0
sI10
F0.15
sg2
(g6
S'\xc6Y\xd9\t\n\xfd\xbe?'
p80
tp81
Rp82
g12
I250
tp83
a(I15
F7.47166895866394
(dp84
I1
F0.16
sI2
F0.0
sI3
F0.0
sI4
F0.16
sI5
F0.0
sI6
F0.0
sI7
F0.0
sI8
F0.0
sI9
F0.0
sI10
F0.16
sg2
(g6
S'E\xa9\t\xee\xdft\xc0?'
p85
tp86
Rp87
g12
I250
tp88
a(I16
F7.929547071456909
(dp89
I1
F0.17
sI2
F0.0
sI3
F0.0
sI4
F0.17
sI5
F0.0
sI6
F0.0
sI7
F0.0
sI8
F0.0
sI9
F0.0
sI10
F0.17
sg2
(g6
S'q\x82\xcf\xd1\x15i\xc1?'
p90
tp91
Rp92
g12
I250
tp93
a(I17
F8.388005018234253
(dp94
I1
F0.18000000000000002
sI2
F0.0
sI3
F0.0
sI4
F0.18000000000000002
sI5
F0.0
sI6
F0.0
sI7
F0.0
sI8
F0.0
sI9
F0.0
sI10
F0.18000000000000002
sg2
(g6
S'\xf6D\x06\xe6+[\xc2?'
p95
tp96
Rp97
g12
I250
tp98
a(I18
F8.852813005447388
(dp99
I1
F0.19000000000000003
sI2
F0.0
sI3
F0.0
sI4
F0.19000000000000003
sI5
F0.0
sI6
F0.0
sI7
F0.0
sI8
F0.0
sI9
F0.0
sI10
F0.19000000000000003
sg2
(g6
S"g\xfdu`'K\xc3?"
p100
tp101
Rp102
g12
I250
tp103
a(I19
F9.314089059829712
(dp104
I1
F0.20000000000000004
sI2
F0.0
sI3
F0.0
sI4
F0.20000000000000004
sI5
F0.0
sI6
F0.0
sI7
F0.0
sI8
F0.0
sI9
F0.0
sI10
F0.20000000000000004
sg2
(g6
S'Q\xb8\xe6v\r9\xc4?'
p105
tp106
Rp107
g12
I250
tp108
a(I20
F9.77341914176941
(dp109
I1
F0.21000000000000005
sI2
F0.0
sI3
F0.0
sI4
F0.21000000000000005
sI5
F0.0
sI6
F0.0
sI7
F0.0
sI8
F0.0
sI9
F0.0
sI10
F0.21000000000000005
sg2
(g6
S'J\x82 _\xe3$\xc5?'
p110
tp111
Rp112
g12
I250
tp113
a(I21
F10.231848955154419
(dp114
I1
F0.22000000000000006
sI2
F0.0
sI3
F0.0
sI4
F0.22000000000000006
sI5
F0.0
sI6
F0.0
sI7
F0.0
sI8
F0.0
sI9
F0.0
sI10
F0.22000000000000006
sg2
(g6
S'\xe0g\xebN\xae\x0e\xc6?'
p115
tp116
Rp117
g12
I250
tp118
a(I22
F10.690019130706787
(dp119
I1
F0.23000000000000007
sI2
F0.0
sI3
F0.0
sI4
F0.23000000000000007
sI5
F0.0
sI6
F0.0
sI7
F0.0
sI8
F0.0
sI9
F0.0
sI10
F0.23000000000000007
sg2
(g6
S'\xa6u\x0f|s\xf6\xc6?'
p120
tp121
Rp122
g12
I250
tp123
a(I23
F11.147999048233032
(dp124
I1
F0.24000000000000007
sI2
F0.0
sI3
F0.0
sI4
F0.24000000000000007
sI5
F0.0
sI6
F0.0
sI7
F0.0
sI8
F0.0
sI9
F0.0
sI10
F0.24000000000000007
sg2
(g6
S'*\xb8T\x1c8\xdc\xc7?'
p125
tp126
Rp127
g12
I250
tp128
a(I24
F11.60697603225708
(dp129
I1
F0.25000000000000006
sI2
F0.0
sI3
F0.0
sI4
F0.25000000000000006
sI5
F0.0
sI6
F0.0
sI7
F0.0
sI8
F0.0
sI9
F0.0
sI10
F0.25000000000000006
sg2
(g6
S'\x01<\x83e\x01\xc0\xc8?'
p130
tp131
Rp132
g12
I250
tp133
a(I25
F12.066488027572632
(dp134
I1
F0.26000000000000006
sI2
F0.0
sI3
F0.0
sI4
F0.26000000000000006
sI5
F0.0
sI6
F0.0
sI7
F0.0
sI8
F0.0
sI9
F0.0
sI10
F0.26000000000000006
sg2
(g6
S'\xb8\rc\x8d\xd4\xa1\xc9?'
p135
tp136
Rp137
g12
I250
tp138
a(I26
F12.543992042541504
(dp139
I1
F0.2700000000000001
sI2
F0.0
sI3
F0.0
sI4
F0.2700000000000001
sI5
F0.0
sI6
F0.0
sI7
F0.0
sI8
F0.0
sI9
F0.0
sI10
F0.2700000000000001
sg2
(g6
S'\xe49\xbc\xc9\xb6\x81\xca?'
p140
tp141
Rp142
g12
I250
tp143
a(I27
F13.01970100402832
(dp144
I1
F0.2800000000000001
sI2
F0.0
sI3
F0.0
sI4
F0.2800000000000001
sI5
F0.0
sI6
F0.0
sI7
F0.0
sI8
F0.0
sI9
F0.0
sI10
F0.2800000000000001
sg2
(g6
S'\x12\xcdVP\xad_\xcb?'
p145
tp146
Rp147
g12
I250
tp148
a(I28
F13.48159408569336
(dp149
I1
F0.2900000000000001
sI2
F0.0
sI3
F0.0
sI4
F0.2900000000000001
sI5
F0.0
sI6
F0.0
sI7
F0.0
sI8
F0.0
sI9
F0.0
sI10
F0.2900000000000001
sg2
(g6
S'\xd6\xd3\xfaV\xbd;\xcc?'
p150
tp151
Rp152
g12
I250
tp153
a(I29
F13.936545133590698
(dp154
I1
F0.3000000000000001
sI2
F0.0
sI3
F0.0
sI4
F0.3000000000000001
sI5
F0.0
sI6
F0.0
sI7
F0.0
sI8
F0.0
sI9
F0.0
sI10
F0.3000000000000001
sg2
(g6
S'\xbeZp\x13\xec\x15\xcd?'
p155
tp156
Rp157
g12
I250
tp158
a(I30
F14.39494800567627
(dp159
I1
F0.3100000000000001
sI2
F0.0
sI3
F0.0
sI4
F0.3100000000000001
sI5
F0.0
sI6
F0.0
sI7
F0.0
sI8
F0.0
sI9
F0.0
sI10
F0.3100000000000001
sg2
(g6
S'^n\x7f\xbb>\xee\xcd?'
p160
tp161
Rp162
g12
I250
tp163
a(I31
F14.853904962539673
(dp164
I1
F0.3200000000000001
sI2
F0.0
sI3
F0.0
sI4
F0.3200000000000001
sI5
F0.0
sI6
F0.0
sI7
F0.0
sI8
F0.0
sI9
F0.0
sI10
F0.3200000000000001
sg2
(g6
S'F\x1b\xf0\x84\xba\xc4\xce?'
p165
tp166
Rp167
g12
I250
tp168
a(I32
F15.315020084381104
(dp169
I1
F0.3300000000000001
sI2
F0.0
sI3
F0.0
sI4
F0.3300000000000001
sI5
F0.0
sI6
F0.0
sI7
F0.0
sI8
F0.0
sI9
F0.0
sI10
F0.3300000000000001
sg2
(g6
S'\x07n\x8a\xa5d\x99\xcf?'
p170
tp171
Rp172
g12
I250
tp173
a(I33
F15.771245956420898
(dp174
I1
F0.34000000000000014
sI2
F0.0
sI3
F0.0
sI4
F0.34000000000000014
sI5
F0.0
sI6
F0.0
sI7
F0.0
sI8
F0.0
sI9
F0.0
sI10
F0.34000000000000014
sg2
(g6
S'\x999\x8b)!6\xd0?'
p175
tp176
Rp177
g12
I250
tp178
a(I34
F16.23745894432068
(dp179
I1
F0.35000000000000014
sI2
F0.0
sI3
F0.0
sI4
F0.35000000000000014
sI5
F0.0
sI6
F0.0
sI7
F0.0
sI8
F0.0
sI9
F0.0
sI10
F0.35000000000000014
sg2
(g6
S'\xad\x1b\xaea\xac\x9e\xd0?'
p180
tp181
Rp182
g12
I250
tp183
a(I35
F16.704267024993896
(dp184
I1
F0.36000000000000015
sI2
F0.0
sI3
F0.0
sI4
F0.36000000000000015
sI5
F0.0
sI6
F0.0
sI7
F0.0
sI8
F0.0
sI9
F0.0
sI10
F0.36000000000000015
sg2
(g6
S'\x86\xe3\x11\x96V\x06\xd1?'
p185
tp186
Rp187
g12
I250
tp188
a(I36
F17.17350196838379
(dp189
I1
F0.37000000000000016
sI2
F0.0
sI3
F0.0
sI4
F0.37000000000000016
sI5
F0.0
sI6
F0.0
sI7
F0.0
sI8
F0.0
sI9
F0.0
sI10
F0.37000000000000016
sg2
(g6
S'm\x97\x9aa"m\xd1?'
p190
tp191
Rp192
g12
I250
tp193
a(I37
F17.640422105789185
(dp194
I1
F0.38000000000000017
sI2
F0.0
sI3
F0.0
sI4
F0.38000000000000017
sI5
F0.0
sI6
F0.0
sI7
F0.0
sI8
F0.0
sI9
F0.0
sI10
F0.38000000000000017
sg2
(g6
S'\xac=,_\x12\xd3\xd1?'
p195
tp196
Rp197
g12
I250
tp198
a(I38
F18.107336044311523
(dp199
I1
F0.3900000000000002
sI2
F0.0
sI3
F0.0
sI4
F0.3900000000000002
sI5
F0.0
sI6
F0.0
sI7
F0.0
sI8
F0.0
sI9
F0.0
sI10
F0.3900000000000002
sg2
(g6
S'\x8a\xdc\xaa))8\xd2?'
p200
tp201
Rp202
g12
I250
tp203
a(I39
F18.575035095214844
(dp204
I1
F0.4000000000000002
sI2
F0.0
sI3
F0.0
sI4
F0.4000000000000002
sI5
F0.0
sI6
F0.0
sI7
F0.0
sI8
F0.0
sI9
F0.0
sI10
F0.4000000000000002
sg2
(g6
S'Qz\xfa[i\x9c\xd2?'
p205
tp206
Rp207
g12
I250
tp208
a(I40
F19.045114994049072
(dp209
I1
F0.4100000000000002
sI2
F0.0
sI3
F0.0
sI4
F0.4100000000000002
sI5
F0.0
sI6
F0.0
sI7
F0.0
sI8
F0.0
sI9
F0.0
sI10
F0.4100000000000002
sg2
(g6
S'H\x1d\xff\x90\xd5\xff\xd2?'
p210
tp211
Rp212
g12
I250
tp213
a(I41
F19.51870608329773
(dp214
I1
F0.4200000000000002
sI2
F0.0
sI3
F0.0
sI4
F0.4200000000000002
sI5
F0.0
sI6
F0.0
sI7
F0.0
sI8
F0.0
sI9
F0.0
sI10
F0.4200000000000002
sg2
(g6
S'\xb8\xcb\x9ccpb\xd3?'
p215
tp216
Rp217
g12
I250
tp218
a(I42
F19.982218027114868
(dp219
I1
F0.4300000000000002
sI2
F0.0
sI3
F0.0
sI4
F0.4300000000000002
sI5
F0.0
sI6
F0.0
sI7
F0.0
sI8
F0.0
sI9
F0.0
sI10
F0.4300000000000002
sg2
(g6
S'\xe8\x8b\xb7n<\xc4\xd3?'
p220
tp221
Rp222
g12
I250
tp223
a(I43
F20.438668966293335
(dp224
I1
F0.4400000000000002
sI2
F0.0
sI3
F0.0
sI4
F0.4400000000000002
sI5
F0.0
sI6
F0.0
sI7
F0.0
sI8
F0.0
sI9
F0.0
sI10
F0.4400000000000002
sg2
(g6
S'%d3M<%\xd4?'
p225
tp226
Rp227
g12
I250
tp228
a(I44
F20.89622211456299
(dp229
I1
F0.45000000000000023
sI2
F0.0
sI3
F0.0
sI4
F0.45000000000000023
sI5
F0.0
sI6
F0.0
sI7
F0.0
sI8
F0.0
sI9
F0.0
sI10
F0.45000000000000023
sg2
(g6
S'\xb4Z\xf4\x99r\x85\xd4?'
p230
tp231
Rp232
g12
I250
tp233
a(I45
F21.351603984832764
(dp234
I1
F0.46000000000000024
sI2
F0.0
sI3
F0.0
sI4
F0.46000000000000024
sI5
F0.0
sI6
F0.0
sI7
F0.0
sI8
F0.0
sI9
F0.0
sI10
F0.46000000000000024
sg2
(g6
S'\xdcu\xde\xef\xe1\xe4\xd4?'
p235
tp236
Rp237
g12
I250
tp238
a(I46
F21.808114051818848
(dp239
I1
F0.47000000000000025
sI2
F0.0
sI3
F0.0
sI4
F0.47000000000000025
sI5
F0.0
sI6
F0.0
sI7
F0.0
sI8
F0.0
sI9
F0.0
sI10
F0.47000000000000025
sg2
(g6
S'\xea\xbb\xd5\xe9\x8cC\xd5?'
p240
tp241
Rp242
g12
I250
tp243
a(I47
F22.269227981567383
(dp244
I1
F0.48000000000000026
sI2
F0.0
sI3
F0.0
sI4
F0.48000000000000026
sI5
F0.0
sI6
F0.0
sI7
F0.0
sI8
F0.0
sI9
F0.0
sI10
F0.48000000000000026
sg2
(g6
S'"3\xbe"v\xa1\xd5?'
p245
tp246
Rp247
g12
I250
tp248
a(I48
F22.732439041137695
(dp249
I1
F0.49000000000000027
sI2
F0.0
sI3
F0.0
sI4
F0.49000000000000027
sI5
F0.0
sI6
F0.0
sI7
F0.0
sI8
F0.0
sI9
F0.0
sI10
F0.49000000000000027
sg2
(g6
S'\xd0\xe1{5\xa0\xfe\xd5?'
p250
tp251
Rp252
g12
I250
tp253
a(I49
F23.192015171051025
(dp254
I1
F0.5000000000000002
sI2
F0.0
sI3
F0.0
sI4
F0.5000000000000002
sI5
F0.0
sI6
F0.0
sI7
F0.0
sI8
F0.0
sI9
F0.0
sI10
F0.5000000000000002
sg2
(g6
S'8\xce\xf2\xbc\r[\xd6?'
p255
tp256
Rp257
g12
I250
tp258
a(I50
F23.64947199821472
(dp259
I1
F0.5100000000000002
sI2
F0.0
sI3
F0.0
sI4
F0.5100000000000002
sI5
F0.0
sI6
F0.0
sI7
F0.0
sI8
F0.0
sI9
F0.0
sI10
F0.5100000000000002
sg2
(g6
S'\xaa\xfe\x06T\xc1\xb6\xd6?'
p260
tp261
Rp262
g12
I250
tp263
a(I51
F24.10533905029297
(dp264
I1
F0.5200000000000002
sI2
F0.0
sI3
F0.0
sI4
F0.5200000000000002
sI5
F0.0
sI6
F0.0
sI7
F0.0
sI8
F0.0
sI9
F0.0
sI10
F0.5200000000000002
sg2
(g6
S'hy\x9c\x95\xbd\x11\xd7?'
p265
tp266
Rp267
g12
I250
tp268
a(I52
F24.562039136886597
(dp269
I1
F0.5300000000000002
sI2
F0.0
sI3
F0.0
sI4
F0.5300000000000002
sI5
F0.0
sI6
F0.0
sI7
F0.0
sI8
F0.0
sI9
F0.0
sI10
F0.5300000000000002
sg2
(g6
S'\xbdD\x97\x1c\x05l\xd7?'
p270
tp271
Rp272
g12
I250
tp273
a(I53
F25.022212982177734
(dp274
I1
F0.5400000000000003
sI2
F0.0
sI3
F0.0
sI4
F0.5400000000000003
sI5
F0.0
sI6
F0.0
sI7
F0.0
sI8
F0.0
sI9
F0.0
sI10
F0.5400000000000003
sg2
(g6
S'\xf3f\xdb\x83\x9a\xc5\xd7?'
p275
tp276
Rp277
g12
I250
tp278
a(I54
F25.481630086898804
(dp279
I1
F0.5500000000000003
sI2
F0.0
sI3
F0.0
sI4
F0.5500000000000003
sI5
F0.0
sI6
F0.0
sI7
F0.0
sI8
F0.0
sI9
F0.0
sI10
F0.5500000000000003
sg2
(g6
S'M\xe6Lf\x80\x1e\xd8?'
p280
tp281
Rp282
g12
I250
tp283
a(I55
F25.94026803970337
(dp284
I1
F0.5600000000000003
sI2
F0.0
sI3
F0.0
sI4
F0.5600000000000003
sI5
F0.0
sI6
F0.0
sI7
F0.0
sI8
F0.0
sI9
F0.0
sI10
F0.5600000000000003
sg2
(g6
S'\x1a\xc9\xcf^\xb9v\xd8?'
p285
tp286
Rp287
g12
I250
tp288
a(I56
F26.401381015777588
(dp289
I1
F0.5700000000000003
sI2
F0.0
sI3
F0.0
sI4
F0.5700000000000003
sI5
F0.0
sI6
F0.0
sI7
F0.0
sI8
F0.0
sI9
F0.0
sI10
F0.5700000000000003
sg2
(g6
S'\xa0\x15H\x08H\xce\xd8?'
p290
tp291
Rp292
g12
I250
tp293
a(I57
F26.85585117340088
(dp294
I1
F0.5800000000000003
sI2
F0.0
sI3
F0.0
sI4
F0.5800000000000003
sI5
F0.0
sI6
F0.0
sI7
F0.0
sI8
F0.0
sI9
F0.0
sI10
F0.5800000000000003
sg2
(g6
S'&\xd2\x99\xfd.%\xd9?'
p295
tp296
Rp297
g12
I250
tp298
a(I58
F27.31251096725464
(dp299
I1
F0.5900000000000003
sI2
F0.0
sI3
F0.0
sI4
F0.5900000000000003
sI5
F0.0
sI6
F0.0
sI7
F0.0
sI8
F0.0
sI9
F0.0
sI10
F0.5900000000000003
sg2
(g6
S'\xf5\x04\xa9\xd9p{\xd9?'
p300
tp301
Rp302
g12
I250
tp303
a(I59
F27.769782066345215
(dp304
I1
F0.6000000000000003
sI2
F0.0
sI3
F0.0
sI4
F0.6000000000000003
sI5
F0.0
sI6
F0.0
sI7
F0.0
sI8
F0.0
sI9
F0.0
sI10
F0.6000000000000003
sg2
(g6
S'X\xb4Y7\x10\xd1\xd9?'
p305
tp306
Rp307
g12
I250
tp308
a(I60
F28.234528064727783
(dp309
I1
F0.6100000000000003
sI2
F0.0
sI3
F0.0
sI4
F0.6100000000000003
sI5
F0.0
sI6
F0.0
sI7
F0.0
sI8
F0.0
sI9
F0.0
sI10
F0.6100000000000003
sg2
(g6
S'\x94\xe6\x8f\xb1\x0f&\xda?'
p310
tp311
Rp312
g12
I250
tp313
a(I61
F28.694623947143555
(dp314
I1
F0.6200000000000003
sI2
F0.0
sI3
F0.0
sI4
F0.6200000000000003
sI5
F0.0
sI6
F0.0
sI7
F0.0
sI8
F0.0
sI9
F0.0
sI10
F0.6200000000000003
sg2
(g6
S'\xf4\xa1/\xe3qz\xda?'
p315
tp316
Rp317
g12
I250
tp318
a(I62
F29.15553617477417
(dp319
I1
F0.6300000000000003
sI2
F0.0
sI3
F0.0
sI4
F0.6300000000000003
sI5
F0.0
sI6
F0.0
sI7
F0.0
sI8
F0.0
sI9
F0.0
sI10
F0.6300000000000003
sg2
(g6
S'\xbf\xec\x1cg9\xce\xda?'
p320
tp321
Rp322
g12
I250
tp323
a(I63
F29.611427068710327
(dp324
I1
F0.6400000000000003
sI2
F0.0
sI3
F0.0
sI4
F0.6400000000000003
sI5
F0.0
sI6
F0.0
sI7
F0.0
sI8
F0.0
sI9
F0.0
sI10
F0.6400000000000003
sg2
(g6
S'?\xcd;\xd8h!\xdb?'
p325
tp326
Rp327
g12
I250
tp328
a(I64
F30.066779136657715
(dp329
I1
F0.6500000000000004
sI2
F0.0
sI3
F0.0
sI4
F0.6500000000000004
sI5
F0.0
sI6
F0.0
sI7
F0.0
sI8
F0.0
sI9
F0.0
sI10
F0.6500000000000004
sg2
(g6
S'\xbcIp\xd1\x02t\xdb?'
p330
tp331
Rp332
g12
I250
tp333
a(I65
F30.521615028381348
(dp334
I1
F0.6600000000000004
sI2
F0.0
sI3
F0.0
sI4
F0.6600000000000004
sI5
F0.0
sI6
F0.0
sI7
F0.0
sI8
F0.0
sI9
F0.0
sI10
F0.6600000000000004
sg2
(g6
S'~h\x9e\xed\t\xc6\xdb?'
p335
tp336
Rp337
g12
I250
tp338
a(I66
F30.976943969726562
(dp339
I1
F0.6700000000000004
sI2
F0.0
sI3
F0.0
sI4
F0.6700000000000004
sI5
F0.0
sI6
F0.0
sI7
F0.0
sI8
F0.0
sI9
F0.0
sI10
F0.6700000000000004
sg2
(g6
S'\xce/\xaa\xc7\x80\x17\xdc?'
p340
tp341
Rp342
g12
I250
tp343
a(I67
F31.434051036834717
(dp344
I1
F0.6800000000000004
sI2
F0.0
sI3
F0.0
sI4
F0.6800000000000004
sI5
F0.0
sI6
F0.0
sI7
F0.0
sI8
F0.0
sI9
F0.0
sI10
F0.6800000000000004
sg2
(g6
S'\xf4\xa5w\xfaih\xdc?'
p345
tp346
Rp347
g12
I250
tp348
a(I68
F31.89534902572632
(dp349
I1
F0.6900000000000004
sI2
F0.0
sI3
F0.0
sI4
F0.6900000000000004
sI5
F0.0
sI6
F0.0
sI7
F0.0
sI8
F0.0
sI9
F0.0
sI10
F0.6900000000000004
sg2
(g6
S'9\xd1\xea \xc8\xb8\xdc?'
p350
tp351
Rp352
g12
I250
tp353
a(I69
F32.353317975997925
(dp354
I1
F0.7000000000000004
sI2
F0.0
sI3
F0.0
sI4
F0.7000000000000004
sI5
F0.0
sI6
F0.0
sI7
F0.0
sI8
F0.0
sI9
F0.0
sI10
F0.7000000000000004
sg2
(g6
S'\xe6\xb7\xe7\xd5\x9d\x08\xdd?'
p355
tp356
Rp357
g12
I250
tp358
a(I70
F32.811532974243164
(dp359
I1
F0.7100000000000004
sI2
F0.0
sI3
F0.0
sI4
F0.7100000000000004
sI5
F0.0
sI6
F0.0
sI7
F0.0
sI8
F0.0
sI9
F0.0
sI10
F0.7100000000000004
sg2
(g6
S'A`R\xb4\xedW\xdd?'
p360
tp361
Rp362
g12
I250
tp363
a(I71
F33.26469898223877
(dp364
I1
F0.7200000000000004
sI2
F0.0
sI3
F0.0
sI4
F0.7200000000000004
sI5
F0.0
sI6
F0.0
sI7
F0.0
sI8
F0.0
sI9
F0.0
sI10
F0.7200000000000004
sg2
(g6
S'\x96\xd0\x0eW\xba\xa6\xdd?'
p365
tp366
Rp367
g12
I250
tp368
a(I72
F33.72371196746826
(dp369
I1
F0.7300000000000004
sI2
F0.0
sI3
F0.0
sI4
F0.7300000000000004
sI5
F0.0
sI6
F0.0
sI7
F0.0
sI8
F0.0
sI9
F0.0
sI10
F0.7300000000000004
sg2
(g6
S'*\x0f\x01Y\x06\xf5\xdd?'
p370
tp371
Rp372
g12
I250
tp373
a(I73
F34.180761098861694
(dp374
I1
F0.7400000000000004
sI2
F0.0
sI3
F0.0
sI4
F0.7400000000000004
sI5
F0.0
sI6
F0.0
sI7
F0.0
sI8
F0.0
sI9
F0.0
sI10
F0.7400000000000004
sg2
(g6
S'H"\rU\xd4B\xde?'
p375
tp376
Rp377
g12
I250
tp378
a(I74
F34.6366651058197
(dp379
I1
F0.7500000000000004
sI2
F0.0
sI3
F0.0
sI4
F0.7500000000000004
sI5
F0.0
sI6
F0.0
sI7
F0.0
sI8
F0.0
sI9
F0.0
sI10
F0.7500000000000004
sg2
(g6
S':\x10\x17\xe6&\x90\xde?'
p380
tp381
Rp382
g12
I250
tp383
a(I75
F35.089991092681885
(dp384
I1
F0.7600000000000005
sI2
F0.0
sI3
F0.0
sI4
F0.7600000000000005
sI5
F0.0
sI6
F0.0
sI7
F0.0
sI8
F0.0
sI9
F0.0
sI10
F0.7600000000000005
sg2
(g6
S'D\xdf\x02\xa7\x00\xdd\xde?'
p385
tp386
Rp387
g12
I250
tp388
a(I76
F35.548545122146606
(dp389
I1
F0.7700000000000005
sI2
F0.0
sI3
F0.0
sI4
F0.7700000000000005
sI5
F0.0
sI6
F0.0
sI7
F0.0
sI8
F0.0
sI9
F0.0
sI10
F0.7700000000000005
sg2
(g6
S'\xb1\x95\xb42d)\xdf?'
p390
tp391
Rp392
g12
I250
tp393
a(I77
F36.00378108024597
(dp394
I1
F0.7800000000000005
sI2
F0.0
sI3
F0.0
sI4
F0.7800000000000005
sI5
F0.0
sI6
F0.0
sI7
F0.0
sI8
F0.0
sI9
F0.0
sI10
F0.7800000000000005
sg2
(g6
S'\xcb9\x10$Tu\xdf?'
p395
tp396
Rp397
g12
I250
tp398
a(I78
F36.462252140045166
(dp399
I1
F0.7900000000000005
sI2
F0.0
sI3
F0.0
sI4
F0.7900000000000005
sI5
F0.0
sI6
F0.0
sI7
F0.0
sI8
F0.0
sI9
F0.0
sI10
F0.7900000000000005
sg2
(g6
S'\xd7\xd1\xf9\x15\xd3\xc0\xdf?'
p400
tp401
Rp402
g12
I250
tp403
a(I79
F36.91753005981445
(dp404
I1
F0.8000000000000005
sI2
F0.0
sI3
F0.0
sI4
F0.8000000000000005
sI5
F0.0
sI6
F0.0
sI7
F0.0
sI8
F0.0
sI9
F0.0
sI10
F0.8000000000000005
sg2
(g6
S'\x10\xb2\xaa\xd1\xf1\x05\xe0?'
p405
tp406
Rp407
g12
I250
tp408
a(I80
F37.37982702255249
(dp409
I1
F0.8100000000000005
sI2
F0.0
sI3
F0.0
sI4
F0.8100000000000005
sI5
F0.0
sI6
F0.0
sI7
F0.0
sI8
F0.0
sI9
F0.0
sI10
F0.8100000000000005
sg2
(g6
S'v{\x833D+\xe0?'
p410
tp411
Rp412
g12
I250
tp413
a(I81
F37.83760094642639
(dp414
I1
F0.8200000000000005
sI2
F0.0
sI3
F0.0
sI4
F0.8200000000000005
sI5
F0.0
sI6
F0.0
sI7
F0.0
sI8
F0.0
sI9
F0.0
sI10
F0.8200000000000005
sg2
(g6
S'DH\xf9\xfdaP\xe0?'
p415
tp416
Rp417
g12
I250
tp418
a(I82
F38.2957661151886
(dp419
I1
F0.8300000000000005
sI2
F0.0
sI3
F0.0
sI4
F0.8300000000000005
sI5
F0.0
sI6
F0.0
sI7
F0.0
sI8
F0.0
sI9
F0.0
sI10
F0.8300000000000005
sg2
(g6
S'\x9d\x1b~~Lu\xe0?'
p420
tp421
Rp422
g12
I250
tp423
a(I83
F38.75901699066162
(dp424
I1
F0.8400000000000005
sI2
F0.0
sI3
F0.0
sI4
F0.8400000000000005
sI5
F0.0
sI6
F0.0
sI7
F0.0
sI8
F0.0
sI9
F0.0
sI10
F0.8400000000000005
sg2
(g6
S'\xa5\xf8\x83\x02\x05\x9a\xe0?'
p425
tp426
Rp427
g12
I250
tp428
a(I84
F39.218223094940186
(dp429
I1
F0.8500000000000005
sI2
F0.0
sI3
F0.0
sI4
F0.8500000000000005
sI5
F0.0
sI6
F0.0
sI7
F0.0
sI8
F0.0
sI9
F0.0
sI10
F0.8500000000000005
sg2
(g6
S'\x81\xe2|\xd7\x8c\xbe\xe0?'
p430
tp431
Rp432
g12
I250
tp433
a(I85
F39.67419195175171
(dp434
I1
F0.8600000000000005
sI2
F0.0
sI3
F0.0
sI4
F0.8600000000000005
sI5
F0.0
sI6
F0.0
sI7
F0.0
sI8
F0.0
sI9
F0.0
sI10
F0.8600000000000005
sg2
(g6
S'S\xdc\xdaJ\xe5\xe2\xe0?'
p435
tp436
Rp437
g12
I250
tp438
a(I86
F40.13173198699951
(dp439
I1
F0.8700000000000006
sI2
F0.0
sI3
F0.0
sI4
F0.8700000000000006
sI5
F0.0
sI6
F0.0
sI7
F0.0
sI8
F0.0
sI9
F0.0
sI10
F0.8700000000000006
sg2
(g6
S'B\xe9\x0f\xaa\x0f\x07\xe1?'
p440
tp441
Rp442
g12
I250
tp443
a(I87
F40.58549404144287
(dp444
I1
F0.8800000000000006
sI2
F0.0
sI3
F0.0
sI4
F0.8800000000000006
sI5
F0.0
sI6
F0.0
sI7
F0.0
sI8
F0.0
sI9
F0.0
sI10
F0.8800000000000006
sg2
(g6
S'r\x0c\x8eB\r+\xe1?'
p445
tp446
Rp447
g12
I250
tp448
a(I88
F41.046324014663696
(dp449
I1
F0.8900000000000006
sI2
F0.0
sI3
F0.0
sI4
F0.8900000000000006
sI5
F0.0
sI6
F0.0
sI7
F0.0
sI8
F0.0
sI9
F0.0
sI10
F0.8900000000000006
sg2
(g6
S'\x05I\xc7a\xdfN\xe1?'
p450
tp451
Rp452
g12
I250
tp453
a(I89
F41.50439810752869
(dp454
I1
F0.9000000000000006
sI2
F0.0
sI3
F0.0
sI4
F0.9000000000000006
sI5
F0.0
sI6
F0.0
sI7
F0.0
sI8
F0.0
sI9
F0.0
sI10
F0.9000000000000006
sg2
(g6
S'"\xa2-U\x87r\xe1?'
p455
tp456
Rp457
g12
I250
tp458
a(I90
F41.96300411224365
(dp459
I1
F0.9100000000000006
sI2
F0.0
sI3
F0.0
sI4
F0.9100000000000006
sI5
F0.0
sI6
F0.0
sI7
F0.0
sI8
F0.0
sI9
F0.0
sI10
F0.9100000000000006
sg2
(g6
S'\xec\x1a3j\x06\x96\xe1?'
p460
tp461
Rp462
g12
I250
tp463
a(I91
F42.436761140823364
(dp464
I1
F0.9200000000000006
sI2
F0.0
sI3
F0.0
sI4
F0.9200000000000006
sI5
F0.0
sI6
F0.0
sI7
F0.0
sI8
F0.0
sI9
F0.0
sI10
F0.9200000000000006
sg2
(g6
S'\x86\xb6I\xee]\xb9\xe1?'
p465
tp466
Rp467
g12
I250
tp468
a(I92
F42.915518045425415
(dp469
I1
F0.9300000000000006
sI2
F0.0
sI3
F0.0
sI4
F0.9300000000000006
sI5
F0.0
sI6
F0.0
sI7
F0.0
sI8
F0.0
sI9
F0.0
sI10
F0.9300000000000006
sg2
(g6
S'\x17x\xe3.\x8f\xdc\xe1?'
p470
tp471
Rp472
g12
I250
tp473
a(I93
F43.38453817367554
(dp474
I1
F0.9400000000000006
sI2
F0.0
sI3
F0.0
sI4
F0.9400000000000006
sI5
F0.0
sI6
F0.0
sI7
F0.0
sI8
F0.0
sI9
F0.0
sI10
F0.9400000000000006
sg2
(g6
S'\xc0bry\x9b\xff\xe1?'
p475
tp476
Rp477
g12
I250
tp478
a(I94
F43.852219104766846
(dp479
I1
F0.9500000000000006
sI2
F0.0
sI3
F0.0
sI4
F0.9500000000000006
sI5
F0.0
sI6
F0.0
sI7
F0.0
sI8
F0.0
sI9
F0.0
sI10
F0.9500000000000006
sg2
(g6
S'\xa8yh\x1b\x84"\xe2?'
p480
tp481
Rp482
g12
I250
tp483
a(I95
F44.307039976119995
(dp484
I1
F0.9600000000000006
sI2
F0.0
sI3
F0.0
sI4
F0.9600000000000006
sI5
F0.0
sI6
F0.0
sI7
F0.0
sI8
F0.0
sI9
F0.0
sI10
F0.9600000000000006
sg2
(g6
S'\xf3\xbf7bJE\xe2?'
p485
tp486
Rp487
g12
I250
tp488
a(I96
F44.764796018600464
(dp489
I1
F0.9700000000000006
sI2
F0.0
sI3
F0.0
sI4
F0.9700000000000006
sI5
F0.0
sI6
F0.0
sI7
F0.0
sI8
F0.0
sI9
F0.0
sI10
F0.9700000000000006
sg2
(g6
S'\xc38R\x9b\xefg\xe2?'
p490
tp491
Rp492
g12
I250
tp493
a(I97
F45.221161127090454
(dp494
I1
F0.9800000000000006
sI2
F0.0
sI3
F0.0
sI4
F0.9800000000000006
sI5
F0.0
sI6
F0.0
sI7
F0.0
sI8
F0.0
sI9
F0.0
sI10
F0.9800000000000006
sg2
(g6
S'>\xe7)\x14u\x8a\xe2?'
p495
tp496
Rp497
g12
I250
tp498
a(I98
F45.679656982421875
(dp499
I1
F0.9900000000000007
sI2
F0.0
sI3
F0.0
sI4
F0.9900000000000007
sI5
F0.0
sI6
F0.0
sI7
F0.0
sI8
F0.0
sI9
F0.0
sI10
F0.9900000000000007
sg2
(g6
S'\x88\xce0\x1a\xdc\xac\xe2?'
p500
tp501
Rp502
g12
I250
tp503
a(I99
F46.135350942611694
(dp504
I1
F1.0000000000000007
sI2
F0.0
sI3
F0.0
sI4
F1.0000000000000007
sI5
F0.0
sI6
F0.0
sI7
F0.0
sI8
F0.0
sI9
F0.0
sI10
F1.0000000000000007
sg2
(g6
S'\xc8\xf1\xd8\xfa%\xcf\xe2?'
p505
tp506
Rp507
g12
I250
tp508
a.