(lp0
((dp1
I7425
F0.0
sI1667
F0.6900000000000004
sI646
F0.0
sI3848
F1.0000000000000007
sI651
F0.0
sI2702
F0.0
sI493
F0.0
sI2064
F0.0
sI280
F0.0
sI146
F0.0
sI771
F0.0
sI662
F0.0
sI2967
F0.0
sI664
F0.0
sI28
F0.0
sI32
F0.0
sI767
F0.0
sI35
F0.0
sI1060
F0.0
sI1833
F0.0
sI45
F0.0
sI564
F0.0
sI1718
F0.0
sI1847
F0.0
sI825
F1.0000000000000007
sI1594
F0.0
sI1725
F0.0
sI2116
F0.0
sI1223
F0.0
sI1634
F0.0
sI591
F0.0
sI3922
F0.0
sI547
F0.0
sI1624
F0.0
sI1499
F0.0
sI71392
F0.0
sI1377
F0.0
sI738
F0.0
sI2277
F0.3100000000000001
sI5222
F0.0
sI5225
F0.0
sI1170
F0.0
sI5230
F0.0
sI1394
F0.0
sI630
F0.0
sI120
F0.0
sI635
F0.0
sI764
F0.0
sI638
F0.0
sI1407
F0.0
scnumpy.core.multiarray
scalar
p2
(cnumpy
dtype
p3
(S'f8'
p4
I0
I1
tp5
Rp6
(I3
S'<'
p7
NNNI-1
I-1
I0
tp8
bS'n\xc3\x12\xd0\x03R\xd3?'
p9
tp10
Rp11
F5.395395040512085
I100
S'polynomial'
p12
I1
F0.5
tp13
a((dp14
I7425
F0.0
sI1667
F0.7100000000000004
sI646
F0.0
sI3848
F0.49000000000000027
sI651
F0.0
sI2702
F0.0
sI2064
F0.0
sI280
F0.0
sI146
F0.0
sI771
F0.0
sI662
F0.0
sI2967
F0.0
sI664
F0.0
sI28
F0.0
sI32
F0.0
sI1407
F0.0
sI35
F0.0
sI1060
F0.0
sI1833
F0.0
sI45
F0.0
sI564
F0.0
sI1718
F0.0
sI1847
F0.0
sI825
F1.0000000000000007
sI1594
F0.0
sI1725
F0.0
sI2116
F0.0
sI1170
F0.0
sI1223
F0.0
sI738
F0.5100000000000002
sI591
F0.0
sI3922
F0.0
sI547
F0.0
sI1624
F0.0
sI1499
F0.0
sI71392
F0.0
sI1377
F0.0
sI1634
F0.0
sI2277
F0.2800000000000001
sI5222
F0.0
sI5225
F0.0
sI493
F0.01
sI5230
F0.0
sI1394
F0.0
sI630
F0.0
sI120
F0.0
sI635
F0.0
sI764
F0.0
sI638
F0.0
sI767
F0.0
sg2
(g6
S'bS\xcb5\xbcL\xd2?'
p15
tp16
Rp17
F105.6314640045166
I100
S'polynomial'
p18
I2
F0.5
tp19
a((dp20
I7425
F0.0
sI1667
F0.7000000000000004
sI646
F0.0
sI3848
F0.47000000000000025
sI651
F0.0
sI2702
F0.0
sI493
F0.03
sI2064
F0.0
sI280
F0.0
sI146
F0.0
sI771
F0.0
sI662
F0.0
sI2967
F0.0
sI664
F0.0
sI28
F0.0
sI32
F0.0
sI767
F0.0
sI35
F0.0
sI1060
F0.0
sI1833
F0.0
sI45
F0.0
sI564
F0.0
sI1718
F0.0
sI1847
F0.0
sI825
F1.0000000000000007
sI1594
F0.0
sI1725
F0.0
sI2116
F0.0
sI1223
F0.0
sI1634
F0.0
sI591
F0.0
sI3922
F0.0
sI547
F0.0
sI1624
F0.0
sI1499
F0.0
sI71392
F0.0
sI1377
F0.0
sI738
F0.5300000000000002
sI2277
F0.2700000000000001
sI5222
F0.0
sI5225
F0.0
sI1170
F0.0
sI5230
F0.0
sI1394
F0.0
sI630
F0.0
sI120
F0.0
sI635
F0.0
sI764
F0.0
sI638
F0.0
sI1407
F0.0
sg2
(g6
S'Q\x9eR]GC\xd2?'
p21
tp22
Rp23
F1370.686795949936
I100
S'polynomial'
p24
I3
F0.5
tp25
a.