(lp0
((dp1
I1
F1.0000000000000007
sI2
F0.0
sI3
F0.0
sI4
F1.0000000000000007
sI5
F0.0
sI6
F0.0
sI7
F0.0
sI8
F0.0
sI9
F0.0
sI10
F1.0000000000000007
scnumpy.core.multiarray
scalar
p2
(cnumpy
dtype
p3
(S'f8'
p4
I0
I1
tp5
Rp6
(I3
S'<'
p7
NNNI-1
I-1
I0
tp8
bS'\xc8\xf1\xd8\xfa%\xcf\xe2?'
p9
tp10
Rp11
F0.31708407402038574
I100
S'polynomial'
p12
I1
F0.5
tp13
a((dp14
I1
F1.0000000000000007
sI2
F0.0
sI3
F0.0
sI4
F1.0000000000000007
sI5
F0.0
sI6
F0.0
sI7
F0.0
sI8
F0.0
sI9
F0.0
sI10
F1.0000000000000007
sg2
(g6
S'\xc8\xf1\xd8\xfa%\xcf\xe2?'
p15
tp16
Rp17
F1.2505829334259033
I100
S'polynomial'
p18
I2
F0.5
tp19
a((dp20
I1
F1.0000000000000007
sI2
F0.0
sI3
F0.0
sI4
F1.0000000000000007
sI5
F0.0
sI6
F0.0
sI7
F0.0
sI8
F0.0
sI9
F0.0
sI10
F1.0000000000000007
sg2
(g6
S'\xc8\xf1\xd8\xfa%\xcf\xe2?'
p21
tp22
Rp23
F2.7804629802703857
I100
S'polynomial'
p24
I3
F0.5
tp25
a((dp26
I1
F1.0000000000000007
sI2
F0.0
sI3
F0.0
sI4
F1.0000000000000007
sI5
F0.0
sI6
F0.0
sI7
F0.0
sI8
F0.0
sI9
F0.0
sI10
F1.0000000000000007
sg2
(g6
S'\xc8\xf1\xd8\xfa%\xcf\xe2?'
p27
tp28
Rp29
F3.809779167175293
I100
S'polynomial'
p30
I4
F0.5
tp31
a((dp32
I1
F1.0000000000000007
sI2
F0.0
sI3
F0.0
sI4
F1.0000000000000007
sI5
F0.0
sI6
F0.0
sI7
F0.0
sI8
F0.0
sI9
F0.0
sI10
F1.0000000000000007
sg2
(g6
S'\xc8\xf1\xd8\xfa%\xcf\xe2?'
p33
tp34
Rp35
F4.151371002197266
I100
S'polynomial'
p36
I5
F0.5
tp37
a.