(lp0
(I0
F0.1875169277191162
(dp1
I1
F0.01
sI2
F0.01
sI3
F0.0
sI4
F0.01
sI5
F0.0
sI6
F0.01
sI7
F0.0
sI8
F0.0
sI9
F0.0
sI10
F0.01
scnumpy.core.multiarray
scalar
p2
(cnumpy
dtype
p3
(S'f8'
p4
I0
I1
tp5
Rp6
(I3
S'<'
p7
NNNI-1
I-1
I0
tp8
bS'\x00\xb6X\xa6J\xd8\x88?'
p9
tp10
Rp11
S'sampler'
p12
I50
tp13
a(I1
F0.37110400199890137
(dp14
I1
F0.02
sI2
F0.01
sI3
F0.0
sI4
F0.02
sI5
F0.0
sI6
F0.02
sI7
F0.01
sI8
F0.0
sI9
F0.0
sI10
F0.02
sg2
(g6
S't\xd8\x9c\xf2\xe4\xa7\x98?'
p15
tp16
Rp17
g12
I50
tp18
a(I2
F0.5523619651794434
(dp19
I1
F0.03
sI2
F0.01
sI3
F0.0
sI4
F0.03
sI5
F0.0
sI6
F0.03
sI7
F0.02
sI8
F0.0
sI9
F0.0
sI10
F0.03
sg2
(g6
S'\xf4Gz;jZ\xa2?'
p20
tp21
Rp22
g12
I50
tp23
a(I3
F0.7349309921264648
(dp24
I1
F0.04
sI2
F0.02
sI3
F0.0
sI4
F0.04
sI5
F0.0
sI6
F0.03
sI7
F0.03
sI8
F0.0
sI9
F0.0
sI10
F0.04
sg2
(g6
S'\xb8\xf5\x92\x8fFG\xa8?'
p25
tp26
Rp27
g12
I50
tp28
a(I4
F0.9187939167022705
(dp29
I1
F0.05
sI2
F0.03
sI3
F0.0
sI4
F0.05
sI5
F0.0
sI6
F0.03
sI7
F0.04
sI8
F0.0
sI9
F0.0
sI10
F0.05
sg2
(g6
S'\xe3\xafU*\x98\x1d\xae?'
p30
tp31
Rp32
g12
I50
tp33
a(I5
F1.1018998622894287
(dp34
I1
F0.060000000000000005
sI2
F0.03
sI3
F0.0
sI4
F0.060000000000000005
sI5
F0.0
sI6
F0.04
sI7
F0.05
sI8
F0.0
sI9
F0.0
sI10
F0.060000000000000005
sg2
(g6
S'\xd2\xc3w\xdf\x12\xef\xb1?'
p35
tp36
Rp37
g12
I50
tp38
a(I6
F1.2862460613250732
(dp39
I1
F0.07
sI2
F0.03
sI3
F0.0
sI4
F0.07
sI5
F0.0
sI6
F0.05
sI7
F0.060000000000000005
sI8
F0.0
sI9
F0.0
sI10
F0.07
sg2
(g6
S'\x9e9\x03\r\x8a\xc4\xb4?'
p40
tp41
Rp42
g12
I50
tp43
a(I7
F1.4699420928955078
(dp44
I1
F0.08
sI2
F0.03
sI3
F0.0
sI4
F0.08
sI5
F0.0
sI6
F0.060000000000000005
sI7
F0.07
sI8
F0.0
sI9
F0.0
sI10
F0.08
sg2
(g6
S'{\xc3a\xc8c\x8f\xb7?'
p45
tp46
Rp47
g12
I50
tp48
a(I8
F1.6538050174713135
(dp49
I1
F0.09
sI2
F0.03
sI3
F0.0
sI4
F0.09
sI5
F0.0
sI6
F0.07
sI7
F0.08
sI8
F0.0
sI9
F0.0
sI10
F0.09
sg2
(g6
S'c\x0b\xfe\x96\xd1O\xba?'
p50
tp51
Rp52
g12
I50
tp53
a(I9
F1.8369700908660889
(dp54
I1
F0.09999999999999999
sI2
F0.03
sI3
F0.0
sI4
F0.09999999999999999
sI5
F0.0
sI6
F0.08
sI7
F0.09
sI8
F0.0
sI9
F0.0
sI10
F0.09999999999999999
sg2
(g6
S'K\x19\xebY\x04\x06\xbd?'
p55
tp56
Rp57
g12
I50
tp58
a(I10
F2.0200939178466797
(dp59
I1
F0.10999999999999999
sI2
F0.03
sI3
F0.0
sI4
F0.10999999999999999
sI5
F0.0
sI6
F0.09
sI7
F0.09999999999999999
sI8
F0.0
sI9
F0.0
sI10
F0.10999999999999999
sg2
(g6
S'\xc2\x90\xb6N,\xb2\xbf?'
p60
tp61
Rp62
g12
I50
tp63
a(I11
F2.2035529613494873
(dp64
I1
F0.11999999999999998
sI2
F0.03
sI3
F0.0
sI4
F0.11999999999999998
sI5
F0.0
sI6
F0.09999999999999999
sI7
F0.10999999999999999
sI8
F0.0
sI9
F0.0
sI10
F0.11999999999999998
sg2
(g6
S'\x9fw\x1d\x88<*\xc1?'
p65
tp66
Rp67
g12
I50
tp68
a(I12
F2.3880419731140137
(dp69
I1
F0.12999999999999998
sI2
F0.03
sI3
F0.0
sI4
F0.12999999999999998
sI5
F0.0
sI6
F0.10999999999999999
sI7
F0.11999999999999998
sI8
F0.0
sI9
F0.0
sI10
F0.12999999999999998
sg2
(g6
S'\xd3\xe4\xb8\xcb\x8cv\xc2?'
p70
tp71
Rp72
g12
I50
tp73
a(I13
F2.5710408687591553
(dp74
I1
F0.13999999999999999
sI2
F0.03
sI3
F0.0
sI4
F0.13999999999999999
sI5
F0.0
sI6
F0.11999999999999998
sI7
F0.12999999999999998
sI8
F0.0
sI9
F0.0
sI10
F0.13999999999999999
sg2
(g6
S'G\x05#\x1e\x1e\xbe\xc3?'
p75
tp76
Rp77
g12
I50
tp78
a(I14
F2.7544219493865967
(dp79
I1
F0.15
sI2
F0.03
sI3
F0.0
sI4
F0.15
sI5
F0.0
sI6
F0.12999999999999998
sI7
F0.13999999999999999
sI8
F0.0
sI9
F0.0
sI10
F0.15
sg2
(g6
S'\xe9\x173[\x07\x01\xc5?'
p80
tp81
Rp82
g12
I50
tp83
a(I15
F2.9369940757751465
(dp84
I1
F0.16
sI2
F0.04
sI3
F0.0
sI4
F0.16
sI5
F0.0
sI6
F0.12999999999999998
sI7
F0.15
sI8
F0.0
sI9
F0.0
sI10
F0.16
sg2
(g6
S'\xa0\xc1\xdd\r5=\xc6?'
p85
tp86
Rp87
g12
I50
tp88
a(I16
F3.1207709312438965
(dp89
I1
F0.17
sI2
F0.05
sI3
F0.0
sI4
F0.17
sI5
F0.0
sI6
F0.12999999999999998
sI7
F0.16
sI8
F0.0
sI9
F0.0
sI10
F0.17
sg2
(g6
S'S\x8b\xeb\xf5\x06u\xc7?'
p90
tp91
Rp92
g12
I50
tp93
a(I17
F3.303931951522827
(dp94
I1
F0.18000000000000002
sI2
F0.060000000000000005
sI3
F0.0
sI4
F0.18000000000000002
sI5
F0.0
sI6
F0.12999999999999998
sI7
F0.17
sI8
F0.0
sI9
F0.0
sI10
F0.18000000000000002
sg2
(g6
S'l\x05\x0e\xee\x91\xa8\xc8?'
p95
tp96
Rp97
g12
I50
tp98
a(I18
F3.487783908843994
(dp99
I1
F0.19000000000000003
sI2
F0.060000000000000005
sI3
F0.0
sI4
F0.19000000000000003
sI5
F0.0
sI6
F0.13999999999999999
sI7
F0.18000000000000002
sI8
F0.0
sI9
F0.0
sI10
F0.19000000000000003
sg2
(g6
S'o\x16+$`\xd9\xc9?'
p100
tp101
Rp102
g12
I50
tp103
a(I19
F3.6695709228515625
(dp104
I1
F0.20000000000000004
sI2
F0.060000000000000005
sI3
F0.0
sI4
F0.20000000000000004
sI5
F0.0
sI6
F0.15
sI7
F0.19000000000000003
sI8
F0.0
sI9
F0.0
sI10
F0.20000000000000004
sg2
(g6
S'\xf3#\xa4\xf4\xfc\x05\xcb?'
p105
tp106
Rp107
g12
I50
tp108
a(I20
F3.8517940044403076
(dp109
I1
F0.21000000000000005
sI2
F0.07
sI3
F0.0
sI4
F0.21000000000000005
sI5
F0.0
sI6
F0.15
sI7
F0.20000000000000004
sI8
F0.0
sI9
F0.0
sI10
F0.21000000000000005
sg2
(g6
S'\xb6\xb1a\xa9\xc7,\xcc?'
p110
tp111
Rp112
g12
I50
tp113
a(I21
F4.034798860549927
(dp114
I1
F0.22000000000000006
sI2
F0.08
sI3
F0.0
sI4
F0.22000000000000006
sI5
F0.0
sI6
F0.15
sI7
F0.21000000000000005
sI8
F0.0
sI9
F0.0
sI10
F0.22000000000000006
sg2
(g6
S'\x9b\xe7o\xcb\xa2O\xcd?'
p115
tp116
Rp117
g12
I50
tp118
a(I22
F4.216376066207886
(dp119
I1
F0.23000000000000007
sI2
F0.09
sI3
F0.0
sI4
F0.23000000000000007
sI5
F0.0
sI6
F0.15
sI7
F0.22000000000000006
sI8
F0.0
sI9
F0.0
sI10
F0.23000000000000007
sg2
(g6
S'7\x1a\xb1\x89\xa1n\xce?'
p120
tp121
Rp122
g12
I50
tp123
a(I23
F4.399030923843384
(dp124
I1
F0.24000000000000007
sI2
F0.09999999999999999
sI3
F0.0
sI4
F0.24000000000000007
sI5
F0.0
sI6
F0.15
sI7
F0.23000000000000007
sI8
F0.0
sI9
F0.0
sI10
F0.24000000000000007
sg2
(g6
S'\x826|\xcd\xd6\x89\xcf?'
p125
tp126
Rp127
g12
I50
tp128
a(I24
F4.582628011703491
(dp129
I1
F0.25000000000000006
sI2
F0.09999999999999999
sI3
F0.0
sI4
F0.25000000000000006
sI5
F0.0
sI6
F0.16
sI7
F0.24000000000000007
sI8
F0.0
sI9
F0.0
sI10
F0.25000000000000006
sg2
(g6
S'\xd2pi\xab&Q\xd0?'
p130
tp131
Rp132
g12
I50
tp133
a(I25
F4.765861988067627
(dp134
I1
F0.26000000000000006
sI2
F0.10999999999999999
sI3
F0.0
sI4
F0.26000000000000006
sI5
F0.0
sI6
F0.16
sI7
F0.25000000000000006
sI8
F0.0
sI9
F0.0
sI10
F0.26000000000000006
sg2
(g6
S'\xd7\xae\x87\xe7\xff\xda\xd0?'
p135
tp136
Rp137
g12
I50
tp138
a(I26
F4.948807954788208
(dp139
I1
F0.2700000000000001
sI2
F0.11999999999999998
sI3
F0.0
sI4
F0.2700000000000001
sI5
F0.0
sI6
F0.16
sI7
F0.26000000000000006
sI8
F0.0
sI9
F0.0
sI10
F0.2700000000000001
sg2
(g6
S'\xa17\xbae\x11c\xd1?'
p140
tp141
Rp142
g12
I50
tp143
a(I27
F5.130265951156616
(dp144
I1
F0.2800000000000001
sI2
F0.11999999999999998
sI3
F0.0
sI4
F0.2800000000000001
sI5
F0.0
sI6
F0.17
sI7
F0.2700000000000001
sI8
F0.0
sI9
F0.0
sI10
F0.2800000000000001
sg2
(g6
S'*\xca\x1a<\xc8\xe9\xd1?'
p145
tp146
Rp147
g12
I50
tp148
a(I28
F5.318248987197876
(dp149
I1
F0.2900000000000001
sI2
F0.12999999999999998
sI3
F0.0
sI4
F0.2900000000000001
sI5
F0.0
sI6
F0.17
sI7
F0.2800000000000001
sI8
F0.0
sI9
F0.0
sI10
F0.2900000000000001
sg2
(g6
S'\xb0\x9f\xd9\xc5Sn\xd2?'
p150
tp151
Rp152
g12
I50
tp153
a(I29
F5.503767967224121
(dp154
I1
F0.3000000000000001
sI2
F0.13999999999999999
sI3
F0.0
sI4
F0.3000000000000001
sI5
F0.0
sI6
F0.17
sI7
F0.2900000000000001
sI8
F0.0
sI9
F0.0
sI10
F0.3000000000000001
sg2
(g6
S'\xae\xe0\xcc\r3\xf1\xd2?'
p155
tp156
Rp157
g12
I50
tp158
a(I30
F5.698755979537964
(dp159
I1
F0.3100000000000001
sI2
F0.13999999999999999
sI3
F0.0
sI4
F0.3100000000000001
sI5
F0.0
sI6
F0.18000000000000002
sI7
F0.3000000000000001
sI8
F0.0
sI9
F0.0
sI10
F0.3100000000000001
sg2
(g6
S'\xbd\xbf\x00)\xbfr\xd3?'
p160
tp161
Rp162
g12
I50
tp163
a(I31
F5.891247987747192
(dp164
I1
F0.3200000000000001
sI2
F0.15
sI3
F0.0
sI4
F0.3200000000000001
sI5
F0.0
sI6
F0.18000000000000002
sI7
F0.3100000000000001
sI8
F0.0
sI9
F0.0
sI10
F0.3200000000000001
sg2
(g6
S'\xa3\x97\x9b\xa6P\xf2\xd3?'
p165
tp166
Rp167
g12
I50
tp168
a(I32
F6.078017950057983
(dp169
I1
F0.3300000000000001
sI2
F0.15
sI3
F0.0
sI4
F0.3300000000000001
sI5
F0.0
sI6
F0.19000000000000003
sI7
F0.3200000000000001
sI8
F0.0
sI9
F0.0
sI10
F0.3300000000000001
sg2
(g6
S'io\x82\xfc\x9dp\xd4?'
p170
tp171
Rp172
g12
I50
tp173
a(I33
F6.267229080200195
(dp174
I1
F0.34000000000000014
sI2
F0.15
sI3
F0.0
sI4
F0.34000000000000014
sI5
F0.0
sI6
F0.20000000000000004
sI7
F0.3300000000000001
sI8
F0.0
sI9
F0.0
sI10
F0.34000000000000014
sg2
(g6
S'r\xcf\x1f\x82^\xed\xd4?'
p175
tp176
Rp177
g12
I50
tp178
a(I34
F6.456355094909668
(dp179
I1
F0.35000000000000014
sI2
F0.15
sI3
F0.0
sI4
F0.35000000000000014
sI5
F0.0
sI6
F0.21000000000000005
sI7
F0.34000000000000014
sI8
F0.0
sI9
F0.0
sI10
F0.35000000000000014
sg2
(g6
S' \xb6c\x1a\x9ah\xd5?'
p180
tp181
Rp182
g12
I50
tp183
a(I35
F6.642760992050171
(dp184
I1
F0.36000000000000015
sI2
F0.16
sI3
F0.0
sI4
F0.36000000000000015
sI5
F0.0
sI6
F0.21000000000000005
sI7
F0.35000000000000014
sI8
F0.0
sI9
F0.0
sI10
F0.36000000000000015
sg2
(g6
S'\xe6;\x97\x9e\xed\xe1\xd5?'
p185
tp186
Rp187
g12
I50
tp188
a(I36
F6.827609062194824
(dp189
I1
F0.37000000000000016
sI2
F0.16
sI3
F0.0
sI4
F0.37000000000000016
sI5
F0.0
sI6
F0.22000000000000006
sI7
F0.36000000000000015
sI8
F0.0
sI9
F0.0
sI10
F0.37000000000000016
sg2
(g6
S'C\xb01\xec.Z\xd6?'
p190
tp191
Rp192
g12
I50
tp193
a(I37
F7.012127876281738
(dp194
I1
F0.38000000000000017
sI2
F0.17
sI3
F0.0
sI4
F0.38000000000000017
sI5
F0.0
sI6
F0.22000000000000006
sI7
F0.37000000000000016
sI8
F0.0
sI9
F0.0
sI10
F0.38000000000000017
sg2
(g6
S'\xe3uR\xb4\x9d\xd0\xd6?'
p195
tp196
Rp197
g12
I50
tp198
a(I38
F7.195580005645752
(dp199
I1
F0.3900000000000002
sI2
F0.18000000000000002
sI3
F0.0
sI4
F0.3900000000000002
sI5
F0.0
sI6
F0.22000000000000006
sI7
F0.38000000000000017
sI8
F0.0
sI9
F0.0
sI10
F0.3900000000000002
sg2
(g6
S'\x80\xaee\x0b\xacE\xd7?'
p200
tp201
Rp202
g12
I50
tp203
a(I39
F7.378504037857056
(dp204
I1
F0.4000000000000002
sI2
F0.18000000000000002
sI3
F0.0
sI4
F0.4000000000000002
sI5
F0.0
sI6
F0.23000000000000007
sI7
F0.3900000000000002
sI8
F0.0
sI9
F0.0
sI10
F0.4000000000000002
sg2
(g6
S'}\xfeBK\xaf\xb9\xd7?'
p205
tp206
Rp207
g12
I50
tp208
a(I40
F7.561759948730469
(dp209
I1
F0.4100000000000002
sI2
F0.18000000000000002
sI3
F0.0
sI4
F0.4100000000000002
sI5
F0.0
sI6
F0.24000000000000007
sI7
F0.4000000000000002
sI8
F0.0
sI9
F0.0
sI10
F0.4100000000000002
sg2
(g6
S'_D6\xc9\\,\xd8?'
p210
tp211
Rp212
g12
I50
tp213
a(I41
F7.744855880737305
(dp214
I1
F0.4200000000000002
sI2
F0.18000000000000002
sI3
F0.0
sI4
F0.4200000000000002
sI5
F0.0
sI6
F0.25000000000000006
sI7
F0.4100000000000002
sI8
F0.0
sI9
F0.0
sI10
F0.4200000000000002
sg2
(g6
S'Rc\xfdi\xbb\x9d\xd8?'
p215
tp216
Rp217
g12
I50
tp218
a(I42
F7.927063941955566
(dp219
I1
F0.4300000000000002
sI2
F0.19000000000000003
sI3
F0.0
sI4
F0.4300000000000002
sI5
F0.0
sI6
F0.25000000000000006
sI7
F0.4200000000000002
sI8
F0.0
sI9
F0.0
sI10
F0.4300000000000002
sg2
(g6
S'\x04\x958\x92q\r\xd9?'
p220
tp221
Rp222
g12
I50
tp223
a(I43
F8.109210968017578
(dp224
I1
F0.4400000000000002
sI2
F0.20000000000000004
sI3
F0.0
sI4
F0.4400000000000002
sI5
F0.0
sI6
F0.25000000000000006
sI7
F0.4300000000000002
sI8
F0.0
sI9
F0.0
sI10
F0.4400000000000002
sg2
(g6
S'\xf23\xdc\xdb\xeb{\xd9?'
p225
tp226
Rp227
g12
I50
tp228
a(I44
F8.292165994644165
(dp229
I1
F0.45000000000000023
sI2
F0.20000000000000004
sI3
F0.0
sI4
F0.45000000000000023
sI5
F0.0
sI6
F0.26000000000000006
sI7
F0.4400000000000002
sI8
F0.0
sI9
F0.0
sI10
F0.45000000000000023
sg2
(g6
S'\x1d\xba<\xc6}\xe9\xd9?'
p230
tp231
Rp232
g12
I50
tp233
a(I45
F8.476149082183838
(dp234
I1
F0.46000000000000024
sI2
F0.20000000000000004
sI3
F0.0
sI4
F0.46000000000000024
sI5
F0.0
sI6
F0.2700000000000001
sI7
F0.45000000000000023
sI8
F0.0
sI9
F0.0
sI10
F0.46000000000000024
sg2
(g6
S'\x16\xa2\x80\x98\xdcU\xda?'
p235
tp236
Rp237
g12
I50
tp238
a(I46
F8.659677982330322
(dp239
I1
F0.47000000000000025
sI2
F0.20000000000000004
sI3
F0.0
sI4
F0.47000000000000025
sI5
F0.0
sI6
F0.2800000000000001
sI7
F0.46000000000000024
sI8
F0.0
sI9
F0.0
sI10
F0.47000000000000025
sg2
(g6
S'EI\xb2\x8f\x0e\xc1\xda?'
p240
tp241
Rp242
g12
I50
tp243
a(I47
F8.842473030090332
(dp244
I1
F0.48000000000000026
sI2
F0.21000000000000005
sI3
F0.0
sI4
F0.48000000000000026
sI5
F0.0
sI6
F0.2800000000000001
sI7
F0.47000000000000025
sI8
F0.0
sI9
F0.0
sI10
F0.48000000000000026
sg2
(g6
S'\x8e\x91s\xdc\xc0*\xdb?'
p245
tp246
Rp247
g12
I50
tp248
a(I48
F9.02629804611206
(dp249
I1
F0.49000000000000027
sI2
F0.22000000000000006
sI3
F0.0
sI4
F0.49000000000000027
sI5
F0.0
sI6
F0.2800000000000001
sI7
F0.48000000000000026
sI8
F0.0
sI9
F0.0
sI10
F0.49000000000000027
sg2
(g6
S'}\xe9\xd9\nX\x93\xdb?'
p250
tp251
Rp252
g12
I50
tp253
a(I49
F9.209815979003906
(dp254
I1
F0.5000000000000002
sI2
F0.22000000000000006
sI3
F0.0
sI4
F0.5000000000000002
sI5
F0.0
sI6
F0.2900000000000001
sI7
F0.49000000000000027
sI8
F0.0
sI9
F0.0
sI10
F0.5000000000000002
sg2
(g6
S'\x13\x042\xe6"\xfb\xdb?'
p255
tp256
Rp257
g12
I50
tp258
a(I50
F9.393136978149414
(dp259
I1
F0.5100000000000002
sI2
F0.23000000000000007
sI3
F0.0
sI4
F0.5100000000000002
sI5
F0.0
sI6
F0.2900000000000001
sI7
F0.5000000000000002
sI8
F0.0
sI9
F0.0
sI10
F0.5100000000000002
sg2
(g6
S'\xb9]\x0b\xed\x8da\xdc?'
p260
tp261
Rp262
g12
I50
tp263
a(I51
F9.57613205909729
(dp264
I1
F0.5200000000000002
sI2
F0.23000000000000007
sI3
F0.0
sI4
F0.5200000000000002
sI5
F0.0
sI6
F0.2900000000000001
sI7
F0.5100000000000002
sI8
F0.01
sI9
F0.0
sI10
F0.5200000000000002
sg2
(g6
S':A\xb0\x84\xe8\xc5\xdc?'
p265
tp266
Rp267
g12
I50
tp268
a(I52
F9.76005506515503
(dp269
I1
F0.5300000000000002
sI2
F0.23000000000000007
sI3
F0.0
sI4
F0.5300000000000002
sI5
F0.0
sI6
F0.3000000000000001
sI7
F0.5200000000000002
sI8
F0.01
sI9
F0.0
sI10
F0.5300000000000002
sg2
(g6
S'\x9e\xeb\n\xab\x99*\xdd?'
p270
tp271
Rp272
g12
I50
tp273
a(I53
F9.943134069442749
(dp274
I1
F0.5400000000000003
sI2
F0.24000000000000007
sI3
F0.0
sI4
F0.5400000000000003
sI5
F0.0
sI6
F0.3000000000000001
sI7
F0.5300000000000002
sI8
F0.01
sI9
F0.0
sI10
F0.5400000000000003
sg2
(g6
S'\xf1\x93\x86\r\x02\x8e\xdd?'
p275
tp276
Rp277
g12
I50
tp278
a(I54
F10.126704931259155
(dp279
I1
F0.5500000000000003
sI2
F0.24000000000000007
sI3
F0.0
sI4
F0.5500000000000003
sI5
F0.0
sI6
F0.3100000000000001
sI7
F0.5400000000000003
sI8
F0.01
sI9
F0.0
sI10
F0.5500000000000003
sg2
(g6
S'\x0e\xd7\xe0\x98\xaf\xf0\xdd?'
p280
tp281
Rp282
g12
I50
tp283
a(I55
F10.310029029846191
(dp284
I1
F0.5600000000000003
sI2
F0.24000000000000007
sI3
F0.0
sI4
F0.5600000000000003
sI5
F0.0
sI6
F0.3200000000000001
sI7
F0.5500000000000003
sI8
F0.01
sI9
F0.0
sI10
F0.5600000000000003
sg2
(g6
S'\x076\xe6kdR\xde?'
p285
tp286
Rp287
g12
I50
tp288
a(I56
F10.49349308013916
(dp289
I1
F0.5700000000000003
sI2
F0.24000000000000007
sI3
F0.0
sI4
F0.5700000000000003
sI5
F0.0
sI6
F0.3300000000000001
sI7
F0.5600000000000003
sI8
F0.01
sI9
F0.0
sI10
F0.5700000000000003
sg2
(g6
S'\xc4\x7f\xb4\x94%\xb3\xde?'
p290
tp291
Rp292
g12
I50
tp293
a(I57
F10.675709962844849
(dp294
I1
F0.5800000000000003
sI2
F0.25000000000000006
sI3
F0.0
sI4
F0.5800000000000003
sI5
F0.0
sI6
F0.3300000000000001
sI7
F0.5700000000000003
sI8
F0.01
sI9
F0.0
sI10
F0.5800000000000003
sg2
(g6
S'\xdeS\xb0\r\xb5\x12\xdf?'
p295
tp296
Rp297
g12
I50
tp298
a(I58
F10.85697603225708
(dp299
I1
F0.5900000000000003
sI2
F0.25000000000000006
sI3
F0.0
sI4
F0.5900000000000003
sI5
F0.0
sI6
F0.34000000000000014
sI7
F0.5800000000000003
sI8
F0.01
sI9
F0.0
sI10
F0.5900000000000003
sg2
(g6
S'\xc5\x17x-\x9dq\xdf?'
p300
tp301
Rp302
g12
I50
tp303
a(I59
F11.038218021392822
(dp304
I1
F0.6000000000000003
sI2
F0.25000000000000006
sI3
F0.0
sI4
F0.6000000000000003
sI5
F0.0
sI6
F0.35000000000000014
sI7
F0.5900000000000003
sI8
F0.01
sI9
F0.0
sI10
F0.6000000000000003
sg2
(g6
S'O\x935\x8c\xa0\xcf\xdf?'
p305
tp306
Rp307
g12
I50
tp308
a(I60
F11.220325946807861
(dp309
I1
F0.6100000000000003
sI2
F0.26000000000000006
sI3
F0.0
sI4
F0.6100000000000003
sI5
F0.0
sI6
F0.35000000000000014
sI7
F0.6000000000000003
sI8
F0.01
sI9
F0.0
sI10
F0.6100000000000003
sg2
(g6
S'%\xfck\xa7B\x16\xe0?'
p310
tp311
Rp312
g12
I50
tp313
a(I61
F11.402935028076172
(dp314
I1
F0.6200000000000003
sI2
F0.26000000000000006
sI3
F0.0
sI4
F0.6200000000000003
sI5
F0.0
sI6
F0.36000000000000015
sI7
F0.6100000000000003
sI8
F0.01
sI9
F0.0
sI10
F0.6200000000000003
sg2
(g6
S']\xce`\x89fD\xe0?'
p315
tp316
Rp317
g12
I50
tp318
a(I62
F11.586066961288452
(dp319
I1
F0.6300000000000003
sI2
F0.26000000000000006
sI3
F0.0
sI4
F0.6300000000000003
sI5
F0.0
sI6
F0.37000000000000016
sI7
F0.6200000000000003
sI8
F0.01
sI9
F0.0
sI10
F0.6300000000000003
sg2
(g6
S'\xc7\x86\xe2\xfc\x1er\xe0?'
p320
tp321
Rp322
g12
I50
tp323
a(I63
F11.768889904022217
(dp324
I1
F0.6400000000000003
sI2
F0.26000000000000006
sI3
F0.0
sI4
F0.6400000000000003
sI5
F0.0
sI6
F0.38000000000000017
sI7
F0.6300000000000003
sI8
F0.01
sI9
F0.0
sI10
F0.6400000000000003
sg2
(g6
S'\x93\x066+n\x9f\xe0?'
p325
tp326
Rp327
g12
I50
tp328
a(I64
F11.95162296295166
(dp329
I1
F0.6500000000000004
sI2
F0.2700000000000001
sI3
F0.0
sI4
F0.6500000000000004
sI5
F0.0
sI6
F0.38000000000000017
sI7
F0.6400000000000003
sI8
F0.01
sI9
F0.0
sI10
F0.6500000000000004
sg2
(g6
S'8tm\xb89\xcc\xe0?'
p330
tp331
Rp332
g12
I50
tp333
a(I65
F12.134886980056763
(dp334
I1
F0.6600000000000004
sI2
F0.2700000000000001
sI3
F0.0
sI4
F0.6600000000000004
sI5
F0.0
sI6
F0.38000000000000017
sI7
F0.6500000000000004
sI8
F0.02
sI9
F0.0
sI10
F0.6600000000000004
sg2
(g6
S'\xa6\x07\xc9\xbd\x81\xf8\xe0?'
p335
tp336
Rp337
g12
I50
tp338
a(I66
F12.317800045013428
(dp339
I1
F0.6700000000000004
sI2
F0.2700000000000001
sI3
F0.0
sI4
F0.6700000000000004
sI5
F0.0
sI6
F0.3900000000000002
sI7
F0.6600000000000004
sI8
F0.02
sI9
F0.0
sI10
F0.6700000000000004
sg2
(g6
S'qah\xe8\xa6$\xe1?'
p340
tp341
Rp342
g12
I50
tp343
a(I67
F12.501038074493408
(dp344
I1
F0.6800000000000004
sI2
F0.2800000000000001
sI3
F0.0
sI4
F0.6800000000000004
sI5
F0.0
sI6
F0.3900000000000002
sI7
F0.6700000000000004
sI8
F0.02
sI9
F0.0
sI10
F0.6800000000000004
sg2
(g6
S'k\xee\xfd\xe1QP\xe1?'
p345
tp346
Rp347
g12
I50
tp348
a(I68
F12.684510946273804
(dp349
I1
F0.6900000000000004
sI2
F0.2800000000000001
sI3
F0.0
sI4
F0.6900000000000004
sI5
F0.0
sI6
F0.4000000000000002
sI7
F0.6800000000000004
sI8
F0.02
sI9
F0.0
sI10
F0.6900000000000004
sg2
(g6
S'\xc4@\x91\xf8\xb6{\xe1?'
p350
tp351
Rp352
g12
I50
tp353
a(I69
F12.868462085723877
(dp354
I1
F0.7000000000000004
sI2
F0.2900000000000001
sI3
F0.0
sI4
F0.7000000000000004
sI5
F0.0
sI6
F0.4000000000000002
sI7
F0.6900000000000004
sI8
F0.02
sI9
F0.0
sI10
F0.7000000000000004
sg2
(g6
S'.\x07,\xed\xa7\xa6\xe1?'
p355
tp356
Rp357
g12
I50
tp358
a(I70
F13.050600051879883
(dp359
I1
F0.7100000000000004
sI2
F0.2900000000000001
sI3
F0.0
sI4
F0.7100000000000004
sI5
F0.0
sI6
F0.4100000000000002
sI7
F0.7000000000000004
sI8
F0.02
sI9
F0.0
sI10
F0.7100000000000004
sg2
(g6
S'X\x91\x19\xacT\xd1\xe1?'
p360
tp361
Rp362
g12
I50
tp363
a(I71
F13.23122501373291
(dp364
I1
F0.7200000000000004
sI2
F0.2900000000000001
sI3
F0.0
sI4
F0.7200000000000004
sI5
F0.0
sI6
F0.4200000000000002
sI7
F0.7100000000000004
sI8
F0.02
sI9
F0.0
sI10
F0.7200000000000004
sg2
(g6
S'\x1bey\xc2\xa7\xfb\xe1?'
p365
tp366
Rp367
g12
I50
tp368
a(I72
F13.413212060928345
(dp369
I1
F0.7300000000000004
sI2
F0.3000000000000001
sI3
F0.0
sI4
F0.7300000000000004
sI5
F0.0
sI6
F0.4200000000000002
sI7
F0.7200000000000004
sI8
F0.02
sI9
F0.0
sI10
F0.7300000000000004
sg2
(g6
S'LC\xc8\xba\x8e%\xe2?'
p370
tp371
Rp372
g12
I50
tp373
a(I73
F13.595844984054565
(dp374
I1
F0.7400000000000004
sI2
F0.3100000000000001
sI3
F0.0
sI4
F0.7400000000000004
sI5
F0.0
sI6
F0.4200000000000002
sI7
F0.7300000000000004
sI8
F0.02
sI9
F0.0
sI10
F0.7400000000000004
sg2
(g6
S"Z'\xc6r!O\xe2?"
p375
tp376
Rp377
g12
I50
tp378
a(I74
F13.778158903121948
(dp379
I1
F0.7500000000000004
sI2
F0.3200000000000001
sI3
F0.0
sI4
F0.7500000000000004
sI5
F0.0
sI6
F0.4200000000000002
sI7
F0.7400000000000004
sI8
F0.02
sI9
F0.0
sI10
F0.7500000000000004
sg2
(g6
S'\x1a\x16Jzax\xe2?'
p380
tp381
Rp382
g12
I50
tp383
a(I75
F13.960309028625488
(dp384
I1
F0.7600000000000005
sI2
F0.3300000000000001
sI3
F0.0
sI4
F0.7600000000000005
sI5
F0.0
sI6
F0.4200000000000002
sI7
F0.7500000000000004
sI8
F0.02
sI9
F0.0
sI10
F0.7600000000000005
sg2
(g6
S'\xa1?\xf3WP\xa1\xe2?'
p385
tp386
Rp387
g12
I50
tp388
a(I76
F14.143884897232056
(dp389
I1
F0.7700000000000005
sI2
F0.3300000000000001
sI3
F0.0
sI4
F0.7700000000000005
sI5
F0.0
sI6
F0.4200000000000002
sI7
F0.7600000000000005
sI8
F0.02
sI9
F0.01
sI10
F0.7700000000000005
sg2
(g6
S'\xdf\xd6@P\xe2\xc9\xe2?'
p390
tp391
Rp392
g12
I50
tp393
a(I77
F14.326364994049072
(dp394
I1
F0.7800000000000005
sI2
F0.3300000000000001
sI3
F0.0
sI4
F0.7800000000000005
sI5
F0.0
sI6
F0.4200000000000002
sI7
F0.7700000000000005
sI8
F0.03
sI9
F0.01
sI10
F0.7800000000000005
sg2
(g6
S'\xa6\x11\xac\xf64\xf2\xe2?'
p395
tp396
Rp397
g12
I50
tp398
a(I78
F14.509135007858276
(dp399
I1
F0.7900000000000005
sI2
F0.3300000000000001
sI3
F0.0
sI4
F0.7900000000000005
sI5
F0.0
sI6
F0.4200000000000002
sI7
F0.7800000000000005
sI8
F0.04
sI9
F0.01
sI10
F0.7900000000000005
sg2
(g6
S' 2\xfa\xa7=\x1a\xe3?'
p400
tp401
Rp402
g12
I50
tp403
a(I79
F14.691370010375977
(dp404
I1
F0.8000000000000005
sI2
F0.3300000000000001
sI3
F0.0
sI4
F0.8000000000000005
sI5
F0.0
sI6
F0.4200000000000002
sI7
F0.7900000000000005
sI8
F0.05
sI9
F0.01
sI10
F0.8000000000000005
sg2
(g6
S'\xda\xc0\xf1_\xfdA\xe3?'
p405
tp406
Rp407
g12
I50
tp408
a(I80
F14.87487006187439
(dp409
I1
F0.8100000000000005
sI2
F0.3300000000000001
sI3
F0.0
sI4
F0.8100000000000005
sI5
F0.0
sI6
F0.4300000000000002
sI7
F0.8000000000000005
sI8
F0.05
sI9
F0.01
sI10
F0.8100000000000005
sg2
(g6
S'/|\xd2>}i\xe3?'
p410
tp411
Rp412
g12
I50
tp413
a(I81
F15.057523012161255
(dp414
I1
F0.8200000000000005
sI2
F0.3300000000000001
sI3
F0.0
sI4
F0.8200000000000005
sI5
F0.0
sI6
F0.4400000000000002
sI7
F0.8100000000000005
sI8
F0.05
sI9
F0.01
sI10
F0.8200000000000005
sg2
(g6
S'3\x19X\x81\xb2\x90\xe3?'
p415
tp416
Rp417
g12
I50
tp418
a(I82
F15.238476037979126
(dp419
I1
F0.8300000000000005
sI2
F0.3300000000000001
sI3
F0.0
sI4
F0.8300000000000005
sI5
F0.0
sI6
F0.4400000000000002
sI7
F0.8200000000000005
sI8
F0.060000000000000005
sI9
F0.01
sI10
F0.8300000000000005
sg2
(g6
S's\xe4\x86\xbb\x99\xb7\xe3?'
p420
tp421
Rp422
g12
I50
tp423
a(I83
F15.420444965362549
(dp424
I1
F0.8400000000000005
sI2
F0.34000000000000014
sI3
F0.0
sI4
F0.8400000000000005
sI5
F0.0
sI6
F0.4400000000000002
sI7
F0.8300000000000005
sI8
F0.060000000000000005
sI9
F0.01
sI10
F0.8400000000000005
sg2
(g6
S'\x0b6\xa0\xbc4\xde\xe3?'
p425
tp426
Rp427
g12
I50
tp428
a(I84
F15.60275387763977
(dp429
I1
F0.8500000000000005
sI2
F0.34000000000000014
sI3
F0.0
sI4
F0.8500000000000005
sI5
F0.0
sI6
F0.4400000000000002
sI7
F0.8400000000000005
sI8
F0.07
sI9
F0.01
sI10
F0.8500000000000005
sg2
(g6
S'm%{b\x92\x04\xe4?'
p430
tp431
Rp432
g12
I50
tp433
a(I85
F15.784718990325928
(dp434
I1
F0.8600000000000005
sI2
F0.35000000000000014
sI3
F0.0
sI4
F0.8600000000000005
sI5
F0.0
sI6
F0.4400000000000002
sI7
F0.8500000000000005
sI8
F0.07
sI9
F0.01
sI10
F0.8600000000000005
sg2
(g6
S'\xc4\xb6\x11`\xa4*\xe4?'
p435
tp436
Rp437
g12
I50
tp438
a(I86
F15.96712589263916
(dp439
I1
F0.8700000000000006
sI2
F0.35000000000000014
sI3
F0.0
sI4
F0.8700000000000006
sI5
F0.0
sI6
F0.4400000000000002
sI7
F0.8600000000000005
sI8
F0.08
sI9
F0.01
sI10
F0.8700000000000006
sg2
(g6
S'\xae\xbb\xaf||P\xe4?'
p440
tp441
Rp442
g12
I50
tp443
a(I87
F16.15013289451599
(dp444
I1
F0.8800000000000006
sI2
F0.36000000000000015
sI3
F0.0
sI4
F0.8800000000000006
sI5
F0.0
sI6
F0.4400000000000002
sI7
F0.8700000000000006
sI8
F0.08
sI9
F0.01
sI10
F0.8800000000000006
sg2
(g6
S'\xfd%\xaf\xcb\tv\xe4?'
p445
tp446
Rp447
g12
I50
tp448
a(I88
F16.333236932754517
(dp449
I1
F0.8900000000000006
sI2
F0.36000000000000015
sI3
F0.0
sI4
F0.8900000000000006
sI5
F0.0
sI6
F0.45000000000000023
sI7
F0.8800000000000006
sI8
F0.08
sI9
F0.01
sI10
F0.8900000000000006
sg2
(g6
S'\xf7{\xe4"]\x9b\xe4?'
p450
tp451
Rp452
g12
I50
tp453
a(I89
F16.516031980514526
(dp454
I1
F0.9000000000000006
sI2
F0.36000000000000015
sI3
F0.0
sI4
F0.9000000000000006
sI5
F0.0
sI6
F0.45000000000000023
sI7
F0.8900000000000006
sI8
F0.08
sI9
F0.02
sI10
F0.9000000000000006
sg2
(g6
S'\n\xb3\xab\xc0g\xc0\xe4?'
p455
tp456
Rp457
g12
I50
tp458
a(I90
F16.699087858200073
(dp459
I1
F0.9100000000000006
sI2
F0.37000000000000016
sI3
F0.0
sI4
F0.9100000000000006
sI5
F0.0
sI6
F0.45000000000000023
sI7
F0.9000000000000006
sI8
F0.08
sI9
F0.02
sI10
F0.9100000000000006
sg2
(g6
S'\xfe\xbf>\xff4\xe5\xe4?'
p460
tp461
Rp462
g12
I50
tp463
a(I91
F16.881192922592163
(dp464
I1
F0.9200000000000006
sI2
F0.37000000000000016
sI3
F0.0
sI4
F0.9200000000000006
sI5
F0.0
sI6
F0.46000000000000024
sI7
F0.9100000000000006
sI8
F0.08
sI9
F0.02
sI10
F0.9200000000000006
sg2
(g6
S'\xc5zix\xc9\t\xe5?'
p465
tp466
Rp467
g12
I50
tp468
a(I92
F17.064089059829712
(dp469
I1
F0.9300000000000006
sI2
F0.37000000000000016
sI3
F0.0
sI4
F0.9300000000000006
sI5
F0.0
sI6
F0.46000000000000024
sI7
F0.9200000000000006
sI8
F0.09
sI9
F0.02
sI10
F0.9300000000000006
sg2
(g6
S'\xa6f\x19r&.\xe5?'
p470
tp471
Rp472
g12
I50
tp473
a(I93
F17.2458279132843
(dp474
I1
F0.9400000000000006
sI2
F0.37000000000000016
sI3
F0.0
sI4
F0.9400000000000006
sI5
F0.0
sI6
F0.47000000000000025
sI7
F0.9300000000000006
sI8
F0.09
sI9
F0.02
sI10
F0.9400000000000006
sg2
(g6
S'L\xe5\xadS@R\xe5?'
p475
tp476
Rp477
g12
I50
tp478
a(I94
F17.42620587348938
(dp479
I1
F0.9500000000000006
sI2
F0.37000000000000016
sI3
F0.0
sI4
F0.9500000000000006
sI5
F0.0
sI6
F0.47000000000000025
sI7
F0.9400000000000006
sI8
F0.09
sI9
F0.03
sI10
F0.9500000000000006
sg2
(g6
S'\t\xbaZ\x85\x1av\xe5?'
p480
tp481
Rp482
g12
I50
tp483
a(I95
F17.60740303993225
(dp484
I1
F0.9600000000000006
sI2
F0.37000000000000016
sI3
F0.0
sI4
F0.9600000000000006
sI5
F0.0
sI6
F0.48000000000000026
sI7
F0.9500000000000006
sI8
F0.09
sI9
F0.03
sI10
F0.9600000000000006
sg2
(g6
S"\x82\xe1'g\xbd\x99\xe5?"
p485
tp486
Rp487
g12
I50
tp488
a(I96
F17.789788961410522
(dp489
I1
F0.9700000000000006
sI2
F0.37000000000000016
sI3
F0.0
sI4
F0.9700000000000006
sI5
F0.0
sI6
F0.48000000000000026
sI7
F0.9600000000000006
sI8
F0.09999999999999999
sI9
F0.03
sI10
F0.9700000000000006
sg2
(g6
S'\xc8/8+/\xbd\xe5?'
p490
tp491
Rp492
g12
I50
tp493
a(I97
F17.972163915634155
(dp494
I1
F0.9800000000000006
sI2
F0.38000000000000017
sI3
F0.0
sI4
F0.9800000000000006
sI5
F0.0
sI6
F0.48000000000000026
sI7
F0.9700000000000006
sI8
F0.09999999999999999
sI9
F0.03
sI10
F0.9800000000000006
sg2
(g6
S'Ub\xa3\x19]\xe0\xe5?'
p495
tp496
Rp497
g12
I50
tp498
a(I98
F18.154372930526733
(dp499
I1
F0.9900000000000007
sI2
F0.3900000000000002
sI3
F0.0
sI4
F0.9900000000000007
sI5
F0.0
sI6
F0.48000000000000026
sI7
F0.9800000000000006
sI8
F0.09999999999999999
sI9
F0.03
sI10
F0.9900000000000007
sg2
(g6
S'n\xbawbS\x03\xe6?'
p500
tp501
Rp502
g12
I50
tp503
a(I99
F18.33646297454834
(dp504
I1
F1.0000000000000007
sI2
F0.4000000000000002
sI3
F0.0
sI4
F1.0000000000000007
sI5
F0.0
sI6
F0.48000000000000026
sI7
F0.9900000000000007
sI8
F0.09999999999999999
sI9
F0.03
sI10
F1.0000000000000007
sg2
(g6
S'-q"\xd0\x12&\xe6?'
p505
tp506
Rp507
g12
I50
tp508
a.