(dp0
I0
(F1581711845.156382
cnumpy.core.multiarray
scalar
p1
(cnumpy
dtype
p2
(S'f8'
p3
I0
I1
tp4
Rp5
(I3
S'<'
p6
NNNI-1
I-1
I0
tp7
bS'\x00\x00\x00\x00\x00\x00\x00\x00'
p8
tp9
Rp10
tp11
sI1
(F0.01636791229248047
g1
(g5
S'0wz*\xab)\xe3?'
p12
tp13
Rp14
tp15
sI2
(F0.03132796287536621
g1
(g5
S'x\x8c\x9d\xad(P\xe3?'
p16
tp17
Rp18
tp19
sI3
(F0.04480290412902832
g1
(g5
S'(P\x9e\xe8\x06\x94\xe6?'
p20
tp21
Rp22
tp23
sI4
(F0.05678081512451172
g1
(g5
S'\x11\x82\x1b\x03`\x8d\xe9?'
p24
tp25
Rp26
tp27
s.