(lp0
((dp1
I344
F0.0
sI345
F1.0000000000000004
sI346
F1.0000000000000004
scnumpy.core.multiarray
scalar
p2
(cnumpy
dtype
p3
(S'f8'
p4
I0
I1
tp5
Rp6
(I3
S'<'
p7
NNNI-1
I-1
I0
tp8
bS'~\xb4\x8eQ\xda\xee\xe3?'
p9
tp10
Rp11
F0.04990696907043457
I50
S'polynomial'
p12
I10
F0.5
tp13
a((dp14
I344
F0.0
sI345
F1.0000000000000004
sI346
F1.0000000000000004
sg2
(g6
S'~\xb4\x8eQ\xda\xee\xe3?'
p15
tp16
Rp17
F0.05454587936401367
I50
S'polynomial'
p18
I10
F0.5
tp19
a.