(lp0
((dp1
I344
F0.0
sI345
F1.0000000000000004
sI346
F1.0000000000000004
scnumpy.core.multiarray
scalar
p2
(cnumpy
dtype
p3
(S'f8'
p4
I0
I1
tp5
Rp6
(I3
S'<'
p7
NNNI-1
I-1
I0
tp8
bS'~\xb4\x8eQ\xda\xee\xe3?'
p9
tp10
Rp11
F5.611791133880615
I50
S'sampler'
p12
I100
tp13
a.