(lp0
(I0
F256.73618602752686
(dp1
I1537
F0.0
sI2
F0.0
sI771
F0.0
sI7425
F0.0
sI3848
F0.0
sI2064
F0.0
sI23
F0.0
sI280
F0.0
sI28
F0.0
sI31
F0.02
sI32
F0.02
sI1570
F0.0
sI35
F0.02
sI1060
F0.0
sI1833
F0.0
sI45
F0.0
sI564
F0.0
sI1845
F0.0
sI1847
F0.0
sI1849
F0.0
sI1594
F0.0
sI1855
F0.0
sI6465
F0.0
sI67
F0.0
sI2116
F0.0
sI587
F0.0
sI591
F0.0
sI3922
F0.0
sI2702
F0.0
sI6487
F0.0
sI1624
F0.0
sI601
F0.0
sI1377
F0.0
sI1634
F0.0
sI1636
F0.0
sI5222
F0.0
sI2406
F0.0
sI4200
F0.0
sI5225
F0.0
sI6506
F0.0
sI146
F0.0
sI5230
F0.0
sI6001
F0.0
sI1394
F0.0
sI6772
F0.0
sI630
F0.0
sI120
F0.0
sI4927
F0.0
sI638
F0.0
sI1407
F0.0
sI1667
F0.0
sI7045
F0.0
sI646
F0.0
sI651
F0.0
sI653
F0.0
sI142
F0.02
sI635
F0.0
sI1170
F0.0
sI662
F0.01
sI2967
F0.0
sI664
F0.0
sI3232
F0.0
sI1441
F0.0
sI2978
F0.0
sI2727
F0.0
sI4008
F0.0
sI170
F0.0
sI427
F0.0
sI4015
F0.0
sI1718
F0.0
sI884
F0.0
sI2234
F0.0
sI444
F0.0
sI1725
F0.0
sI448
F0.0
sI705
F0.0
sI1474
F0.0
sI196
F0.0
sI3525
F0.0
sI1223
F0.0
sI825
F0.0
sI547
F0.0
sI1492
F0.0
sI71381
F0.0
sI726
F0.0
sI36
F0.0
sI1499
F0.0
sI6034
F0.0
sI71392
F0.0
sI738
F0.0
sI739
F0.0
sI2277
F0.0
sI1514
F0.0
sI493
F0.01
sI3063
F0.0
sI1017
F0.0
sI4090
F0.0
sI1531
F0.0
sI764
F0.0
sI767
F0.0
scnumpy.core.multiarray
scalar
p2
(cnumpy
dtype
p3
(S'f8'
p4
I0
I1
tp5
Rp6
(I3
S'<'
p7
NNNI-1
I-1
I0
tp8
bS'\x99~\x07\x05\xf9\x05}?'
p9
tp10
Rp11
S'polynomial'
p12
I3
F0.5
tp13
a(I1
F513.2424170970917
(dp14
I1537
F0.0
sI2
F0.0
sI771
F0.0
sI7425
F0.0
sI3848
F0.0
sI2064
F0.0
sI23
F0.0
sI280
F0.0
sI28
F0.0
sI31
F0.04
sI32
F0.04
sI1570
F0.0
sI35
F0.04
sI1060
F0.0
sI1833
F0.0
sI45
F0.0
sI564
F0.0
sI1845
F0.0
sI1847
F0.0
sI1849
F0.0
sI1594
F0.0
sI1855
F0.0
sI6465
F0.0
sI67
F0.0
sI2116
F0.0
sI587
F0.0
sI591
F0.0
sI3922
F0.0
sI2702
F0.0
sI6487
F0.0
sI1624
F0.0
sI601
F0.0
sI1377
F0.0
sI1634
F0.0
sI1636
F0.0
sI5222
F0.0
sI2406
F0.0
sI4200
F0.0
sI5225
F0.0
sI6506
F0.0
sI146
F0.0
sI5230
F0.0
sI6001
F0.0
sI1394
F0.0
sI6772
F0.0
sI630
F0.0
sI120
F0.0
sI4927
F0.0
sI638
F0.0
sI1407
F0.0
sI1667
F0.0
sI7045
F0.0
sI646
F0.0
sI651
F0.0
sI653
F0.0
sI142
F0.04
sI635
F0.0
sI1170
F0.0
sI662
F0.02
sI2967
F0.0
sI664
F0.0
sI3232
F0.0
sI1441
F0.0
sI2978
F0.0
sI2727
F0.0
sI4008
F0.0
sI170
F0.0
sI427
F0.0
sI4015
F0.0
sI1718
F0.0
sI884
F0.0
sI2234
F0.0
sI444
F0.0
sI1725
F0.0
sI448
F0.0
sI705
F0.0
sI1474
F0.0
sI196
F0.0
sI3525
F0.0
sI1223
F0.0
sI825
F0.0
sI547
F0.0
sI1492
F0.0
sI71381
F0.0
sI726
F0.0
sI36
F0.0
sI1499
F0.0
sI6034
F0.0
sI71392
F0.0
sI738
F0.0
sI739
F0.0
sI2277
F0.0
sI1514
F0.0
sI493
F0.02
sI3063
F0.0
sI1017
F0.0
sI4090
F0.0
sI1531
F0.0
sI764
F0.0
sI767
F0.0
sg2
(g6
S'kK\x80\xf2P.\x8c?'
p15
tp16
Rp17
g12
I3
F0.5
tp18
a(I2
F768.9860339164734
(dp19
I1537
F0.0
sI2
F0.0
sI771
F0.0
sI7425
F0.0
sI3848
F0.0
sI2064
F0.0
sI23
F0.0
sI280
F0.0
sI28
F0.0
sI31
F0.060000000000000005
sI32
F0.060000000000000005
sI1570
F0.0
sI35
F0.060000000000000005
sI1060
F0.0
sI1833
F0.0
sI45
F0.0
sI564
F0.0
sI1845
F0.0
sI1847
F0.0
sI1849
F0.0
sI1594
F0.0
sI1855
F0.0
sI6465
F0.0
sI67
F0.0
sI2116
F0.0
sI587
F0.0
sI591
F0.0
sI3922
F0.0
sI2702
F0.0
sI6487
F0.0
sI1624
F0.0
sI601
F0.0
sI1377
F0.0
sI1634
F0.0
sI1636
F0.0
sI5222
F0.0
sI2406
F0.0
sI4200
F0.0
sI5225
F0.0
sI6506
F0.0
sI146
F0.0
sI5230
F0.0
sI6001
F0.0
sI1394
F0.0
sI6772
F0.0
sI630
F0.0
sI120
F0.0
sI4927
F0.0
sI638
F0.0
sI1407
F0.0
sI1667
F0.0
sI7045
F0.0
sI646
F0.0
sI651
F0.0
sI653
F0.0
sI142
F0.060000000000000005
sI635
F0.0
sI1170
F0.0
sI662
F0.03
sI2967
F0.0
sI664
F0.0
sI3232
F0.0
sI1441
F0.0
sI2978
F0.0
sI2727
F0.0
sI4008
F0.0
sI170
F0.0
sI427
F0.0
sI4015
F0.0
sI1718
F0.0
sI884
F0.0
sI2234
F0.0
sI444
F0.0
sI1725
F0.0
sI448
F0.0
sI705
F0.0
sI1474
F0.0
sI196
F0.0
sI3525
F0.0
sI1223
F0.0
sI825
F0.0
sI547
F0.0
sI1492
F0.0
sI71381
F0.0
sI726
F0.0
sI36
F0.0
sI1499
F0.0
sI6034
F0.0
sI71392
F0.0
sI738
F0.0
sI739
F0.0
sI2277
F0.0
sI1514
F0.0
sI493
F0.03
sI3063
F0.0
sI1017
F0.0
sI4090
F0.0
sI1531
F0.0
sI764
F0.0
sI767
F0.0
sg2
(g6
S'\xa1\xdc\xd2\x06j\x87\x94?'
p20
tp21
Rp22
g12
I3
F0.5
tp23
a(I3
F1024.1543021202087
(dp24
I1537
F0.0
sI2
F0.0
sI771
F0.0
sI7425
F0.0
sI3848
F0.0
sI2064
F0.0
sI23
F0.0
sI280
F0.0
sI28
F0.0
sI31
F0.08
sI32
F0.08
sI1570
F0.0
sI35
F0.08
sI1060
F0.0
sI1833
F0.0
sI45
F0.0
sI564
F0.0
sI1845
F0.0
sI1847
F0.0
sI1849
F0.0
sI1594
F0.0
sI1855
F0.0
sI6465
F0.0
sI67
F0.0
sI2116
F0.0
sI587
F0.0
sI591
F0.0
sI3922
F0.0
sI2702
F0.0
sI6487
F0.0
sI1624
F0.0
sI601
F0.0
sI1377
F0.0
sI1634
F0.0
sI1636
F0.0
sI5222
F0.0
sI2406
F0.0
sI4200
F0.0
sI5225
F0.0
sI6506
F0.0
sI146
F0.0
sI5230
F0.0
sI6001
F0.0
sI1394
F0.0
sI6772
F0.0
sI630
F0.0
sI120
F0.0
sI4927
F0.0
sI638
F0.0
sI1407
F0.0
sI1667
F0.0
sI7045
F0.0
sI646
F0.0
sI651
F0.0
sI653
F0.0
sI142
F0.08
sI635
F0.0
sI1170
F0.0
sI662
F0.04
sI2967
F0.0
sI664
F0.0
sI3232
F0.0
sI1441
F0.0
sI2978
F0.0
sI2727
F0.0
sI4008
F0.0
sI170
F0.0
sI427
F0.0
sI4015
F0.0
sI1718
F0.0
sI884
F0.0
sI2234
F0.0
sI444
F0.0
sI1725
F0.0
sI448
F0.0
sI705
F0.0
sI1474
F0.0
sI196
F0.0
sI3525
F0.0
sI1223
F0.0
sI825
F0.0
sI547
F0.0
sI1492
F0.0
sI71381
F0.0
sI726
F0.0
sI36
F0.0
sI1499
F0.0
sI6034
F0.0
sI71392
F0.0
sI738
F0.0
sI739
F0.0
sI2277
F0.0
sI1514
F0.0
sI493
F0.04
sI3063
F0.0
sI1017
F0.0
sI4090
F0.0
sI1531
F0.0
sI764
F0.0
sI767
F0.0
sg2
(g6
S'\x8c\xfc\xdd\xa1J\x98\x9a?'
p25
tp26
Rp27
g12
I3
F0.5
tp28
a(I4
F1281.1525859832764
(dp29
I1537
F0.0
sI2
F0.0
sI771
F0.0
sI7425
F0.0
sI3848
F0.0
sI2064
F0.0
sI23
F0.0
sI280
F0.0
sI28
F0.0
sI31
F0.09999999999999999
sI32
F0.09999999999999999
sI1570
F0.0
sI35
F0.09999999999999999
sI1060
F0.0
sI1833
F0.0
sI45
F0.0
sI564
F0.0
sI1845
F0.0
sI1847
F0.0
sI1849
F0.0
sI1594
F0.0
sI1855
F0.0
sI6465
F0.0
sI67
F0.0
sI2116
F0.0
sI587
F0.0
sI591
F0.0
sI3922
F0.0
sI2702
F0.0
sI6487
F0.0
sI1624
F0.0
sI601
F0.0
sI1377
F0.0
sI1634
F0.0
sI1636
F0.0
sI5222
F0.0
sI2406
F0.0
sI4200
F0.0
sI5225
F0.0
sI6506
F0.0
sI146
F0.0
sI5230
F0.0
sI6001
F0.0
sI1394
F0.0
sI6772
F0.0
sI630
F0.0
sI120
F0.0
sI4927
F0.0
sI638
F0.0
sI1407
F0.0
sI1667
F0.0
sI7045
F0.0
sI646
F0.0
sI651
F0.0
sI653
F0.0
sI142
F0.09999999999999999
sI635
F0.0
sI1170
F0.0
sI662
F0.05
sI2967
F0.0
sI664
F0.0
sI3232
F0.0
sI1441
F0.0
sI2978
F0.0
sI2727
F0.0
sI4008
F0.0
sI170
F0.0
sI427
F0.0
sI4015
F0.0
sI1718
F0.0
sI884
F0.0
sI2234
F0.0
sI444
F0.0
sI1725
F0.0
sI448
F0.0
sI705
F0.0
sI1474
F0.0
sI196
F0.0
sI3525
F0.0
sI1223
F0.0
sI825
F0.0
sI547
F0.0
sI1492
F0.0
sI71381
F0.0
sI726
F0.0
sI36
F0.0
sI1499
F0.0
sI6034
F0.0
sI71392
F0.0
sI738
F0.0
sI739
F0.0
sI2277
F0.0
sI1514
F0.0
sI493
F0.05
sI3063
F0.0
sI1017
F0.0
sI4090
F0.0
sI1531
F0.0
sI764
F0.0
sI767
F0.0
sg2
(g6
S"*x<\x1e\xbb'\xa0?"
p30
tp31
Rp32
g12
I3
F0.5
tp33
a(I5
F1536.1880559921265
(dp34
I1537
F0.0
sI2
F0.0
sI771
F0.0
sI7425
F0.0
sI3848
F0.0
sI2064
F0.0
sI23
F0.0
sI280
F0.0
sI28
F0.0
sI31
F0.11999999999999998
sI32
F0.11999999999999998
sI1570
F0.0
sI35
F0.11999999999999998
sI1060
F0.0
sI1833
F0.0
sI45
F0.0
sI564
F0.0
sI1845
F0.0
sI1847
F0.0
sI1849
F0.0
sI1594
F0.0
sI1855
F0.0
sI6465
F0.0
sI67
F0.0
sI2116
F0.0
sI587
F0.0
sI591
F0.0
sI3922
F0.0
sI2702
F0.0
sI6487
F0.0
sI1624
F0.0
sI601
F0.0
sI1377
F0.0
sI1634
F0.0
sI1636
F0.0
sI5222
F0.0
sI2406
F0.0
sI4200
F0.0
sI5225
F0.0
sI6506
F0.0
sI146
F0.0
sI5230
F0.0
sI6001
F0.0
sI1394
F0.0
sI6772
F0.0
sI630
F0.0
sI120
F0.0
sI4927
F0.0
sI638
F0.0
sI1407
F0.0
sI1667
F0.0
sI7045
F0.0
sI646
F0.0
sI651
F0.0
sI653
F0.0
sI142
F0.11999999999999998
sI635
F0.0
sI1170
F0.0
sI662
F0.060000000000000005
sI2967
F0.0
sI664
F0.0
sI3232
F0.0
sI1441
F0.0
sI2978
F0.0
sI2727
F0.0
sI4008
F0.0
sI170
F0.0
sI427
F0.0
sI4015
F0.0
sI1718
F0.0
sI884
F0.0
sI2234
F0.0
sI444
F0.0
sI1725
F0.0
sI448
F0.0
sI705
F0.0
sI1474
F0.0
sI196
F0.0
sI3525
F0.0
sI1223
F0.0
sI825
F0.0
sI547
F0.0
sI1492
F0.0
sI71381
F0.0
sI726
F0.0
sI36
F0.0
sI1499
F0.0
sI6034
F0.0
sI71392
F0.0
sI738
F0.0
sI739
F0.0
sI2277
F0.0
sI1514
F0.0
sI493
F0.060000000000000005
sI3063
F0.0
sI1017
F0.0
sI4090
F0.0
sI1531
F0.0
sI764
F0.0
sI767
F0.0
sg2
(g6
S'\xe8G\x93\x07"\xd9\xa2?'
p35
tp36
Rp37
g12
I3
F0.5
tp38
a(I6
F1793.4161610603333
(dp39
I1537
F0.0
sI2
F0.0
sI771
F0.0
sI7425
F0.0
sI3848
F0.0
sI2064
F0.0
sI23
F0.0
sI280
F0.0
sI28
F0.0
sI31
F0.13999999999999999
sI32
F0.13999999999999999
sI1570
F0.0
sI35
F0.13999999999999999
sI1060
F0.0
sI1833
F0.0
sI45
F0.0
sI564
F0.0
sI1845
F0.0
sI1847
F0.0
sI1849
F0.0
sI1594
F0.0
sI1855
F0.0
sI6465
F0.0
sI67
F0.0
sI2116
F0.0
sI587
F0.0
sI591
F0.0
sI3922
F0.0
sI2702
F0.0
sI6487
F0.0
sI1624
F0.0
sI601
F0.0
sI1377
F0.0
sI1634
F0.0
sI1636
F0.0
sI5222
F0.0
sI2406
F0.0
sI4200
F0.0
sI5225
F0.0
sI6506
F0.0
sI146
F0.0
sI5230
F0.0
sI6001
F0.0
sI1394
F0.0
sI6772
F0.0
sI630
F0.0
sI120
F0.0
sI4927
F0.0
sI638
F0.0
sI1407
F0.0
sI1667
F0.0
sI7045
F0.0
sI646
F0.0
sI651
F0.0
sI653
F0.0
sI142
F0.13999999999999999
sI635
F0.0
sI1170
F0.0
sI662
F0.07
sI2967
F0.0
sI664
F0.0
sI3232
F0.0
sI1441
F0.0
sI2978
F0.0
sI2727
F0.0
sI4008
F0.0
sI170
F0.0
sI427
F0.0
sI4015
F0.0
sI1718
F0.0
sI884
F0.0
sI2234
F0.0
sI444
F0.0
sI1725
F0.0
sI448
F0.0
sI705
F0.0
sI1474
F0.0
sI196
F0.0
sI3525
F0.0
sI1223
F0.0
sI825
F0.0
sI547
F0.0
sI1492
F0.0
sI71381
F0.0
sI726
F0.0
sI36
F0.0
sI1499
F0.0
sI6034
F0.0
sI71392
F0.0
sI738
F0.0
sI739
F0.0
sI2277
F0.0
sI1514
F0.0
sI493
F0.07
sI3063
F0.0
sI1017
F0.0
sI4090
F0.0
sI1531
F0.0
sI764
F0.0
sI767
F0.0
sg2
(g6
S'\x02U\x00u\xdeb\xa5?'
p40
tp41
Rp42
g12
I3
F0.5
tp43
a(I7
F2048.6315410137177
(dp44
I1537
F0.0
sI2
F0.0
sI771
F0.0
sI7425
F0.0
sI3848
F0.0
sI2064
F0.0
sI23
F0.0
sI280
F0.0
sI28
F0.0
sI31
F0.16
sI32
F0.16
sI1570
F0.0
sI35
F0.16
sI1060
F0.0
sI1833
F0.0
sI45
F0.0
sI564
F0.0
sI1845
F0.0
sI1847
F0.0
sI1849
F0.0
sI1594
F0.0
sI1855
F0.0
sI6465
F0.0
sI67
F0.0
sI2116
F0.0
sI587
F0.0
sI591
F0.0
sI3922
F0.0
sI2702
F0.0
sI6487
F0.0
sI1624
F0.0
sI601
F0.0
sI1377
F0.0
sI1634
F0.0
sI1636
F0.0
sI5222
F0.0
sI2406
F0.0
sI4200
F0.0
sI5225
F0.0
sI6506
F0.0
sI146
F0.0
sI5230
F0.0
sI6001
F0.0
sI1394
F0.0
sI6772
F0.0
sI630
F0.0
sI120
F0.0
sI4927
F0.0
sI638
F0.0
sI1407
F0.0
sI1667
F0.0
sI7045
F0.0
sI646
F0.0
sI651
F0.0
sI653
F0.0
sI142
F0.16
sI635
F0.0
sI1170
F0.0
sI662
F0.08
sI2967
F0.0
sI664
F0.0
sI3232
F0.0
sI1441
F0.0
sI2978
F0.0
sI2727
F0.0
sI4008
F0.0
sI170
F0.0
sI427
F0.0
sI4015
F0.0
sI1718
F0.0
sI884
F0.0
sI2234
F0.0
sI444
F0.0
sI1725
F0.0
sI448
F0.0
sI705
F0.0
sI1474
F0.0
sI196
F0.0
sI3525
F0.0
sI1223
F0.0
sI825
F0.0
sI547
F0.0
sI1492
F0.0
sI71381
F0.0
sI726
F0.0
sI36
F0.0
sI1499
F0.0
sI6034
F0.0
sI71392
F0.0
sI738
F0.0
sI739
F0.0
sI2277
F0.0
sI1514
F0.0
sI493
F0.08
sI3063
F0.0
sI1017
F0.0
sI4090
F0.0
sI1531
F0.0
sI764
F0.0
sI767
F0.0
sg2
(g6
S'\xb7\xfc\x96pP\xc7\xa7?'
p45
tp46
Rp47
g12
I3
F0.5
tp48
a(I8
F2304.204183101654
(dp49
I1537
F0.0
sI2
F0.0
sI771
F0.0
sI7425
F0.0
sI3848
F0.0
sI2064
F0.0
sI23
F0.0
sI280
F0.0
sI28
F0.0
sI31
F0.18000000000000002
sI32
F0.18000000000000002
sI1570
F0.0
sI35
F0.18000000000000002
sI1060
F0.0
sI1833
F0.0
sI45
F0.0
sI564
F0.0
sI1845
F0.0
sI1847
F0.0
sI1849
F0.0
sI1594
F0.0
sI1855
F0.0
sI6465
F0.0
sI67
F0.0
sI2116
F0.0
sI587
F0.0
sI591
F0.0
sI3922
F0.0
sI2702
F0.0
sI6487
F0.0
sI1624
F0.0
sI601
F0.0
sI1377
F0.0
sI1634
F0.0
sI1636
F0.0
sI5222
F0.0
sI2406
F0.0
sI4200
F0.0
sI5225
F0.0
sI6506
F0.0
sI146
F0.0
sI5230
F0.0
sI6001
F0.0
sI1394
F0.0
sI6772
F0.0
sI630
F0.0
sI120
F0.0
sI4927
F0.0
sI638
F0.0
sI1407
F0.0
sI1667
F0.0
sI7045
F0.0
sI646
F0.0
sI651
F0.0
sI653
F0.0
sI142
F0.18000000000000002
sI635
F0.0
sI1170
F0.0
sI662
F0.09
sI2967
F0.0
sI664
F0.0
sI3232
F0.0
sI1441
F0.0
sI2978
F0.0
sI2727
F0.0
sI4008
F0.0
sI170
F0.0
sI427
F0.0
sI4015
F0.0
sI1718
F0.0
sI884
F0.0
sI2234
F0.0
sI444
F0.0
sI1725
F0.0
sI448
F0.0
sI705
F0.0
sI1474
F0.0
sI196
F0.0
sI3525
F0.0
sI1223
F0.0
sI825
F0.0
sI547
F0.0
sI1492
F0.0
sI71381
F0.0
sI726
F0.0
sI36
F0.0
sI1499
F0.0
sI6034
F0.0
sI71392
F0.0
sI738
F0.0
sI739
F0.0
sI2277
F0.0
sI1514
F0.0
sI493
F0.09
sI3063
F0.0
sI1017
F0.0
sI4090
F0.0
sI1531
F0.0
sI764
F0.0
sI767
F0.0
sg2
(g6
S"'\xe0\xfc3\xb6\x08\xaa?"
p50
tp51
Rp52
g12
I3
F0.5
tp53
a(I9
F2559.6877810955048
(dp54
I1537
F0.0
sI2
F0.0
sI771
F0.0
sI7425
F0.0
sI3848
F0.0
sI2064
F0.0
sI23
F0.0
sI280
F0.0
sI28
F0.0
sI31
F0.20000000000000004
sI32
F0.20000000000000004
sI1570
F0.0
sI35
F0.20000000000000004
sI1060
F0.0
sI1833
F0.0
sI45
F0.0
sI564
F0.0
sI1845
F0.0
sI1847
F0.0
sI1849
F0.0
sI1594
F0.0
sI1855
F0.0
sI6465
F0.0
sI67
F0.0
sI2116
F0.0
sI587
F0.0
sI591
F0.0
sI3922
F0.0
sI2702
F0.0
sI6487
F0.0
sI1624
F0.0
sI601
F0.0
sI1377
F0.0
sI1634
F0.0
sI1636
F0.0
sI5222
F0.0
sI2406
F0.0
sI4200
F0.0
sI5225
F0.0
sI6506
F0.0
sI146
F0.0
sI5230
F0.0
sI6001
F0.0
sI1394
F0.0
sI6772
F0.0
sI630
F0.0
sI120
F0.0
sI4927
F0.0
sI638
F0.0
sI1407
F0.0
sI1667
F0.0
sI7045
F0.0
sI646
F0.0
sI651
F0.0
sI653
F0.0
sI142
F0.20000000000000004
sI635
F0.0
sI1170
F0.0
sI662
F0.09999999999999999
sI2967
F0.0
sI664
F0.0
sI3232
F0.0
sI1441
F0.0
sI2978
F0.0
sI2727
F0.0
sI4008
F0.0
sI170
F0.0
sI427
F0.0
sI4015
F0.0
sI1718
F0.0
sI884
F0.0
sI2234
F0.0
sI444
F0.0
sI1725
F0.0
sI448
F0.0
sI705
F0.0
sI1474
F0.0
sI196
F0.0
sI3525
F0.0
sI1223
F0.0
sI825
F0.0
sI547
F0.0
sI1492
F0.0
sI71381
F0.0
sI726
F0.0
sI36
F0.0
sI1499
F0.0
sI6034
F0.0
sI71392
F0.0
sI738
F0.0
sI739
F0.0
sI2277
F0.0
sI1514
F0.0
sI493
F0.09999999999999999
sI3063
F0.0
sI1017
F0.0
sI4090
F0.0
sI1531
F0.0
sI764
F0.0
sI767
F0.0
sg2
(g6
S'\xea\x9d\xacu.)\xac?'
p55
tp56
Rp57
g12
I3
F0.5
tp58
a(I10
F2815.452450990677
(dp59
I1537
F0.0
sI2
F0.0
sI771
F0.0
sI7425
F0.0
sI3848
F0.0
sI2064
F0.0
sI23
F0.0
sI280
F0.0
sI28
F0.0
sI31
F0.22000000000000006
sI32
F0.22000000000000006
sI1570
F0.0
sI35
F0.22000000000000006
sI1060
F0.0
sI1833
F0.0
sI45
F0.0
sI564
F0.0
sI1845
F0.0
sI1847
F0.0
sI1849
F0.0
sI1594
F0.0
sI1855
F0.0
sI6465
F0.0
sI67
F0.0
sI2116
F0.0
sI587
F0.0
sI591
F0.0
sI3922
F0.0
sI2702
F0.0
sI6487
F0.0
sI1624
F0.0
sI601
F0.0
sI1377
F0.0
sI1634
F0.0
sI1636
F0.0
sI5222
F0.0
sI2406
F0.0
sI4200
F0.0
sI5225
F0.0
sI6506
F0.0
sI146
F0.0
sI5230
F0.0
sI6001
F0.0
sI1394
F0.0
sI6772
F0.0
sI630
F0.0
sI120
F0.0
sI4927
F0.0
sI638
F0.0
sI1407
F0.0
sI1667
F0.0
sI7045
F0.0
sI646
F0.0
sI651
F0.0
sI653
F0.0
sI142
F0.22000000000000006
sI635
F0.0
sI1170
F0.0
sI662
F0.10999999999999999
sI2967
F0.0
sI664
F0.0
sI3232
F0.0
sI1441
F0.0
sI2978
F0.0
sI2727
F0.0
sI4008
F0.0
sI170
F0.0
sI427
F0.0
sI4015
F0.0
sI1718
F0.0
sI884
F0.0
sI2234
F0.0
sI444
F0.0
sI1725
F0.0
sI448
F0.0
sI705
F0.0
sI1474
F0.0
sI196
F0.0
sI3525
F0.0
sI1223
F0.0
sI825
F0.0
sI547
F0.0
sI1492
F0.0
sI71381
F0.0
sI726
F0.0
sI36
F0.0
sI1499
F0.0
sI6034
F0.0
sI71392
F0.0
sI738
F0.0
sI739
F0.0
sI2277
F0.0
sI1514
F0.0
sI493
F0.10999999999999999
sI3063
F0.0
sI1017
F0.0
sI4090
F0.0
sI1531
F0.0
sI764
F0.0
sI767
F0.0
sg2
(g6
S'\xa2|@}\xba*\xae?'
p60
tp61
Rp62
g12
I3
F0.5
tp63
a(I11
F3071.128077030182
(dp64
I1537
F0.0
sI2
F0.0
sI771
F0.0
sI7425
F0.0
sI3848
F0.0
sI2064
F0.0
sI23
F0.0
sI280
F0.0
sI28
F0.0
sI31
F0.24000000000000007
sI32
F0.24000000000000007
sI1570
F0.0
sI35
F0.24000000000000007
sI1060
F0.0
sI1833
F0.0
sI45
F0.0
sI564
F0.0
sI1845
F0.0
sI1847
F0.0
sI1849
F0.0
sI1594
F0.0
sI1855
F0.0
sI6465
F0.0
sI67
F0.0
sI2116
F0.0
sI587
F0.0
sI591
F0.0
sI3922
F0.0
sI2702
F0.0
sI6487
F0.0
sI1624
F0.0
sI601
F0.0
sI1377
F0.0
sI1634
F0.0
sI1636
F0.0
sI5222
F0.0
sI2406
F0.0
sI4200
F0.0
sI5225
F0.0
sI6506
F0.0
sI146
F0.0
sI5230
F0.0
sI6001
F0.0
sI1394
F0.0
sI6772
F0.0
sI630
F0.0
sI120
F0.0
sI4927
F0.0
sI638
F0.0
sI1407
F0.0
sI1667
F0.0
sI7045
F0.0
sI646
F0.0
sI651
F0.0
sI653
F0.0
sI142
F0.24000000000000007
sI635
F0.0
sI1170
F0.0
sI662
F0.11999999999999998
sI2967
F0.0
sI664
F0.0
sI3232
F0.0
sI1441
F0.0
sI2978
F0.0
sI2727
F0.0
sI4008
F0.0
sI170
F0.0
sI427
F0.0
sI4015
F0.0
sI1718
F0.0
sI884
F0.0
sI2234
F0.0
sI444
F0.0
sI1725
F0.0
sI448
F0.0
sI705
F0.0
sI1474
F0.0
sI196
F0.0
sI3525
F0.0
sI1223
F0.0
sI825
F0.0
sI547
F0.0
sI1492
F0.0
sI71381
F0.0
sI726
F0.0
sI36
F0.0
sI1499
F0.0
sI6034
F0.0
sI71392
F0.0
sI738
F0.0
sI739
F0.0
sI2277
F0.0
sI1514
F0.0
sI493
F0.11999999999999998
sI3063
F0.0
sI1017
F0.0
sI4090
F0.0
sI1531
F0.0
sI764
F0.0
sI767
F0.0
sg2
(g6
S'O\xbd\x94\x02\xa0\x07\xb0?'
p65
tp66
Rp67
g12
I3
F0.5
tp68
a(I12
F3326.529329061508
(dp69
I1537
F0.0
sI2
F0.0
sI771
F0.0
sI7425
F0.0
sI3848
F0.0
sI2064
F0.0
sI23
F0.0
sI280
F0.0
sI28
F0.0
sI31
F0.26000000000000006
sI32
F0.26000000000000006
sI1570
F0.0
sI35
F0.26000000000000006
sI1060
F0.0
sI1833
F0.0
sI45
F0.0
sI564
F0.0
sI1845
F0.0
sI1847
F0.0
sI1849
F0.0
sI1594
F0.0
sI1855
F0.0
sI6465
F0.0
sI67
F0.0
sI2116
F0.0
sI587
F0.0
sI591
F0.0
sI3922
F0.0
sI2702
F0.0
sI6487
F0.0
sI1624
F0.0
sI601
F0.0
sI1377
F0.0
sI1634
F0.0
sI1636
F0.0
sI5222
F0.0
sI2406
F0.0
sI4200
F0.0
sI5225
F0.0
sI6506
F0.0
sI146
F0.0
sI5230
F0.0
sI6001
F0.0
sI1394
F0.0
sI6772
F0.0
sI630
F0.0
sI120
F0.0
sI4927
F0.0
sI638
F0.0
sI1407
F0.0
sI1667
F0.0
sI7045
F0.0
sI646
F0.0
sI651
F0.0
sI653
F0.0
sI142
F0.26000000000000006
sI635
F0.0
sI1170
F0.0
sI662
F0.12999999999999998
sI2967
F0.0
sI664
F0.0
sI3232
F0.0
sI1441
F0.0
sI2978
F0.0
sI2727
F0.0
sI4008
F0.0
sI170
F0.0
sI427
F0.0
sI4015
F0.0
sI1718
F0.0
sI884
F0.0
sI2234
F0.0
sI444
F0.0
sI1725
F0.0
sI448
F0.0
sI705
F0.0
sI1474
F0.0
sI196
F0.0
sI3525
F0.0
sI1223
F0.0
sI825
F0.0
sI547
F0.0
sI1492
F0.0
sI71381
F0.0
sI726
F0.0
sI36
F0.0
sI1499
F0.0
sI6034
F0.0
sI71392
F0.0
sI738
F0.0
sI739
F0.0
sI2277
F0.0
sI1514
F0.0
sI493
F0.12999999999999998
sI3063
F0.0
sI1017
F0.0
sI4090
F0.0
sI1531
F0.0
sI764
F0.0
sI767
F0.0
sg2
(g6
S'\xc1G\xb6wE\xec\xb0?'
p70
tp71
Rp72
g12
I3
F0.5
tp73
a(I13
F3582.0745260715485
(dp74
I1537
F0.0
sI2
F0.0
sI771
F0.0
sI7425
F0.0
sI3848
F0.0
sI2064
F0.0
sI23
F0.0
sI280
F0.0
sI28
F0.0
sI31
F0.2800000000000001
sI32
F0.2800000000000001
sI1570
F0.0
sI35
F0.2800000000000001
sI1060
F0.0
sI1833
F0.0
sI45
F0.0
sI564
F0.0
sI1845
F0.0
sI1847
F0.0
sI1849
F0.0
sI1594
F0.0
sI1855
F0.0
sI6465
F0.0
sI67
F0.0
sI2116
F0.0
sI587
F0.0
sI591
F0.0
sI3922
F0.0
sI2702
F0.0
sI6487
F0.0
sI1624
F0.0
sI601
F0.0
sI1377
F0.0
sI1634
F0.0
sI1636
F0.0
sI5222
F0.0
sI2406
F0.0
sI4200
F0.0
sI5225
F0.0
sI6506
F0.0
sI146
F0.0
sI5230
F0.0
sI6001
F0.0
sI1394
F0.0
sI6772
F0.0
sI630
F0.0
sI120
F0.0
sI4927
F0.0
sI638
F0.0
sI1407
F0.0
sI1667
F0.0
sI7045
F0.0
sI646
F0.0
sI651
F0.0
sI653
F0.0
sI142
F0.2800000000000001
sI635
F0.0
sI1170
F0.0
sI662
F0.13999999999999999
sI2967
F0.0
sI664
F0.0
sI3232
F0.0
sI1441
F0.0
sI2978
F0.0
sI2727
F0.0
sI4008
F0.0
sI170
F0.0
sI427
F0.0
sI4015
F0.0
sI1718
F0.0
sI884
F0.0
sI2234
F0.0
sI444
F0.0
sI1725
F0.0
sI448
F0.0
sI705
F0.0
sI1474
F0.0
sI196
F0.0
sI3525
F0.0
sI1223
F0.0
sI825
F0.0
sI547
F0.0
sI1492
F0.0
sI71381
F0.0
sI726
F0.0
sI36
F0.0
sI1499
F0.0
sI6034
F0.0
sI71392
F0.0
sI738
F0.0
sI739
F0.0
sI2277
F0.0
sI1514
F0.0
sI493
F0.13999999999999999
sI3063
F0.0
sI1017
F0.0
sI4090
F0.0
sI1531
F0.0
sI764
F0.0
sI767
F0.0
sg2
(g6
S"\xa2\xe1(i'\xc4\xb1?"
p75
tp76
Rp77
g12
I3
F0.5
tp78
a(I14
F3839.267618894577
(dp79
I1537
F0.0
sI2
F0.0
sI771
F0.0
sI7425
F0.0
sI3848
F0.0
sI2064
F0.0
sI23
F0.0
sI280
F0.0
sI28
F0.0
sI31
F0.3000000000000001
sI32
F0.3000000000000001
sI1570
F0.0
sI35
F0.3000000000000001
sI1060
F0.0
sI1833
F0.0
sI45
F0.0
sI564
F0.0
sI1845
F0.0
sI1847
F0.0
sI1849
F0.0
sI1594
F0.0
sI1855
F0.0
sI6465
F0.0
sI67
F0.0
sI2116
F0.0
sI587
F0.0
sI591
F0.0
sI3922
F0.0
sI2702
F0.0
sI6487
F0.0
sI1624
F0.0
sI601
F0.0
sI1377
F0.0
sI1634
F0.0
sI1636
F0.0
sI5222
F0.0
sI2406
F0.0
sI4200
F0.0
sI5225
F0.0
sI6506
F0.0
sI146
F0.0
sI5230
F0.0
sI6001
F0.0
sI1394
F0.0
sI6772
F0.0
sI630
F0.0
sI120
F0.0
sI4927
F0.0
sI638
F0.0
sI1407
F0.0
sI1667
F0.0
sI7045
F0.0
sI646
F0.0
sI651
F0.0
sI653
F0.0
sI142
F0.3000000000000001
sI635
F0.0
sI1170
F0.0
sI662
F0.15
sI2967
F0.0
sI664
F0.0
sI3232
F0.0
sI1441
F0.0
sI2978
F0.0
sI2727
F0.0
sI4008
F0.0
sI170
F0.0
sI427
F0.0
sI4015
F0.0
sI1718
F0.0
sI884
F0.0
sI2234
F0.0
sI444
F0.0
sI1725
F0.0
sI448
F0.0
sI705
F0.0
sI1474
F0.0
sI196
F0.0
sI3525
F0.0
sI1223
F0.0
sI825
F0.0
sI547
F0.0
sI1492
F0.0
sI71381
F0.0
sI726
F0.0
sI36
F0.0
sI1499
F0.0
sI6034
F0.0
sI71392
F0.0
sI738
F0.0
sI739
F0.0
sI2277
F0.0
sI1514
F0.0
sI493
F0.15
sI3063
F0.0
sI1017
F0.0
sI4090
F0.0
sI1531
F0.0
sI764
F0.0
sI767
F0.0
sg2
(g6
S'uS\xad0\x14\x90\xb2?'
p80
tp81
Rp82
g12
I3
F0.5
tp83
a(I15
F4094.9317491054535
(dp84
I1537
F0.0
sI2
F0.0
sI771
F0.0
sI7425
F0.0
sI3848
F0.0
sI2064
F0.0
sI23
F0.0
sI280
F0.0
sI28
F0.0
sI31
F0.3200000000000001
sI32
F0.3200000000000001
sI1570
F0.0
sI35
F0.3200000000000001
sI1060
F0.0
sI1833
F0.0
sI45
F0.0
sI564
F0.0
sI1845
F0.0
sI1847
F0.0
sI1849
F0.0
sI1594
F0.0
sI1855
F0.0
sI6465
F0.0
sI67
F0.0
sI2116
F0.0
sI587
F0.0
sI591
F0.0
sI3922
F0.0
sI2702
F0.0
sI6487
F0.0
sI1624
F0.0
sI601
F0.0
sI1377
F0.0
sI1634
F0.0
sI1636
F0.0
sI5222
F0.0
sI2406
F0.0
sI4200
F0.0
sI5225
F0.0
sI6506
F0.0
sI146
F0.0
sI5230
F0.0
sI6001
F0.0
sI1394
F0.0
sI6772
F0.0
sI630
F0.0
sI120
F0.0
sI4927
F0.0
sI638
F0.0
sI1407
F0.0
sI1667
F0.0
sI7045
F0.0
sI646
F0.0
sI651
F0.0
sI653
F0.0
sI142
F0.3200000000000001
sI635
F0.0
sI1170
F0.0
sI662
F0.16
sI2967
F0.0
sI664
F0.0
sI3232
F0.0
sI1441
F0.0
sI2978
F0.0
sI2727
F0.0
sI4008
F0.0
sI170
F0.0
sI427
F0.0
sI4015
F0.0
sI1718
F0.0
sI884
F0.0
sI2234
F0.0
sI444
F0.0
sI1725
F0.0
sI448
F0.0
sI705
F0.0
sI1474
F0.0
sI196
F0.0
sI3525
F0.0
sI1223
F0.0
sI825
F0.0
sI547
F0.0
sI1492
F0.0
sI71381
F0.0
sI726
F0.0
sI36
F0.0
sI1499
F0.0
sI6034
F0.0
sI71392
F0.0
sI738
F0.0
sI739
F0.0
sI2277
F0.0
sI1514
F0.0
sI493
F0.16
sI3063
F0.0
sI1017
F0.0
sI4090
F0.0
sI1531
F0.0
sI764
F0.0
sI767
F0.0
sg2
(g6
S'\xf4\xf7)[\xcfP\xb3?'
p85
tp86
Rp87
g12
I3
F0.5
tp88
a(I16
F4351.282748937607
(dp89
I1537
F0.0
sI2
F0.0
sI771
F0.0
sI7425
F0.0
sI3848
F0.0
sI2064
F0.0
sI23
F0.0
sI280
F0.0
sI28
F0.0
sI31
F0.34000000000000014
sI32
F0.34000000000000014
sI1570
F0.0
sI35
F0.34000000000000014
sI1060
F0.0
sI1833
F0.0
sI45
F0.0
sI564
F0.0
sI1845
F0.0
sI1847
F0.0
sI1849
F0.0
sI1594
F0.0
sI1855
F0.0
sI6465
F0.0
sI67
F0.0
sI2116
F0.0
sI587
F0.0
sI591
F0.0
sI3922
F0.0
sI2702
F0.0
sI6487
F0.0
sI1624
F0.0
sI601
F0.0
sI1377
F0.0
sI1634
F0.0
sI1636
F0.0
sI5222
F0.0
sI2406
F0.0
sI4200
F0.0
sI5225
F0.0
sI6506
F0.0
sI146
F0.0
sI5230
F0.0
sI6001
F0.0
sI1394
F0.0
sI6772
F0.0
sI630
F0.0
sI120
F0.0
sI4927
F0.0
sI638
F0.0
sI1407
F0.0
sI1667
F0.0
sI7045
F0.0
sI646
F0.0
sI651
F0.0
sI653
F0.0
sI142
F0.34000000000000014
sI635
F0.0
sI1170
F0.0
sI662
F0.17
sI2967
F0.0
sI664
F0.0
sI3232
F0.0
sI1441
F0.0
sI2978
F0.0
sI2727
F0.0
sI4008
F0.0
sI170
F0.0
sI427
F0.0
sI4015
F0.0
sI1718
F0.0
sI884
F0.0
sI2234
F0.0
sI444
F0.0
sI1725
F0.0
sI448
F0.0
sI705
F0.0
sI1474
F0.0
sI196
F0.0
sI3525
F0.0
sI1223
F0.0
sI825
F0.0
sI547
F0.0
sI1492
F0.0
sI71381
F0.0
sI726
F0.0
sI36
F0.0
sI1499
F0.0
sI6034
F0.0
sI71392
F0.0
sI738
F0.0
sI739
F0.0
sI2277
F0.0
sI1514
F0.0
sI493
F0.17
sI3063
F0.0
sI1017
F0.0
sI4090
F0.0
sI1531
F0.0
sI764
F0.0
sI767
F0.0
sg2
(g6
S'\x04\xbc\xf2>\x12\x07\xb4?'
p90
tp91
Rp92
g12
I3
F0.5
tp93
a(I17
F4608.788613080978
(dp94
I1537
F0.0
sI2
F0.0
sI771
F0.0
sI7425
F0.0
sI3848
F0.0
sI2064
F0.0
sI23
F0.0
sI280
F0.0
sI28
F0.0
sI31
F0.36000000000000015
sI32
F0.36000000000000015
sI1570
F0.0
sI35
F0.36000000000000015
sI1060
F0.0
sI1833
F0.0
sI45
F0.0
sI564
F0.0
sI1845
F0.0
sI1847
F0.0
sI1849
F0.0
sI1594
F0.0
sI1855
F0.0
sI6465
F0.0
sI67
F0.0
sI2116
F0.0
sI587
F0.0
sI591
F0.0
sI3922
F0.0
sI2702
F0.0
sI6487
F0.0
sI1624
F0.0
sI601
F0.0
sI1377
F0.0
sI1634
F0.0
sI1636
F0.0
sI5222
F0.0
sI2406
F0.0
sI4200
F0.0
sI5225
F0.0
sI6506
F0.0
sI146
F0.0
sI5230
F0.0
sI6001
F0.0
sI1394
F0.0
sI6772
F0.0
sI630
F0.0
sI120
F0.0
sI4927
F0.0
sI638
F0.0
sI1407
F0.0
sI1667
F0.0
sI7045
F0.0
sI646
F0.0
sI651
F0.0
sI653
F0.0
sI142
F0.36000000000000015
sI635
F0.0
sI1170
F0.0
sI662
F0.18000000000000002
sI2967
F0.0
sI664
F0.0
sI3232
F0.0
sI1441
F0.0
sI2978
F0.0
sI2727
F0.0
sI4008
F0.0
sI170
F0.0
sI427
F0.0
sI4015
F0.0
sI1718
F0.0
sI884
F0.0
sI2234
F0.0
sI444
F0.0
sI1725
F0.0
sI448
F0.0
sI705
F0.0
sI1474
F0.0
sI196
F0.0
sI3525
F0.0
sI1223
F0.0
sI825
F0.0
sI547
F0.0
sI1492
F0.0
sI71381
F0.0
sI726
F0.0
sI36
F0.0
sI1499
F0.0
sI6034
F0.0
sI71392
F0.0
sI738
F0.0
sI739
F0.0
sI2277
F0.0
sI1514
F0.0
sI493
F0.18000000000000002
sI3063
F0.0
sI1017
F0.0
sI4090
F0.0
sI1531
F0.0
sI764
F0.0
sI767
F0.0
sg2
(g6
S'/\xffP\x85\x8c\xb3\xb4?'
p95
tp96
Rp97
g12
I3
F0.5
tp98
a(I18
F4865.046579122543
(dp99
I1537
F0.0
sI2
F0.0
sI771
F0.0
sI7425
F0.0
sI3848
F0.0
sI2064
F0.0
sI23
F0.0
sI280
F0.0
sI28
F0.0
sI31
F0.38000000000000017
sI32
F0.38000000000000017
sI1570
F0.0
sI35
F0.38000000000000017
sI1060
F0.0
sI1833
F0.0
sI45
F0.0
sI564
F0.0
sI1845
F0.0
sI1847
F0.0
sI1849
F0.0
sI1594
F0.0
sI1855
F0.0
sI6465
F0.0
sI67
F0.0
sI2116
F0.0
sI587
F0.0
sI591
F0.0
sI3922
F0.0
sI2702
F0.0
sI6487
F0.0
sI1624
F0.0
sI601
F0.0
sI1377
F0.0
sI1634
F0.0
sI1636
F0.0
sI5222
F0.0
sI2406
F0.0
sI4200
F0.0
sI5225
F0.0
sI6506
F0.0
sI146
F0.0
sI5230
F0.0
sI6001
F0.0
sI1394
F0.0
sI6772
F0.0
sI630
F0.0
sI120
F0.0
sI4927
F0.0
sI638
F0.0
sI1407
F0.0
sI1667
F0.0
sI7045
F0.0
sI646
F0.0
sI651
F0.0
sI653
F0.0
sI142
F0.38000000000000017
sI635
F0.0
sI1170
F0.0
sI662
F0.19000000000000003
sI2967
F0.0
sI664
F0.0
sI3232
F0.0
sI1441
F0.0
sI2978
F0.0
sI2727
F0.0
sI4008
F0.0
sI170
F0.0
sI427
F0.0
sI4015
F0.0
sI1718
F0.0
sI884
F0.0
sI2234
F0.0
sI444
F0.0
sI1725
F0.0
sI448
F0.0
sI705
F0.0
sI1474
F0.0
sI196
F0.0
sI3525
F0.0
sI1223
F0.0
sI825
F0.0
sI547
F0.0
sI1492
F0.0
sI71381
F0.0
sI726
F0.0
sI36
F0.0
sI1499
F0.0
sI6034
F0.0
sI71392
F0.0
sI738
F0.0
sI739
F0.0
sI2277
F0.0
sI1514
F0.0
sI493
F0.19000000000000003
sI3063
F0.0
sI1017
F0.0
sI4090
F0.0
sI1531
F0.0
sI764
F0.0
sI767
F0.0
sg2
(g6
S'\x83[\xa1\xa8\xe4V\xb5?'
p100
tp101
Rp102
g12
I3
F0.5
tp103
a(I19
F5124.177820920944
(dp104
I1537
F0.0
sI2
F0.0
sI771
F0.0
sI7425
F0.0
sI3848
F0.0
sI2064
F0.0
sI23
F0.0
sI280
F0.0
sI28
F0.0
sI31
F0.4000000000000002
sI32
F0.4000000000000002
sI1570
F0.0
sI35
F0.4000000000000002
sI1060
F0.0
sI1833
F0.0
sI45
F0.0
sI564
F0.0
sI1845
F0.0
sI1847
F0.0
sI1849
F0.0
sI1594
F0.0
sI1855
F0.0
sI6465
F0.0
sI67
F0.0
sI2116
F0.0
sI587
F0.0
sI591
F0.0
sI3922
F0.0
sI2702
F0.0
sI6487
F0.0
sI1624
F0.0
sI601
F0.0
sI1377
F0.0
sI1634
F0.0
sI1636
F0.0
sI5222
F0.0
sI2406
F0.0
sI4200
F0.0
sI5225
F0.0
sI6506
F0.0
sI146
F0.0
sI5230
F0.0
sI6001
F0.0
sI1394
F0.0
sI6772
F0.0
sI630
F0.0
sI120
F0.0
sI4927
F0.0
sI638
F0.0
sI1407
F0.0
sI1667
F0.0
sI7045
F0.0
sI646
F0.0
sI651
F0.0
sI653
F0.0
sI142
F0.4000000000000002
sI635
F0.0
sI1170
F0.0
sI662
F0.20000000000000004
sI2967
F0.0
sI664
F0.0
sI3232
F0.0
sI1441
F0.0
sI2978
F0.0
sI2727
F0.0
sI4008
F0.0
sI170
F0.0
sI427
F0.0
sI4015
F0.0
sI1718
F0.0
sI884
F0.0
sI2234
F0.0
sI444
F0.0
sI1725
F0.0
sI448
F0.0
sI705
F0.0
sI1474
F0.0
sI196
F0.0
sI3525
F0.0
sI1223
F0.0
sI825
F0.0
sI547
F0.0
sI1492
F0.0
sI71381
F0.0
sI726
F0.0
sI36
F0.0
sI1499
F0.0
sI6034
F0.0
sI71392
F0.0
sI738
F0.0
sI739
F0.0
sI2277
F0.0
sI1514
F0.0
sI493
F0.20000000000000004
sI3063
F0.0
sI1017
F0.0
sI4090
F0.0
sI1531
F0.0
sI764
F0.0
sI767
F0.0
sg2
(g6
S'\xf5\x078h\xb8\xf1\xb5?'
p105
tp106
Rp107
g12
I3
F0.5
tp108
a(I20
F5379.682380914688
(dp109
I1537
F0.0
sI2
F0.0
sI771
F0.0
sI7425
F0.0
sI3848
F0.0
sI2064
F0.0
sI23
F0.0
sI280
F0.0
sI28
F0.0
sI31
F0.4200000000000002
sI32
F0.4200000000000002
sI1570
F0.0
sI35
F0.4200000000000002
sI1060
F0.0
sI1833
F0.0
sI45
F0.0
sI564
F0.0
sI1845
F0.0
sI1847
F0.0
sI1849
F0.0
sI1594
F0.0
sI1855
F0.0
sI6465
F0.0
sI67
F0.0
sI2116
F0.0
sI587
F0.0
sI591
F0.0
sI3922
F0.0
sI2702
F0.0
sI6487
F0.0
sI1624
F0.0
sI601
F0.0
sI1377
F0.0
sI1634
F0.0
sI1636
F0.0
sI5222
F0.0
sI2406
F0.0
sI4200
F0.0
sI5225
F0.0
sI6506
F0.0
sI146
F0.0
sI5230
F0.0
sI6001
F0.0
sI1394
F0.0
sI6772
F0.0
sI630
F0.0
sI120
F0.0
sI4927
F0.0
sI638
F0.0
sI1407
F0.0
sI1667
F0.0
sI7045
F0.0
sI646
F0.0
sI651
F0.0
sI653
F0.0
sI142
F0.4200000000000002
sI635
F0.0
sI1170
F0.0
sI662
F0.21000000000000005
sI2967
F0.0
sI664
F0.0
sI3232
F0.0
sI1441
F0.0
sI2978
F0.0
sI2727
F0.0
sI4008
F0.0
sI170
F0.0
sI427
F0.0
sI4015
F0.0
sI1718
F0.0
sI884
F0.0
sI2234
F0.0
sI444
F0.0
sI1725
F0.0
sI448
F0.0
sI705
F0.0
sI1474
F0.0
sI196
F0.0
sI3525
F0.0
sI1223
F0.0
sI825
F0.0
sI547
F0.0
sI1492
F0.0
sI71381
F0.0
sI726
F0.0
sI36
F0.0
sI1499
F0.0
sI6034
F0.0
sI71392
F0.0
sI738
F0.0
sI739
F0.0
sI2277
F0.0
sI1514
F0.0
sI493
F0.21000000000000005
sI3063
F0.0
sI1017
F0.0
sI4090
F0.0
sI1531
F0.0
sI764
F0.0
sI767
F0.0
sg2
(g6
S'\x05\xca\x1b3\x9d\x84\xb6?'
p110
tp111
Rp112
g12
I3
F0.5
tp113
a(I21
F5636.843419075012
(dp114
I1537
F0.0
sI2
F0.0
sI771
F0.0
sI7425
F0.0
sI3848
F0.0
sI2064
F0.0
sI23
F0.0
sI280
F0.0
sI28
F0.0
sI31
F0.4400000000000002
sI32
F0.4400000000000002
sI1570
F0.0
sI35
F0.4400000000000002
sI1060
F0.0
sI1833
F0.0
sI45
F0.0
sI564
F0.0
sI1845
F0.0
sI1847
F0.0
sI1849
F0.0
sI1594
F0.0
sI1855
F0.0
sI6465
F0.0
sI67
F0.0
sI2116
F0.0
sI587
F0.0
sI591
F0.0
sI3922
F0.0
sI2702
F0.0
sI6487
F0.0
sI1624
F0.0
sI601
F0.0
sI1377
F0.0
sI1634
F0.0
sI1636
F0.0
sI5222
F0.0
sI2406
F0.0
sI4200
F0.0
sI5225
F0.0
sI6506
F0.0
sI146
F0.0
sI5230
F0.0
sI6001
F0.0
sI1394
F0.0
sI6772
F0.0
sI630
F0.0
sI120
F0.0
sI4927
F0.0
sI638
F0.0
sI1407
F0.0
sI1667
F0.0
sI7045
F0.0
sI646
F0.0
sI651
F0.0
sI653
F0.0
sI142
F0.4400000000000002
sI635
F0.0
sI1170
F0.0
sI662
F0.22000000000000006
sI2967
F0.0
sI664
F0.0
sI3232
F0.0
sI1441
F0.0
sI2978
F0.0
sI2727
F0.0
sI4008
F0.0
sI170
F0.0
sI427
F0.0
sI4015
F0.0
sI1718
F0.0
sI884
F0.0
sI2234
F0.0
sI444
F0.0
sI1725
F0.0
sI448
F0.0
sI705
F0.0
sI1474
F0.0
sI196
F0.0
sI3525
F0.0
sI1223
F0.0
sI825
F0.0
sI547
F0.0
sI1492
F0.0
sI71381
F0.0
sI726
F0.0
sI36
F0.0
sI1499
F0.0
sI6034
F0.0
sI71392
F0.0
sI738
F0.0
sI739
F0.0
sI2277
F0.0
sI1514
F0.0
sI493
F0.22000000000000006
sI3063
F0.0
sI1017
F0.0
sI4090
F0.0
sI1531
F0.0
sI764
F0.0
sI767
F0.0
sg2
(g6
S'\x07\xa4\x8a\x8a \x10\xb7?'
p115
tp116
Rp117
g12
I3
F0.5
tp118
a(I22
F5891.606071949005
(dp119
I1537
F0.0
sI2
F0.0
sI771
F0.0
sI7425
F0.0
sI3848
F0.0
sI2064
F0.0
sI23
F0.0
sI280
F0.0
sI28
F0.0
sI31
F0.46000000000000024
sI32
F0.46000000000000024
sI1570
F0.0
sI35
F0.46000000000000024
sI1060
F0.0
sI1833
F0.0
sI45
F0.0
sI564
F0.0
sI1845
F0.0
sI1847
F0.0
sI1849
F0.0
sI1594
F0.0
sI1855
F0.0
sI6465
F0.0
sI67
F0.0
sI2116
F0.0
sI587
F0.0
sI591
F0.0
sI3922
F0.0
sI2702
F0.0
sI6487
F0.0
sI1624
F0.0
sI601
F0.0
sI1377
F0.0
sI1634
F0.0
sI1636
F0.0
sI5222
F0.0
sI2406
F0.0
sI4200
F0.0
sI5225
F0.0
sI6506
F0.0
sI146
F0.0
sI5230
F0.0
sI6001
F0.0
sI1394
F0.0
sI6772
F0.0
sI630
F0.0
sI120
F0.0
sI4927
F0.0
sI638
F0.0
sI1407
F0.0
sI1667
F0.0
sI7045
F0.0
sI646
F0.0
sI651
F0.0
sI653
F0.0
sI142
F0.46000000000000024
sI635
F0.0
sI1170
F0.0
sI662
F0.23000000000000007
sI2967
F0.0
sI664
F0.0
sI3232
F0.0
sI1441
F0.0
sI2978
F0.0
sI2727
F0.0
sI4008
F0.0
sI170
F0.0
sI427
F0.0
sI4015
F0.0
sI1718
F0.0
sI884
F0.0
sI2234
F0.0
sI444
F0.0
sI1725
F0.0
sI448
F0.0
sI705
F0.0
sI1474
F0.0
sI196
F0.0
sI3525
F0.0
sI1223
F0.0
sI825
F0.0
sI547
F0.0
sI1492
F0.0
sI71381
F0.0
sI726
F0.0
sI36
F0.0
sI1499
F0.0
sI6034
F0.0
sI71392
F0.0
sI738
F0.0
sI739
F0.0
sI2277
F0.0
sI1514
F0.0
sI493
F0.23000000000000007
sI3063
F0.0
sI1017
F0.0
sI4090
F0.0
sI1531
F0.0
sI764
F0.0
sI767
F0.0
sg2
(g6
S'k\x03"]\xc8\x94\xb7?'
p120
tp121
Rp122
g12
I3
F0.5
tp123
a(I23
F6148.23911690712
(dp124
I1537
F0.0
sI2
F0.0
sI771
F0.0
sI7425
F0.0
sI3848
F0.0
sI2064
F0.0
sI23
F0.0
sI280
F0.0
sI28
F0.0
sI31
F0.48000000000000026
sI32
F0.48000000000000026
sI1570
F0.0
sI35
F0.48000000000000026
sI1060
F0.0
sI1833
F0.0
sI45
F0.0
sI564
F0.0
sI1845
F0.0
sI1847
F0.0
sI1849
F0.0
sI1594
F0.0
sI1855
F0.0
sI6465
F0.0
sI67
F0.0
sI2116
F0.0
sI587
F0.0
sI591
F0.0
sI3922
F0.0
sI2702
F0.0
sI6487
F0.0
sI1624
F0.0
sI601
F0.0
sI1377
F0.0
sI1634
F0.0
sI1636
F0.0
sI5222
F0.0
sI2406
F0.0
sI4200
F0.0
sI5225
F0.0
sI6506
F0.0
sI146
F0.0
sI5230
F0.0
sI6001
F0.0
sI1394
F0.0
sI6772
F0.0
sI630
F0.0
sI120
F0.0
sI4927
F0.0
sI638
F0.0
sI1407
F0.0
sI1667
F0.0
sI7045
F0.0
sI646
F0.0
sI651
F0.0
sI653
F0.0
sI142
F0.48000000000000026
sI635
F0.0
sI1170
F0.0
sI662
F0.24000000000000007
sI2967
F0.0
sI664
F0.0
sI3232
F0.0
sI1441
F0.0
sI2978
F0.0
sI2727
F0.0
sI4008
F0.0
sI170
F0.0
sI427
F0.0
sI4015
F0.0
sI1718
F0.0
sI884
F0.0
sI2234
F0.0
sI444
F0.0
sI1725
F0.0
sI448
F0.0
sI705
F0.0
sI1474
F0.0
sI196
F0.0
sI3525
F0.0
sI1223
F0.0
sI825
F0.0
sI547
F0.0
sI1492
F0.0
sI71381
F0.0
sI726
F0.0
sI36
F0.0
sI1499
F0.0
sI6034
F0.0
sI71392
F0.0
sI738
F0.0
sI739
F0.0
sI2277
F0.0
sI1514
F0.0
sI493
F0.24000000000000007
sI3063
F0.0
sI1017
F0.0
sI4090
F0.0
sI1531
F0.0
sI764
F0.0
sI767
F0.0
sg2
(g6
S'\xfc\xbem[\x13\x13\xb8?'
p125
tp126
Rp127
g12
I3
F0.5
tp128
a(I24
F6402.684669971466
(dp129
I1537
F0.0
sI2
F0.0
sI771
F0.0
sI7425
F0.0
sI3848
F0.0
sI2064
F0.0
sI23
F0.0
sI280
F0.0
sI28
F0.0
sI31
F0.5000000000000002
sI32
F0.5000000000000002
sI1570
F0.0
sI35
F0.5000000000000002
sI1060
F0.0
sI1833
F0.0
sI45
F0.0
sI564
F0.0
sI1845
F0.0
sI1847
F0.0
sI1849
F0.0
sI1594
F0.0
sI1855
F0.0
sI6465
F0.0
sI67
F0.0
sI2116
F0.0
sI587
F0.0
sI591
F0.0
sI3922
F0.0
sI2702
F0.0
sI6487
F0.0
sI1624
F0.0
sI601
F0.0
sI1377
F0.0
sI1634
F0.0
sI1636
F0.0
sI5222
F0.0
sI2406
F0.0
sI4200
F0.0
sI5225
F0.0
sI6506
F0.0
sI146
F0.0
sI5230
F0.0
sI6001
F0.0
sI1394
F0.0
sI6772
F0.0
sI630
F0.0
sI120
F0.0
sI4927
F0.0
sI638
F0.0
sI1407
F0.0
sI1667
F0.0
sI7045
F0.0
sI646
F0.0
sI651
F0.0
sI653
F0.0
sI142
F0.5000000000000002
sI635
F0.0
sI1170
F0.0
sI662
F0.25000000000000006
sI2967
F0.0
sI664
F0.0
sI3232
F0.0
sI1441
F0.0
sI2978
F0.0
sI2727
F0.0
sI4008
F0.0
sI170
F0.0
sI427
F0.0
sI4015
F0.0
sI1718
F0.0
sI884
F0.0
sI2234
F0.0
sI444
F0.0
sI1725
F0.0
sI448
F0.0
sI705
F0.0
sI1474
F0.0
sI196
F0.0
sI3525
F0.0
sI1223
F0.0
sI825
F0.0
sI547
F0.0
sI1492
F0.0
sI71381
F0.0
sI726
F0.0
sI36
F0.0
sI1499
F0.0
sI6034
F0.0
sI71392
F0.0
sI738
F0.0
sI739
F0.0
sI2277
F0.0
sI1514
F0.0
sI493
F0.25000000000000006
sI3063
F0.0
sI1017
F0.0
sI4090
F0.0
sI1531
F0.0
sI764
F0.0
sI767
F0.0
sg2
(g6
S'\xb0D\x8dFy\x8b\xb8?'
p130
tp131
Rp132
g12
I3
F0.5
tp133
a(I25
F6658.738883972168
(dp134
I1537
F0.0
sI2
F0.0
sI771
F0.0
sI7425
F0.0
sI3848
F0.0
sI2064
F0.0
sI23
F0.0
sI280
F0.0
sI28
F0.0
sI31
F0.5200000000000002
sI32
F0.5200000000000002
sI1570
F0.0
sI35
F0.5000000000000002
sI1060
F0.0
sI1833
F0.0
sI45
F0.0
sI564
F0.0
sI1845
F0.0
sI1847
F0.0
sI1849
F0.0
sI1594
F0.0
sI1855
F0.0
sI6465
F0.0
sI67
F0.0
sI2116
F0.0
sI587
F0.0
sI591
F0.0
sI3922
F0.0
sI2702
F0.0
sI6487
F0.0
sI1624
F0.0
sI601
F0.0
sI1377
F0.0
sI1634
F0.0
sI1636
F0.0
sI5222
F0.0
sI2406
F0.0
sI4200
F0.0
sI5225
F0.0
sI6506
F0.0
sI146
F0.0
sI5230
F0.0
sI6001
F0.0
sI1394
F0.0
sI6772
F0.0
sI630
F0.0
sI120
F0.02
sI4927
F0.0
sI638
F0.0
sI1407
F0.0
sI1667
F0.0
sI7045
F0.0
sI646
F0.0
sI651
F0.0
sI653
F0.0
sI142
F0.5200000000000002
sI635
F0.0
sI1170
F0.0
sI662
F0.26000000000000006
sI2967
F0.0
sI664
F0.0
sI3232
F0.0
sI1441
F0.0
sI2978
F0.0
sI2727
F0.0
sI4008
F0.0
sI170
F0.0
sI427
F0.0
sI4015
F0.0
sI1718
F0.0
sI884
F0.0
sI2234
F0.0
sI444
F0.0
sI1725
F0.0
sI448
F0.0
sI705
F0.0
sI1474
F0.0
sI196
F0.0
sI3525
F0.0
sI1223
F0.0
sI825
F0.0
sI547
F0.0
sI1492
F0.0
sI71381
F0.0
sI726
F0.0
sI36
F0.0
sI1499
F0.0
sI6034
F0.0
sI71392
F0.0
sI738
F0.0
sI739
F0.0
sI2277
F0.0
sI1514
F0.0
sI493
F0.26000000000000006
sI3063
F0.0
sI1017
F0.0
sI4090
F0.0
sI1531
F0.0
sI764
F0.0
sI767
F0.0
sg2
(g6
S'\xd0j\x0c\xfb\x0b\x01\xb9?'
p135
tp136
Rp137
g12
I3
F0.5
tp138
a(I26
F6915.61493396759
(dp139
I1537
F0.0
sI2
F0.0
sI771
F0.0
sI7425
F0.0
sI3848
F0.0
sI2064
F0.0
sI23
F0.0
sI280
F0.0
sI28
F0.0
sI31
F0.5400000000000003
sI32
F0.5400000000000003
sI1570
F0.0
sI35
F0.5000000000000002
sI1060
F0.0
sI1833
F0.0
sI45
F0.0
sI564
F0.0
sI1845
F0.0
sI1847
F0.0
sI1849
F0.0
sI1594
F0.0
sI1855
F0.0
sI6465
F0.0
sI67
F0.0
sI2116
F0.0
sI587
F0.0
sI591
F0.0
sI3922
F0.0
sI2702
F0.0
sI6487
F0.0
sI1624
F0.0
sI601
F0.0
sI1377
F0.0
sI1634
F0.0
sI1636
F0.0
sI5222
F0.0
sI2406
F0.0
sI4200
F0.0
sI5225
F0.0
sI6506
F0.0
sI146
F0.0
sI5230
F0.0
sI6001
F0.0
sI1394
F0.0
sI6772
F0.0
sI630
F0.0
sI120
F0.04
sI4927
F0.0
sI638
F0.0
sI1407
F0.0
sI1667
F0.0
sI7045
F0.0
sI646
F0.0
sI651
F0.0
sI653
F0.0
sI142
F0.5400000000000003
sI635
F0.0
sI1170
F0.0
sI662
F0.2700000000000001
sI2967
F0.0
sI664
F0.0
sI3232
F0.0
sI1441
F0.0
sI2978
F0.0
sI2727
F0.0
sI4008
F0.0
sI170
F0.0
sI427
F0.0
sI4015
F0.0
sI1718
F0.0
sI884
F0.0
sI2234
F0.0
sI444
F0.0
sI1725
F0.0
sI448
F0.0
sI705
F0.0
sI1474
F0.0
sI196
F0.0
sI3525
F0.0
sI1223
F0.0
sI825
F0.0
sI547
F0.0
sI1492
F0.0
sI71381
F0.0
sI726
F0.0
sI36
F0.0
sI1499
F0.0
sI6034
F0.0
sI71392
F0.0
sI738
F0.0
sI739
F0.0
sI2277
F0.0
sI1514
F0.0
sI493
F0.2700000000000001
sI3063
F0.0
sI1017
F0.0
sI4090
F0.0
sI1531
F0.0
sI764
F0.0
sI767
F0.0
sg2
(g6
S'{!\x94\x87\xacs\xb9?'
p140
tp141
Rp142
g12
I3
F0.5
tp143
a(I27
F7173.0521941185
(dp144
I1537
F0.0
sI2
F0.0
sI771
F0.0
sI7425
F0.0
sI3848
F0.0
sI2064
F0.0
sI23
F0.0
sI280
F0.0
sI28
F0.0
sI31
F0.5600000000000003
sI32
F0.5600000000000003
sI1570
F0.0
sI35
F0.5000000000000002
sI1060
F0.0
sI1833
F0.0
sI45
F0.0
sI564
F0.0
sI1845
F0.0
sI1847
F0.0
sI1849
F0.0
sI1594
F0.0
sI1855
F0.0
sI6465
F0.0
sI67
F0.0
sI2116
F0.0
sI587
F0.0
sI591
F0.0
sI3922
F0.0
sI2702
F0.0
sI6487
F0.0
sI1624
F0.0
sI601
F0.0
sI1377
F0.0
sI1634
F0.0
sI1636
F0.0
sI5222
F0.0
sI2406
F0.0
sI4200
F0.0
sI5225
F0.0
sI6506
F0.0
sI146
F0.0
sI5230
F0.0
sI6001
F0.0
sI1394
F0.0
sI6772
F0.0
sI630
F0.0
sI120
F0.060000000000000005
sI4927
F0.0
sI638
F0.0
sI1407
F0.0
sI1667
F0.0
sI7045
F0.0
sI646
F0.0
sI651
F0.0
sI653
F0.0
sI142
F0.5600000000000003
sI635
F0.0
sI1170
F0.0
sI662
F0.2800000000000001
sI2967
F0.0
sI664
F0.0
sI3232
F0.0
sI1441
F0.0
sI2978
F0.0
sI2727
F0.0
sI4008
F0.0
sI170
F0.0
sI427
F0.0
sI4015
F0.0
sI1718
F0.0
sI884
F0.0
sI2234
F0.0
sI444
F0.0
sI1725
F0.0
sI448
F0.0
sI705
F0.0
sI1474
F0.0
sI196
F0.0
sI3525
F0.0
sI1223
F0.0
sI825
F0.0
sI547
F0.0
sI1492
F0.0
sI71381
F0.0
sI726
F0.0
sI36
F0.0
sI1499
F0.0
sI6034
F0.0
sI71392
F0.0
sI738
F0.0
sI739
F0.0
sI2277
F0.0
sI1514
F0.0
sI493
F0.2800000000000001
sI3063
F0.0
sI1017
F0.0
sI4090
F0.0
sI1531
F0.0
sI764
F0.0
sI767
F0.0
sg2
(g6
S'C.<\x05{\xe3\xb9?'
p145
tp146
Rp147
g12
I3
F0.5
tp148
a(I28
F7429.565666913986
(dp149
I1537
F0.0
sI2
F0.0
sI771
F0.0
sI7425
F0.0
sI3848
F0.0
sI2064
F0.0
sI23
F0.0
sI280
F0.0
sI28
F0.0
sI31
F0.5800000000000003
sI32
F0.5800000000000003
sI1570
F0.0
sI35
F0.5000000000000002
sI1060
F0.0
sI1833
F0.0
sI45
F0.0
sI564
F0.0
sI1845
F0.0
sI1847
F0.0
sI1849
F0.0
sI1594
F0.0
sI1855
F0.0
sI6465
F0.0
sI67
F0.0
sI2116
F0.0
sI587
F0.0
sI591
F0.0
sI3922
F0.0
sI2702
F0.0
sI6487
F0.0
sI1624
F0.0
sI601
F0.0
sI1377
F0.0
sI1634
F0.0
sI1636
F0.0
sI5222
F0.0
sI2406
F0.0
sI4200
F0.0
sI5225
F0.0
sI6506
F0.0
sI146
F0.0
sI5230
F0.0
sI6001
F0.0
sI1394
F0.0
sI6772
F0.0
sI630
F0.0
sI120
F0.08
sI4927
F0.0
sI638
F0.0
sI1407
F0.0
sI1667
F0.0
sI7045
F0.0
sI646
F0.0
sI651
F0.0
sI653
F0.0
sI142
F0.5800000000000003
sI635
F0.0
sI1170
F0.0
sI662
F0.2900000000000001
sI2967
F0.0
sI664
F0.0
sI3232
F0.0
sI1441
F0.0
sI2978
F0.0
sI2727
F0.0
sI4008
F0.0
sI170
F0.0
sI427
F0.0
sI4015
F0.0
sI1718
F0.0
sI884
F0.0
sI2234
F0.0
sI444
F0.0
sI1725
F0.0
sI448
F0.0
sI705
F0.0
sI1474
F0.0
sI196
F0.0
sI3525
F0.0
sI1223
F0.0
sI825
F0.0
sI547
F0.0
sI1492
F0.0
sI71381
F0.0
sI726
F0.0
sI36
F0.0
sI1499
F0.0
sI6034
F0.0
sI71392
F0.0
sI738
F0.0
sI739
F0.0
sI2277
F0.0
sI1514
F0.0
sI493
F0.2900000000000001
sI3063
F0.0
sI1017
F0.0
sI4090
F0.0
sI1531
F0.0
sI764
F0.0
sI767
F0.0
sg2
(g6
S'\xec++\xab\x96P\xba?'
p150
tp151
Rp152
g12
I3
F0.5
tp153
a(I29
F7685.928427934647
(dp154
I1537
F0.0
sI2
F0.0
sI771
F0.0
sI7425
F0.0
sI3848
F0.0
sI2064
F0.0
sI23
F0.0
sI280
F0.0
sI28
F0.0
sI31
F0.6000000000000003
sI32
F0.6000000000000003
sI1570
F0.0
sI35
F0.5000000000000002
sI1060
F0.0
sI1833
F0.0
sI45
F0.0
sI564
F0.0
sI1845
F0.0
sI1847
F0.0
sI1849
F0.0
sI1594
F0.0
sI1855
F0.0
sI6465
F0.0
sI67
F0.0
sI2116
F0.0
sI587
F0.0
sI591
F0.0
sI3922
F0.0
sI2702
F0.0
sI6487
F0.0
sI1624
F0.0
sI601
F0.0
sI1377
F0.0
sI1634
F0.0
sI1636
F0.0
sI5222
F0.0
sI2406
F0.0
sI4200
F0.0
sI5225
F0.0
sI6506
F0.0
sI146
F0.0
sI5230
F0.0
sI6001
F0.0
sI1394
F0.0
sI6772
F0.0
sI630
F0.0
sI120
F0.09999999999999999
sI4927
F0.0
sI638
F0.0
sI1407
F0.0
sI1667
F0.0
sI7045
F0.0
sI646
F0.0
sI651
F0.0
sI653
F0.0
sI142
F0.6000000000000003
sI635
F0.0
sI1170
F0.0
sI662
F0.3000000000000001
sI2967
F0.0
sI664
F0.0
sI3232
F0.0
sI1441
F0.0
sI2978
F0.0
sI2727
F0.0
sI4008
F0.0
sI170
F0.0
sI427
F0.0
sI4015
F0.0
sI1718
F0.0
sI884
F0.0
sI2234
F0.0
sI444
F0.0
sI1725
F0.0
sI448
F0.0
sI705
F0.0
sI1474
F0.0
sI196
F0.0
sI3525
F0.0
sI1223
F0.0
sI825
F0.0
sI547
F0.0
sI1492
F0.0
sI71381
F0.0
sI726
F0.0
sI36
F0.0
sI1499
F0.0
sI6034
F0.0
sI71392
F0.0
sI738
F0.0
sI739
F0.0
sI2277
F0.0
sI1514
F0.0
sI493
F0.3000000000000001
sI3063
F0.0
sI1017
F0.0
sI4090
F0.0
sI1531
F0.0
sI764
F0.0
sI767
F0.0
sg2
(g6
S'\xb0^q\xd3\x1d\xbb\xba?'
p155
tp156
Rp157
g12
I3
F0.5
tp158
a(I30
F7940.070697069168
(dp159
I1537
F0.0
sI2
F0.0
sI771
F0.0
sI7425
F0.0
sI3848
F0.0
sI2064
F0.0
sI23
F0.0
sI280
F0.0
sI28
F0.0
sI31
F0.6200000000000003
sI32
F0.6200000000000003
sI1570
F0.0
sI35
F0.5000000000000002
sI1060
F0.0
sI1833
F0.0
sI45
F0.0
sI564
F0.0
sI1845
F0.0
sI1847
F0.0
sI1849
F0.0
sI1594
F0.0
sI1855
F0.0
sI6465
F0.0
sI67
F0.0
sI2116
F0.0
sI587
F0.0
sI591
F0.0
sI3922
F0.0
sI2702
F0.0
sI6487
F0.0
sI1624
F0.0
sI601
F0.0
sI1377
F0.0
sI1634
F0.0
sI1636
F0.0
sI5222
F0.0
sI2406
F0.0
sI4200
F0.0
sI5225
F0.0
sI6506
F0.0
sI146
F0.0
sI5230
F0.0
sI6001
F0.0
sI1394
F0.0
sI6772
F0.0
sI630
F0.0
sI120
F0.11999999999999998
sI4927
F0.0
sI638
F0.0
sI1407
F0.0
sI1667
F0.0
sI7045
F0.0
sI646
F0.0
sI651
F0.0
sI653
F0.0
sI142
F0.6200000000000003
sI635
F0.0
sI1170
F0.0
sI662
F0.3100000000000001
sI2967
F0.0
sI664
F0.0
sI3232
F0.0
sI1441
F0.0
sI2978
F0.0
sI2727
F0.0
sI4008
F0.0
sI170
F0.0
sI427
F0.0
sI4015
F0.0
sI1718
F0.0
sI884
F0.0
sI2234
F0.0
sI444
F0.0
sI1725
F0.0
sI448
F0.0
sI705
F0.0
sI1474
F0.0
sI196
F0.0
sI3525
F0.0
sI1223
F0.0
sI825
F0.0
sI547
F0.0
sI1492
F0.0
sI71381
F0.0
sI726
F0.0
sI36
F0.0
sI1499
F0.0
sI6034
F0.0
sI71392
F0.0
sI738
F0.0
sI739
F0.0
sI2277
F0.0
sI1514
F0.0
sI493
F0.3100000000000001
sI3063
F0.0
sI1017
F0.0
sI4090
F0.0
sI1531
F0.0
sI764
F0.0
sI767
F0.0
sg2
(g6
S'\x0c\xdd\x9a\xff-#\xbb?'
p160
tp161
Rp162
g12
I3
F0.5
tp163
a(I31
F8196.87029004097
(dp164
I1537
F0.0
sI2
F0.0
sI771
F0.0
sI7425
F0.0
sI3848
F0.0
sI2064
F0.0
sI23
F0.0
sI280
F0.0
sI28
F0.0
sI31
F0.6200000000000003
sI32
F0.6400000000000003
sI1570
F0.0
sI35
F0.5000000000000002
sI1060
F0.0
sI1833
F0.0
sI45
F0.0
sI564
F0.0
sI1845
F0.0
sI1847
F0.0
sI1849
F0.0
sI1594
F0.0
sI1855
F0.0
sI6465
F0.0
sI67
F0.0
sI2116
F0.0
sI587
F0.0
sI591
F0.0
sI3922
F0.0
sI2702
F0.0
sI6487
F0.0
sI1624
F0.0
sI601
F0.0
sI1377
F0.0
sI1634
F0.0
sI1636
F0.0
sI5222
F0.0
sI2406
F0.0
sI4200
F0.0
sI5225
F0.0
sI6506
F0.0
sI146
F0.02
sI5230
F0.0
sI6001
F0.0
sI1394
F0.0
sI6772
F0.0
sI630
F0.0
sI120
F0.13999999999999999
sI4927
F0.0
sI638
F0.0
sI1407
F0.0
sI1667
F0.0
sI7045
F0.0
sI646
F0.0
sI651
F0.0
sI653
F0.0
sI142
F0.6400000000000003
sI635
F0.0
sI1170
F0.0
sI662
F0.3200000000000001
sI2967
F0.0
sI664
F0.0
sI3232
F0.0
sI1441
F0.0
sI2978
F0.0
sI2727
F0.0
sI4008
F0.0
sI170
F0.0
sI427
F0.0
sI4015
F0.0
sI1718
F0.0
sI884
F0.0
sI2234
F0.0
sI444
F0.0
sI1725
F0.0
sI448
F0.0
sI705
F0.0
sI1474
F0.0
sI196
F0.0
sI3525
F0.0
sI1223
F0.0
sI825
F0.0
sI547
F0.0
sI1492
F0.0
sI71381
F0.0
sI726
F0.0
sI36
F0.0
sI1499
F0.0
sI6034
F0.0
sI71392
F0.0
sI738
F0.0
sI739
F0.0
sI2277
F0.0
sI1514
F0.0
sI493
F0.3200000000000001
sI3063
F0.0
sI1017
F0.0
sI4090
F0.0
sI1531
F0.0
sI764
F0.0
sI767
F0.0
sg2
(g6
S'\xf8\xff\xa2U\xb4\x8a\xbb?'
p165
tp166
Rp167
g12
I3
F0.5
tp168
a(I32
F8454.261735916138
(dp169
I1537
F0.0
sI2
F0.0
sI771
F0.0
sI7425
F0.0
sI3848
F0.0
sI2064
F0.0
sI23
F0.0
sI280
F0.0
sI28
F0.0
sI31
F0.6200000000000003
sI32
F0.6600000000000004
sI1570
F0.0
sI35
F0.5000000000000002
sI1060
F0.0
sI1833
F0.0
sI45
F0.0
sI564
F0.0
sI1845
F0.0
sI1847
F0.0
sI1849
F0.0
sI1594
F0.0
sI1855
F0.0
sI6465
F0.0
sI67
F0.0
sI2116
F0.0
sI587
F0.0
sI591
F0.0
sI3922
F0.0
sI2702
F0.0
sI6487
F0.0
sI1624
F0.0
sI601
F0.0
sI1377
F0.0
sI1634
F0.0
sI1636
F0.0
sI5222
F0.0
sI2406
F0.0
sI4200
F0.0
sI5225
F0.0
sI6506
F0.0
sI146
F0.04
sI5230
F0.0
sI6001
F0.0
sI1394
F0.0
sI6772
F0.0
sI630
F0.0
sI120
F0.16
sI4927
F0.0
sI638
F0.0
sI1407
F0.0
sI1667
F0.0
sI7045
F0.0
sI646
F0.0
sI651
F0.0
sI653
F0.0
sI142
F0.6600000000000004
sI635
F0.0
sI1170
F0.0
sI662
F0.3300000000000001
sI2967
F0.0
sI664
F0.0
sI3232
F0.0
sI1441
F0.0
sI2978
F0.0
sI2727
F0.0
sI4008
F0.0
sI170
F0.0
sI427
F0.0
sI4015
F0.0
sI1718
F0.0
sI884
F0.0
sI2234
F0.0
sI444
F0.0
sI1725
F0.0
sI448
F0.0
sI705
F0.0
sI1474
F0.0
sI196
F0.0
sI3525
F0.0
sI1223
F0.0
sI825
F0.0
sI547
F0.0
sI1492
F0.0
sI71381
F0.0
sI726
F0.0
sI36
F0.0
sI1499
F0.0
sI6034
F0.0
sI71392
F0.0
sI738
F0.0
sI739
F0.0
sI2277
F0.0
sI1514
F0.0
sI493
F0.3300000000000001
sI3063
F0.0
sI1017
F0.0
sI4090
F0.0
sI1531
F0.0
sI764
F0.0
sI767
F0.0
sg2
(g6
S'\x1d\xe65\x07\x84\xf1\xbb?'
p170
tp171
Rp172
g12
I3
F0.5
tp173
a(I33
F8711.856832027435
(dp174
I1537
F0.0
sI2
F0.0
sI771
F0.0
sI7425
F0.0
sI3848
F0.0
sI2064
F0.0
sI23
F0.0
sI280
F0.0
sI28
F0.0
sI31
F0.6200000000000003
sI32
F0.6800000000000004
sI1570
F0.0
sI35
F0.5000000000000002
sI1060
F0.0
sI1833
F0.0
sI45
F0.0
sI564
F0.0
sI1845
F0.0
sI1847
F0.0
sI1849
F0.0
sI1594
F0.0
sI1855
F0.0
sI6465
F0.0
sI67
F0.0
sI2116
F0.0
sI587
F0.0
sI591
F0.0
sI3922
F0.0
sI2702
F0.0
sI6487
F0.0
sI1624
F0.0
sI601
F0.0
sI1377
F0.0
sI1634
F0.0
sI1636
F0.0
sI5222
F0.0
sI2406
F0.0
sI4200
F0.0
sI5225
F0.0
sI6506
F0.0
sI146
F0.060000000000000005
sI5230
F0.0
sI6001
F0.0
sI1394
F0.0
sI6772
F0.0
sI630
F0.0
sI120
F0.18000000000000002
sI4927
F0.0
sI638
F0.0
sI1407
F0.0
sI1667
F0.0
sI7045
F0.0
sI646
F0.0
sI651
F0.0
sI653
F0.0
sI142
F0.6800000000000004
sI635
F0.0
sI1170
F0.0
sI662
F0.34000000000000014
sI2967
F0.0
sI664
F0.0
sI3232
F0.0
sI1441
F0.0
sI2978
F0.0
sI2727
F0.0
sI4008
F0.0
sI170
F0.0
sI427
F0.0
sI4015
F0.0
sI1718
F0.0
sI884
F0.0
sI2234
F0.0
sI444
F0.0
sI1725
F0.0
sI448
F0.0
sI705
F0.0
sI1474
F0.0
sI196
F0.0
sI3525
F0.0
sI1223
F0.0
sI825
F0.0
sI547
F0.0
sI1492
F0.0
sI71381
F0.0
sI726
F0.0
sI36
F0.0
sI1499
F0.0
sI6034
F0.0
sI71392
F0.0
sI738
F0.0
sI739
F0.0
sI2277
F0.0
sI1514
F0.0
sI493
F0.34000000000000014
sI3063
F0.0
sI1017
F0.0
sI4090
F0.0
sI1531
F0.0
sI764
F0.0
sI767
F0.0
sg2
(g6
S'\x82\xfe\x9d\x9c\xa0W\xbc?'
p175
tp176
Rp177
g12
I3
F0.5
tp178
a(I34
F8968.56709098816
(dp179
I1537
F0.0
sI2
F0.0
sI771
F0.0
sI7425
F0.0
sI3848
F0.0
sI2064
F0.0
sI23
F0.0
sI280
F0.0
sI28
F0.0
sI31
F0.6200000000000003
sI32
F0.7000000000000004
sI1570
F0.0
sI35
F0.5000000000000002
sI1060
F0.0
sI1833
F0.0
sI45
F0.0
sI564
F0.0
sI1845
F0.0
sI1847
F0.0
sI1849
F0.0
sI1594
F0.0
sI1855
F0.0
sI6465
F0.0
sI67
F0.0
sI2116
F0.0
sI587
F0.0
sI591
F0.0
sI3922
F0.0
sI2702
F0.0
sI6487
F0.0
sI1624
F0.0
sI601
F0.0
sI1377
F0.0
sI1634
F0.0
sI1636
F0.0
sI5222
F0.0
sI2406
F0.0
sI4200
F0.0
sI5225
F0.0
sI6506
F0.0
sI146
F0.08
sI5230
F0.0
sI6001
F0.0
sI1394
F0.0
sI6772
F0.0
sI630
F0.0
sI120
F0.20000000000000004
sI4927
F0.0
sI638
F0.0
sI1407
F0.0
sI1667
F0.0
sI7045
F0.0
sI646
F0.0
sI651
F0.0
sI653
F0.0
sI142
F0.7000000000000004
sI635
F0.0
sI1170
F0.0
sI662
F0.35000000000000014
sI2967
F0.0
sI664
F0.0
sI3232
F0.0
sI1441
F0.0
sI2978
F0.0
sI2727
F0.0
sI4008
F0.0
sI170
F0.0
sI427
F0.0
sI4015
F0.0
sI1718
F0.0
sI884
F0.0
sI2234
F0.0
sI444
F0.0
sI1725
F0.0
sI448
F0.0
sI705
F0.0
sI1474
F0.0
sI196
F0.0
sI3525
F0.0
sI1223
F0.0
sI825
F0.0
sI547
F0.0
sI1492
F0.0
sI71381
F0.0
sI726
F0.0
sI36
F0.0
sI1499
F0.0
sI6034
F0.0
sI71392
F0.0
sI738
F0.0
sI739
F0.0
sI2277
F0.0
sI1514
F0.0
sI493
F0.35000000000000014
sI3063
F0.0
sI1017
F0.0
sI4090
F0.0
sI1531
F0.0
sI764
F0.0
sI767
F0.0
sg2
(g6
S'\xfd\xbf\xb0\x97\r\xbd\xbc?'
p180
tp181
Rp182
g12
I3
F0.5
tp183
a(I35
F9224.183510065079
(dp184
I1537
F0.0
sI2
F0.0
sI771
F0.0
sI7425
F0.0
sI3848
F0.0
sI2064
F0.0
sI23
F0.0
sI280
F0.0
sI28
F0.0
sI31
F0.6200000000000003
sI32
F0.7200000000000004
sI1570
F0.0
sI35
F0.5000000000000002
sI1060
F0.0
sI1833
F0.0
sI45
F0.0
sI564
F0.0
sI1845
F0.0
sI1847
F0.0
sI1849
F0.0
sI1594
F0.0
sI1855
F0.0
sI6465
F0.0
sI67
F0.0
sI2116
F0.0
sI587
F0.0
sI591
F0.0
sI3922
F0.0
sI2702
F0.0
sI6487
F0.0
sI1624
F0.0
sI601
F0.0
sI1377
F0.0
sI1634
F0.0
sI1636
F0.0
sI5222
F0.0
sI2406
F0.0
sI4200
F0.0
sI5225
F0.0
sI6506
F0.0
sI146
F0.09999999999999999
sI5230
F0.0
sI6001
F0.0
sI1394
F0.0
sI6772
F0.0
sI630
F0.0
sI120
F0.22000000000000006
sI4927
F0.0
sI638
F0.0
sI1407
F0.0
sI1667
F0.0
sI7045
F0.0
sI646
F0.0
sI651
F0.0
sI653
F0.0
sI142
F0.7200000000000004
sI635
F0.0
sI1170
F0.0
sI662
F0.36000000000000015
sI2967
F0.0
sI664
F0.0
sI3232
F0.0
sI1441
F0.0
sI2978
F0.0
sI2727
F0.0
sI4008
F0.0
sI170
F0.0
sI427
F0.0
sI4015
F0.0
sI1718
F0.0
sI884
F0.0
sI2234
F0.0
sI444
F0.0
sI1725
F0.0
sI448
F0.0
sI705
F0.0
sI1474
F0.0
sI196
F0.0
sI3525
F0.0
sI1223
F0.0
sI825
F0.0
sI547
F0.0
sI1492
F0.0
sI71381
F0.0
sI726
F0.0
sI36
F0.0
sI1499
F0.0
sI6034
F0.0
sI71392
F0.0
sI738
F0.0
sI739
F0.0
sI2277
F0.0
sI1514
F0.0
sI493
F0.36000000000000015
sI3063
F0.0
sI1017
F0.0
sI4090
F0.0
sI1531
F0.0
sI764
F0.0
sI767
F0.0
sg2
(g6
S'\xf5\xb2\xebs\xce!\xbd?'
p185
tp186
Rp187
g12
I3
F0.5
tp188
a(I36
F9479.393944978714
(dp189
I1537
F0.0
sI2
F0.0
sI771
F0.0
sI7425
F0.0
sI3848
F0.0
sI2064
F0.0
sI23
F0.0
sI280
F0.0
sI28
F0.0
sI31
F0.6200000000000003
sI32
F0.7400000000000004
sI1570
F0.0
sI35
F0.5000000000000002
sI1060
F0.0
sI1833
F0.0
sI45
F0.0
sI564
F0.0
sI1845
F0.0
sI1847
F0.0
sI1849
F0.0
sI1594
F0.0
sI1855
F0.0
sI6465
F0.0
sI67
F0.0
sI2116
F0.0
sI587
F0.0
sI591
F0.0
sI3922
F0.0
sI2702
F0.0
sI6487
F0.0
sI1624
F0.0
sI601
F0.0
sI1377
F0.0
sI1634
F0.0
sI1636
F0.0
sI5222
F0.0
sI2406
F0.0
sI4200
F0.0
sI5225
F0.0
sI6506
F0.0
sI146
F0.11999999999999998
sI5230
F0.0
sI6001
F0.0
sI1394
F0.0
sI6772
F0.0
sI630
F0.0
sI120
F0.24000000000000007
sI4927
F0.0
sI638
F0.0
sI1407
F0.0
sI1667
F0.0
sI7045
F0.0
sI646
F0.0
sI651
F0.0
sI653
F0.0
sI142
F0.7400000000000004
sI635
F0.0
sI1170
F0.0
sI662
F0.37000000000000016
sI2967
F0.0
sI664
F0.0
sI3232
F0.0
sI1441
F0.0
sI2978
F0.0
sI2727
F0.0
sI4008
F0.0
sI170
F0.0
sI427
F0.0
sI4015
F0.0
sI1718
F0.0
sI884
F0.0
sI2234
F0.0
sI444
F0.0
sI1725
F0.0
sI448
F0.0
sI705
F0.0
sI1474
F0.0
sI196
F0.0
sI3525
F0.0
sI1223
F0.0
sI825
F0.0
sI547
F0.0
sI1492
F0.0
sI71381
F0.0
sI726
F0.0
sI36
F0.0
sI1499
F0.0
sI6034
F0.0
sI71392
F0.0
sI738
F0.0
sI739
F0.0
sI2277
F0.0
sI1514
F0.0
sI493
F0.37000000000000016
sI3063
F0.0
sI1017
F0.0
sI4090
F0.0
sI1531
F0.0
sI764
F0.0
sI767
F0.0
sg2
(g6
S',\xc2\x90\xa6\xe6\x85\xbd?'
p190
tp191
Rp192
g12
I3
F0.5
tp193
a(I37
F9736.536659002304
(dp194
I1537
F0.0
sI2
F0.0
sI771
F0.0
sI7425
F0.0
sI3848
F0.0
sI2064
F0.0
sI23
F0.0
sI280
F0.0
sI28
F0.0
sI31
F0.6200000000000003
sI32
F0.7600000000000005
sI1570
F0.0
sI35
F0.5000000000000002
sI1060
F0.0
sI1833
F0.0
sI45
F0.0
sI564
F0.0
sI1845
F0.0
sI1847
F0.0
sI1849
F0.0
sI1594
F0.0
sI1855
F0.0
sI6465
F0.0
sI67
F0.0
sI2116
F0.0
sI587
F0.0
sI591
F0.0
sI3922
F0.0
sI2702
F0.0
sI6487
F0.0
sI1624
F0.0
sI601
F0.0
sI1377
F0.0
sI1634
F0.0
sI1636
F0.0
sI5222
F0.0
sI2406
F0.0
sI4200
F0.0
sI5225
F0.0
sI6506
F0.0
sI146
F0.13999999999999999
sI5230
F0.0
sI6001
F0.0
sI1394
F0.0
sI6772
F0.0
sI630
F0.0
sI120
F0.26000000000000006
sI4927
F0.0
sI638
F0.0
sI1407
F0.0
sI1667
F0.0
sI7045
F0.0
sI646
F0.0
sI651
F0.0
sI653
F0.0
sI142
F0.7600000000000005
sI635
F0.0
sI1170
F0.0
sI662
F0.38000000000000017
sI2967
F0.0
sI664
F0.0
sI3232
F0.0
sI1441
F0.0
sI2978
F0.0
sI2727
F0.0
sI4008
F0.0
sI170
F0.0
sI427
F0.0
sI4015
F0.0
sI1718
F0.0
sI884
F0.0
sI2234
F0.0
sI444
F0.0
sI1725
F0.0
sI448
F0.0
sI705
F0.0
sI1474
F0.0
sI196
F0.0
sI3525
F0.0
sI1223
F0.0
sI825
F0.0
sI547
F0.0
sI1492
F0.0
sI71381
F0.0
sI726
F0.0
sI36
F0.0
sI1499
F0.0
sI6034
F0.0
sI71392
F0.0
sI738
F0.0
sI739
F0.0
sI2277
F0.0
sI1514
F0.0
sI493
F0.38000000000000017
sI3063
F0.0
sI1017
F0.0
sI4090
F0.0
sI1531
F0.0
sI764
F0.0
sI767
F0.0
sg2
(g6
S'_\xd4\xc1\x9eY\xe9\xbd?'
p195
tp196
Rp197
g12
I3
F0.5
tp198
a(I38
F9991.15916800499
(dp199
I1537
F0.0
sI2
F0.0
sI771
F0.0
sI7425
F0.0
sI3848
F0.0
sI2064
F0.0
sI23
F0.0
sI280
F0.0
sI28
F0.0
sI31
F0.6200000000000003
sI32
F0.7800000000000005
sI1570
F0.0
sI35
F0.5000000000000002
sI1060
F0.0
sI1833
F0.0
sI45
F0.0
sI564
F0.0
sI1845
F0.0
sI1847
F0.0
sI1849
F0.0
sI1594
F0.0
sI1855
F0.0
sI6465
F0.0
sI67
F0.0
sI2116
F0.0
sI587
F0.0
sI591
F0.0
sI3922
F0.0
sI2702
F0.0
sI6487
F0.0
sI1624
F0.0
sI601
F0.0
sI1377
F0.0
sI1634
F0.0
sI1636
F0.0
sI5222
F0.0
sI2406
F0.0
sI4200
F0.0
sI5225
F0.0
sI6506
F0.0
sI146
F0.16
sI5230
F0.0
sI6001
F0.0
sI1394
F0.0
sI6772
F0.0
sI630
F0.0
sI120
F0.2800000000000001
sI4927
F0.0
sI638
F0.0
sI1407
F0.0
sI1667
F0.0
sI7045
F0.0
sI646
F0.0
sI651
F0.0
sI653
F0.0
sI142
F0.7800000000000005
sI635
F0.0
sI1170
F0.0
sI662
F0.3900000000000002
sI2967
F0.0
sI664
F0.0
sI3232
F0.0
sI1441
F0.0
sI2978
F0.0
sI2727
F0.0
sI4008
F0.0
sI170
F0.0
sI427
F0.0
sI4015
F0.0
sI1718
F0.0
sI884
F0.0
sI2234
F0.0
sI444
F0.0
sI1725
F0.0
sI448
F0.0
sI705
F0.0
sI1474
F0.0
sI196
F0.0
sI3525
F0.0
sI1223
F0.0
sI825
F0.0
sI547
F0.0
sI1492
F0.0
sI71381
F0.0
sI726
F0.0
sI36
F0.0
sI1499
F0.0
sI6034
F0.0
sI71392
F0.0
sI738
F0.0
sI739
F0.0
sI2277
F0.0
sI1514
F0.0
sI493
F0.3900000000000002
sI3063
F0.0
sI1017
F0.0
sI4090
F0.0
sI1531
F0.0
sI764
F0.0
sI767
F0.0
sg2
(g6
S'_\xb3\x9b\xc5*L\xbe?'
p200
tp201
Rp202
g12
I3
F0.5
tp203
a(I39
F10247.617408037186
(dp204
I1537
F0.0
sI2
F0.0
sI771
F0.0
sI7425
F0.0
sI3848
F0.0
sI2064
F0.0
sI23
F0.0
sI280
F0.0
sI28
F0.0
sI31
F0.6200000000000003
sI32
F0.8000000000000005
sI1570
F0.0
sI35
F0.5000000000000002
sI1060
F0.0
sI1833
F0.0
sI45
F0.0
sI564
F0.0
sI1845
F0.0
sI1847
F0.0
sI1849
F0.0
sI1594
F0.0
sI1855
F0.0
sI6465
F0.0
sI67
F0.0
sI2116
F0.0
sI587
F0.0
sI591
F0.0
sI3922
F0.0
sI2702
F0.0
sI6487
F0.0
sI1624
F0.0
sI601
F0.0
sI1377
F0.0
sI1634
F0.0
sI1636
F0.0
sI5222
F0.0
sI2406
F0.0
sI4200
F0.0
sI5225
F0.0
sI6506
F0.0
sI146
F0.18000000000000002
sI5230
F0.0
sI6001
F0.0
sI1394
F0.0
sI6772
F0.0
sI630
F0.0
sI120
F0.3000000000000001
sI4927
F0.0
sI638
F0.0
sI1407
F0.0
sI1667
F0.0
sI7045
F0.0
sI646
F0.0
sI651
F0.0
sI653
F0.0
sI142
F0.8000000000000005
sI635
F0.0
sI1170
F0.0
sI662
F0.4000000000000002
sI2967
F0.0
sI664
F0.0
sI3232
F0.0
sI1441
F0.0
sI2978
F0.0
sI2727
F0.0
sI4008
F0.0
sI170
F0.0
sI427
F0.0
sI4015
F0.0
sI1718
F0.0
sI884
F0.0
sI2234
F0.0
sI444
F0.0
sI1725
F0.0
sI448
F0.0
sI705
F0.0
sI1474
F0.0
sI196
F0.0
sI3525
F0.0
sI1223
F0.0
sI825
F0.0
sI547
F0.0
sI1492
F0.0
sI71381
F0.0
sI726
F0.0
sI36
F0.0
sI1499
F0.0
sI6034
F0.0
sI71392
F0.0
sI738
F0.0
sI739
F0.0
sI2277
F0.0
sI1514
F0.0
sI493
F0.4000000000000002
sI3063
F0.0
sI1017
F0.0
sI4090
F0.0
sI1531
F0.0
sI764
F0.0
sI767
F0.0
sg2
(g6
S'\xf0DP~]\xae\xbe?'
p205
tp206
Rp207
g12
I3
F0.5
tp208
a(I40
F10503.778795957565
(dp209
I1537
F0.0
sI2
F0.0
sI771
F0.0
sI7425
F0.0
sI3848
F0.0
sI2064
F0.0
sI23
F0.0
sI280
F0.0
sI28
F0.0
sI31
F0.6200000000000003
sI32
F0.8200000000000005
sI1570
F0.0
sI35
F0.5000000000000002
sI1060
F0.0
sI1833
F0.0
sI45
F0.0
sI564
F0.0
sI1845
F0.0
sI1847
F0.0
sI1849
F0.0
sI1594
F0.0
sI1855
F0.0
sI6465
F0.0
sI67
F0.0
sI2116
F0.0
sI587
F0.0
sI591
F0.0
sI3922
F0.0
sI2702
F0.0
sI6487
F0.0
sI1624
F0.0
sI601
F0.0
sI1377
F0.0
sI1634
F0.0
sI1636
F0.0
sI5222
F0.0
sI2406
F0.0
sI4200
F0.0
sI5225
F0.0
sI6506
F0.0
sI146
F0.20000000000000004
sI5230
F0.0
sI6001
F0.0
sI1394
F0.0
sI6772
F0.0
sI630
F0.0
sI120
F0.3200000000000001
sI4927
F0.0
sI638
F0.0
sI1407
F0.0
sI1667
F0.0
sI7045
F0.0
sI646
F0.0
sI651
F0.0
sI653
F0.0
sI142
F0.8200000000000005
sI635
F0.0
sI1170
F0.0
sI662
F0.4100000000000002
sI2967
F0.0
sI664
F0.0
sI3232
F0.0
sI1441
F0.0
sI2978
F0.0
sI2727
F0.0
sI4008
F0.0
sI170
F0.0
sI427
F0.0
sI4015
F0.0
sI1718
F0.0
sI884
F0.0
sI2234
F0.0
sI444
F0.0
sI1725
F0.0
sI448
F0.0
sI705
F0.0
sI1474
F0.0
sI196
F0.0
sI3525
F0.0
sI1223
F0.0
sI825
F0.0
sI547
F0.0
sI1492
F0.0
sI71381
F0.0
sI726
F0.0
sI36
F0.0
sI1499
F0.0
sI6034
F0.0
sI71392
F0.0
sI738
F0.0
sI739
F0.0
sI2277
F0.0
sI1514
F0.0
sI493
F0.4100000000000002
sI3063
F0.0
sI1017
F0.0
sI4090
F0.0
sI1531
F0.0
sI764
F0.0
sI767
F0.0
sg2
(g6
S'\xff\x17@&\xf5\x0f\xbf?'
p210
tp211
Rp212
g12
I3
F0.5
tp213
a(I41
F10760.055925130844
(dp214
I1537
F0.0
sI2
F0.0
sI771
F0.0
sI7425
F0.0
sI3848
F0.0
sI2064
F0.0
sI23
F0.0
sI280
F0.0
sI28
F0.0
sI31
F0.6200000000000003
sI32
F0.8400000000000005
sI1570
F0.0
sI35
F0.5000000000000002
sI1060
F0.0
sI1833
F0.0
sI45
F0.0
sI564
F0.0
sI1845
F0.0
sI1847
F0.0
sI1849
F0.0
sI1594
F0.0
sI1855
F0.0
sI6465
F0.0
sI67
F0.0
sI2116
F0.0
sI587
F0.0
sI591
F0.0
sI3922
F0.0
sI2702
F0.0
sI6487
F0.0
sI1624
F0.0
sI601
F0.0
sI1377
F0.0
sI1634
F0.0
sI1636
F0.0
sI5222
F0.0
sI2406
F0.0
sI4200
F0.0
sI5225
F0.0
sI6506
F0.0
sI146
F0.22000000000000006
sI5230
F0.0
sI6001
F0.0
sI1394
F0.0
sI6772
F0.0
sI630
F0.0
sI120
F0.34000000000000014
sI4927
F0.0
sI638
F0.0
sI1407
F0.0
sI1667
F0.0
sI7045
F0.0
sI646
F0.0
sI651
F0.0
sI653
F0.0
sI142
F0.8400000000000005
sI635
F0.0
sI1170
F0.0
sI662
F0.4200000000000002
sI2967
F0.0
sI664
F0.0
sI3232
F0.0
sI1441
F0.0
sI2978
F0.0
sI2727
F0.0
sI4008
F0.0
sI170
F0.0
sI427
F0.0
sI4015
F0.0
sI1718
F0.0
sI884
F0.0
sI2234
F0.0
sI444
F0.0
sI1725
F0.0
sI448
F0.0
sI705
F0.0
sI1474
F0.0
sI196
F0.0
sI3525
F0.0
sI1223
F0.0
sI825
F0.0
sI547
F0.0
sI1492
F0.0
sI71381
F0.0
sI726
F0.0
sI36
F0.0
sI1499
F0.0
sI6034
F0.0
sI71392
F0.0
sI738
F0.0
sI739
F0.0
sI2277
F0.0
sI1514
F0.0
sI493
F0.4200000000000002
sI3063
F0.0
sI1017
F0.0
sI4090
F0.0
sI1531
F0.0
sI764
F0.0
sI767
F0.0
sg2
(g6
S'ZJ\x13\x15\xf5p\xbf?'
p215
tp216
Rp217
g12
I3
F0.5
tp218
a(I42
F11015.287698030472
(dp219
I1537
F0.0
sI2
F0.0
sI771
F0.0
sI7425
F0.0
sI3848
F0.0
sI2064
F0.0
sI23
F0.0
sI280
F0.0
sI28
F0.0
sI31
F0.6200000000000003
sI32
F0.8600000000000005
sI1570
F0.0
sI35
F0.5000000000000002
sI1060
F0.0
sI1833
F0.0
sI45
F0.0
sI564
F0.0
sI1845
F0.0
sI1847
F0.0
sI1849
F0.0
sI1594
F0.0
sI1855
F0.0
sI6465
F0.0
sI67
F0.0
sI2116
F0.0
sI587
F0.0
sI591
F0.0
sI3922
F0.0
sI2702
F0.0
sI6487
F0.0
sI1624
F0.0
sI601
F0.0
sI1377
F0.0
sI1634
F0.0
sI1636
F0.0
sI5222
F0.0
sI2406
F0.0
sI4200
F0.0
sI5225
F0.0
sI6506
F0.0
sI146
F0.24000000000000007
sI5230
F0.0
sI6001
F0.0
sI1394
F0.0
sI6772
F0.0
sI630
F0.0
sI120
F0.36000000000000015
sI4927
F0.0
sI638
F0.0
sI1407
F0.0
sI1667
F0.0
sI7045
F0.0
sI646
F0.0
sI651
F0.0
sI653
F0.0
sI142
F0.8600000000000005
sI635
F0.0
sI1170
F0.0
sI662
F0.4300000000000002
sI2967
F0.0
sI664
F0.0
sI3232
F0.0
sI1441
F0.0
sI2978
F0.0
sI2727
F0.0
sI4008
F0.0
sI170
F0.0
sI427
F0.0
sI4015
F0.0
sI1718
F0.0
sI884
F0.0
sI2234
F0.0
sI444
F0.0
sI1725
F0.0
sI448
F0.0
sI705
F0.0
sI1474
F0.0
sI196
F0.0
sI3525
F0.0
sI1223
F0.0
sI825
F0.0
sI547
F0.0
sI1492
F0.0
sI71381
F0.0
sI726
F0.0
sI36
F0.0
sI1499
F0.0
sI6034
F0.0
sI71392
F0.0
sI738
F0.0
sI739
F0.0
sI2277
F0.0
sI1514
F0.0
sI493
F0.4300000000000002
sI3063
F0.0
sI1017
F0.0
sI4090
F0.0
sI1531
F0.0
sI764
F0.0
sI767
F0.0
sg2
(g6
S'\xa7\xc9\xd1\x9c`\xd1\xbf?'
p220
tp221
Rp222
g12
I3
F0.5
tp223
a(I43
F11271.097978115082
(dp224
I1537
F0.0
sI2
F0.0
sI771
F0.0
sI7425
F0.0
sI3848
F0.0
sI2064
F0.0
sI23
F0.0
sI280
F0.0
sI28
F0.0
sI31
F0.6200000000000003
sI32
F0.8800000000000006
sI1570
F0.0
sI35
F0.5000000000000002
sI1060
F0.0
sI1833
F0.0
sI45
F0.0
sI564
F0.0
sI1845
F0.0
sI1847
F0.0
sI1849
F0.0
sI1594
F0.0
sI1855
F0.0
sI6465
F0.0
sI67
F0.0
sI2116
F0.0
sI587
F0.0
sI591
F0.0
sI3922
F0.0
sI2702
F0.0
sI6487
F0.0
sI1624
F0.0
sI601
F0.0
sI1377
F0.0
sI1634
F0.0
sI1636
F0.0
sI5222
F0.0
sI2406
F0.0
sI4200
F0.0
sI5225
F0.0
sI6506
F0.0
sI146
F0.26000000000000006
sI5230
F0.0
sI6001
F0.0
sI1394
F0.0
sI6772
F0.0
sI630
F0.0
sI120
F0.38000000000000017
sI4927
F0.0
sI638
F0.0
sI1407
F0.0
sI1667
F0.0
sI7045
F0.0
sI646
F0.0
sI651
F0.0
sI653
F0.0
sI142
F0.8800000000000006
sI635
F0.0
sI1170
F0.0
sI662
F0.4400000000000002
sI2967
F0.0
sI664
F0.0
sI3232
F0.0
sI1441
F0.0
sI2978
F0.0
sI2727
F0.0
sI4008
F0.0
sI170
F0.0
sI427
F0.0
sI4015
F0.0
sI1718
F0.0
sI884
F0.0
sI2234
F0.0
sI444
F0.0
sI1725
F0.0
sI448
F0.0
sI705
F0.0
sI1474
F0.0
sI196
F0.0
sI3525
F0.0
sI1223
F0.0
sI825
F0.0
sI547
F0.0
sI1492
F0.0
sI71381
F0.0
sI726
F0.0
sI36
F0.0
sI1499
F0.0
sI6034
F0.0
sI71392
F0.0
sI738
F0.0
sI739
F0.0
sI2277
F0.0
sI1514
F0.0
sI493
F0.4400000000000002
sI3063
F0.0
sI1017
F0.0
sI4090
F0.0
sI1531
F0.0
sI764
F0.0
sI767
F0.0
sg2
(g6
S'\x06z\xfd\x84\x9d\x18\xc0?'
p225
tp226
Rp227
g12
I3
F0.5
tp228
a(I44
F11525.866408109665
(dp229
I1537
F0.0
sI2
F0.0
sI771
F0.0
sI7425
F0.0
sI3848
F0.0
sI2064
F0.0
sI23
F0.0
sI280
F0.0
sI28
F0.0
sI31
F0.6200000000000003
sI32
F0.9000000000000006
sI1570
F0.0
sI35
F0.5000000000000002
sI1060
F0.0
sI1833
F0.0
sI45
F0.0
sI564
F0.0
sI1845
F0.0
sI1847
F0.0
sI1849
F0.0
sI1594
F0.0
sI1855
F0.0
sI6465
F0.0
sI67
F0.0
sI2116
F0.0
sI587
F0.0
sI591
F0.0
sI3922
F0.0
sI2702
F0.0
sI6487
F0.0
sI1624
F0.0
sI601
F0.0
sI1377
F0.0
sI1634
F0.0
sI1636
F0.0
sI5222
F0.0
sI2406
F0.0
sI4200
F0.0
sI5225
F0.0
sI6506
F0.0
sI146
F0.2800000000000001
sI5230
F0.0
sI6001
F0.0
sI1394
F0.0
sI6772
F0.0
sI630
F0.0
sI120
F0.4000000000000002
sI4927
F0.0
sI638
F0.0
sI1407
F0.0
sI1667
F0.0
sI7045
F0.0
sI646
F0.0
sI651
F0.0
sI653
F0.0
sI142
F0.9000000000000006
sI635
F0.0
sI1170
F0.0
sI662
F0.45000000000000023
sI2967
F0.0
sI664
F0.0
sI3232
F0.0
sI1441
F0.0
sI2978
F0.0
sI2727
F0.0
sI4008
F0.0
sI170
F0.0
sI427
F0.0
sI4015
F0.0
sI1718
F0.0
sI884
F0.0
sI2234
F0.0
sI444
F0.0
sI1725
F0.0
sI448
F0.0
sI705
F0.0
sI1474
F0.0
sI196
F0.0
sI3525
F0.0
sI1223
F0.0
sI825
F0.0
sI547
F0.0
sI1492
F0.0
sI71381
F0.0
sI726
F0.0
sI36
F0.0
sI1499
F0.0
sI6034
F0.0
sI71392
F0.0
sI738
F0.0
sI739
F0.0
sI2277
F0.0
sI1514
F0.0
sI493
F0.45000000000000023
sI3063
F0.0
sI1017
F0.0
sI4090
F0.0
sI1531
F0.0
sI764
F0.0
sI767
F0.0
sg2
(g6
S'HM\xce\xd1CH\xc0?'
p230
tp231
Rp232
g12
I3
F0.5
tp233
a(I45
F11780.833807945251
(dp234
I1537
F0.0
sI2
F0.0
sI771
F0.0
sI7425
F0.0
sI3848
F0.0
sI2064
F0.0
sI23
F0.0
sI280
F0.0
sI28
F0.0
sI31
F0.6200000000000003
sI32
F0.9200000000000006
sI1570
F0.0
sI35
F0.5000000000000002
sI1060
F0.0
sI1833
F0.0
sI45
F0.0
sI564
F0.0
sI1845
F0.0
sI1847
F0.0
sI1849
F0.0
sI1594
F0.0
sI1855
F0.0
sI6465
F0.0
sI67
F0.0
sI2116
F0.0
sI587
F0.0
sI591
F0.0
sI3922
F0.0
sI2702
F0.0
sI6487
F0.0
sI1624
F0.0
sI601
F0.0
sI1377
F0.0
sI1634
F0.0
sI1636
F0.0
sI5222
F0.0
sI2406
F0.0
sI4200
F0.0
sI5225
F0.0
sI6506
F0.0
sI146
F0.3000000000000001
sI5230
F0.0
sI6001
F0.0
sI1394
F0.0
sI6772
F0.0
sI630
F0.0
sI120
F0.4200000000000002
sI4927
F0.0
sI638
F0.0
sI1407
F0.0
sI1667
F0.0
sI7045
F0.0
sI646
F0.0
sI651
F0.0
sI653
F0.0
sI142
F0.9200000000000006
sI635
F0.0
sI1170
F0.0
sI662
F0.46000000000000024
sI2967
F0.0
sI664
F0.0
sI3232
F0.0
sI1441
F0.0
sI2978
F0.0
sI2727
F0.0
sI4008
F0.0
sI170
F0.0
sI427
F0.0
sI4015
F0.0
sI1718
F0.0
sI884
F0.0
sI2234
F0.0
sI444
F0.0
sI1725
F0.0
sI448
F0.0
sI705
F0.0
sI1474
F0.0
sI196
F0.0
sI3525
F0.0
sI1223
F0.0
sI825
F0.0
sI547
F0.0
sI1492
F0.0
sI71381
F0.0
sI726
F0.0
sI36
F0.0
sI1499
F0.0
sI6034
F0.0
sI71392
F0.0
sI738
F0.0
sI739
F0.0
sI2277
F0.0
sI1514
F0.0
sI493
F0.46000000000000024
sI3063
F0.0
sI1017
F0.0
sI4090
F0.0
sI1531
F0.0
sI764
F0.0
sI767
F0.0
sg2
(g6
S'N\xb4\xb4\xd5\xa4w\xc0?'
p235
tp236
Rp237
g12
I3
F0.5
tp238
a(I46
F12036.89814710617
(dp239
I1537
F0.0
sI2
F0.0
sI771
F0.0
sI7425
F0.0
sI3848
F0.0
sI2064
F0.0
sI23
F0.0
sI280
F0.0
sI28
F0.0
sI31
F0.6200000000000003
sI32
F0.9400000000000006
sI1570
F0.0
sI35
F0.5000000000000002
sI1060
F0.0
sI1833
F0.0
sI45
F0.0
sI564
F0.0
sI1845
F0.0
sI1847
F0.0
sI1849
F0.0
sI1594
F0.0
sI1855
F0.0
sI6465
F0.0
sI67
F0.0
sI2116
F0.0
sI587
F0.0
sI591
F0.0
sI3922
F0.0
sI2702
F0.0
sI6487
F0.0
sI1624
F0.0
sI601
F0.0
sI1377
F0.0
sI1634
F0.0
sI1636
F0.0
sI5222
F0.0
sI2406
F0.0
sI4200
F0.0
sI5225
F0.0
sI6506
F0.0
sI146
F0.3200000000000001
sI5230
F0.0
sI6001
F0.0
sI1394
F0.0
sI6772
F0.0
sI630
F0.0
sI120
F0.4400000000000002
sI4927
F0.0
sI638
F0.0
sI1407
F0.0
sI1667
F0.0
sI7045
F0.0
sI646
F0.0
sI651
F0.0
sI653
F0.0
sI142
F0.9400000000000006
sI635
F0.0
sI1170
F0.0
sI662
F0.47000000000000025
sI2967
F0.0
sI664
F0.0
sI3232
F0.0
sI1441
F0.0
sI2978
F0.0
sI2727
F0.0
sI4008
F0.0
sI170
F0.0
sI427
F0.0
sI4015
F0.0
sI1718
F0.0
sI884
F0.0
sI2234
F0.0
sI444
F0.0
sI1725
F0.0
sI448
F0.0
sI705
F0.0
sI1474
F0.0
sI196
F0.0
sI3525
F0.0
sI1223
F0.0
sI825
F0.0
sI547
F0.0
sI1492
F0.0
sI71381
F0.0
sI726
F0.0
sI36
F0.0
sI1499
F0.0
sI6034
F0.0
sI71392
F0.0
sI738
F0.0
sI739
F0.0
sI2277
F0.0
sI1514
F0.0
sI493
F0.47000000000000025
sI3063
F0.0
sI1017
F0.0
sI4090
F0.0
sI1531
F0.0
sI764
F0.0
sI767
F0.0
sg2
(g6
S'?Z\xe7.\xc2\xa6\xc0?'
p240
tp241
Rp242
g12
I3
F0.5
tp243
a(I47
F12293.45096898079
(dp244
I1537
F0.0
sI2
F0.0
sI771
F0.0
sI7425
F0.0
sI3848
F0.0
sI2064
F0.0
sI23
F0.0
sI280
F0.0
sI28
F0.0
sI31
F0.6200000000000003
sI32
F0.9600000000000006
sI1570
F0.0
sI35
F0.5000000000000002
sI1060
F0.0
sI1833
F0.0
sI45
F0.0
sI564
F0.0
sI1845
F0.0
sI1847
F0.0
sI1849
F0.0
sI1594
F0.0
sI1855
F0.0
sI6465
F0.0
sI67
F0.0
sI2116
F0.0
sI587
F0.0
sI591
F0.0
sI3922
F0.0
sI2702
F0.0
sI6487
F0.0
sI1624
F0.0
sI601
F0.0
sI1377
F0.0
sI1634
F0.0
sI1636
F0.0
sI5222
F0.0
sI2406
F0.0
sI4200
F0.0
sI5225
F0.0
sI6506
F0.0
sI146
F0.34000000000000014
sI5230
F0.0
sI6001
F0.0
sI1394
F0.0
sI6772
F0.0
sI630
F0.0
sI120
F0.46000000000000024
sI4927
F0.0
sI638
F0.0
sI1407
F0.0
sI1667
F0.0
sI7045
F0.0
sI646
F0.0
sI651
F0.0
sI653
F0.0
sI142
F0.9600000000000006
sI635
F0.0
sI1170
F0.0
sI662
F0.48000000000000026
sI2967
F0.0
sI664
F0.0
sI3232
F0.0
sI1441
F0.0
sI2978
F0.0
sI2727
F0.0
sI4008
F0.0
sI170
F0.0
sI427
F0.0
sI4015
F0.0
sI1718
F0.0
sI884
F0.0
sI2234
F0.0
sI444
F0.0
sI1725
F0.0
sI448
F0.0
sI705
F0.0
sI1474
F0.0
sI196
F0.0
sI3525
F0.0
sI1223
F0.0
sI825
F0.0
sI547
F0.0
sI1492
F0.0
sI71381
F0.0
sI726
F0.0
sI36
F0.0
sI1499
F0.0
sI6034
F0.0
sI71392
F0.0
sI738
F0.0
sI739
F0.0
sI2277
F0.0
sI1514
F0.0
sI493
F0.48000000000000026
sI3063
F0.0
sI1017
F0.0
sI4090
F0.0
sI1531
F0.0
sI764
F0.0
sI767
F0.0
sg2
(g6
S'c\xdd\x04y\x9d\xd5\xc0?'
p245
tp246
Rp247
g12
I3
F0.5
tp248
a(I48
F12548.107867002487
(dp249
I1537
F0.0
sI2
F0.0
sI771
F0.0
sI7425
F0.0
sI3848
F0.0
sI2064
F0.0
sI23
F0.0
sI280
F0.0
sI28
F0.0
sI31
F0.6200000000000003
sI32
F0.9800000000000006
sI1570
F0.0
sI35
F0.5000000000000002
sI1060
F0.0
sI1833
F0.0
sI45
F0.0
sI564
F0.0
sI1845
F0.0
sI1847
F0.0
sI1849
F0.0
sI1594
F0.0
sI1855
F0.0
sI6465
F0.0
sI67
F0.0
sI2116
F0.0
sI587
F0.0
sI591
F0.0
sI3922
F0.0
sI2702
F0.0
sI6487
F0.0
sI1624
F0.0
sI601
F0.0
sI1377
F0.0
sI1634
F0.0
sI1636
F0.0
sI5222
F0.0
sI2406
F0.0
sI4200
F0.0
sI5225
F0.0
sI6506
F0.0
sI146
F0.36000000000000015
sI5230
F0.0
sI6001
F0.0
sI1394
F0.0
sI6772
F0.0
sI630
F0.0
sI120
F0.48000000000000026
sI4927
F0.0
sI638
F0.0
sI1407
F0.0
sI1667
F0.0
sI7045
F0.0
sI646
F0.0
sI651
F0.0
sI653
F0.0
sI142
F0.9800000000000006
sI635
F0.0
sI1170
F0.0
sI662
F0.49000000000000027
sI2967
F0.0
sI664
F0.0
sI3232
F0.0
sI1441
F0.0
sI2978
F0.0
sI2727
F0.0
sI4008
F0.0
sI170
F0.0
sI427
F0.0
sI4015
F0.0
sI1718
F0.0
sI884
F0.0
sI2234
F0.0
sI444
F0.0
sI1725
F0.0
sI448
F0.0
sI705
F0.0
sI1474
F0.0
sI196
F0.0
sI3525
F0.0
sI1223
F0.0
sI825
F0.0
sI547
F0.0
sI1492
F0.0
sI71381
F0.0
sI726
F0.0
sI36
F0.0
sI1499
F0.0
sI6034
F0.0
sI71392
F0.0
sI738
F0.0
sI739
F0.0
sI2277
F0.0
sI1514
F0.0
sI493
F0.49000000000000027
sI3063
F0.0
sI1017
F0.0
sI4090
F0.0
sI1531
F0.0
sI764
F0.0
sI767
F0.0
sg2
(g6
S'\xd7#\x1eM8\x04\xc1?'
p250
tp251
Rp252
g12
I3
F0.5
tp253
a(I49
F12802.896534919739
(dp254
I1537
F0.0
sI2
F0.0
sI771
F0.0
sI7425
F0.0
sI3848
F0.0
sI2064
F0.0
sI23
F0.0
sI280
F0.0
sI28
F0.0
sI31
F0.6200000000000003
sI32
F1.0000000000000007
sI1570
F0.0
sI35
F0.5000000000000002
sI1060
F0.0
sI1833
F0.0
sI45
F0.0
sI564
F0.0
sI1845
F0.0
sI1847
F0.0
sI1849
F0.0
sI1594
F0.0
sI1855
F0.0
sI6465
F0.0
sI67
F0.0
sI2116
F0.0
sI587
F0.0
sI591
F0.0
sI3922
F0.0
sI2702
F0.0
sI6487
F0.0
sI1624
F0.0
sI601
F0.0
sI1377
F0.0
sI1634
F0.0
sI1636
F0.0
sI5222
F0.0
sI2406
F0.0
sI4200
F0.0
sI5225
F0.0
sI6506
F0.0
sI146
F0.38000000000000017
sI5230
F0.0
sI6001
F0.0
sI1394
F0.0
sI6772
F0.0
sI630
F0.0
sI120
F0.5000000000000002
sI4927
F0.0
sI638
F0.0
sI1407
F0.0
sI1667
F0.0
sI7045
F0.0
sI646
F0.0
sI651
F0.0
sI653
F0.0
sI142
F1.0000000000000007
sI635
F0.0
sI1170
F0.0
sI662
F0.5000000000000002
sI2967
F0.0
sI664
F0.0
sI3232
F0.0
sI1441
F0.0
sI2978
F0.0
sI2727
F0.0
sI4008
F0.0
sI170
F0.0
sI427
F0.0
sI4015
F0.0
sI1718
F0.0
sI884
F0.0
sI2234
F0.0
sI444
F0.0
sI1725
F0.0
sI448
F0.0
sI705
F0.0
sI1474
F0.0
sI196
F0.0
sI3525
F0.0
sI1223
F0.0
sI825
F0.0
sI547
F0.0
sI1492
F0.0
sI71381
F0.0
sI726
F0.0
sI36
F0.0
sI1499
F0.0
sI6034
F0.0
sI71392
F0.0
sI738
F0.0
sI739
F0.0
sI2277
F0.0
sI1514
F0.0
sI493
F0.5000000000000002
sI3063
F0.0
sI1017
F0.0
sI4090
F0.0
sI1531
F0.0
sI764
F0.0
sI767
F0.0
sg2
(g6
S'\xdch\xc0A\x942\xc1?'
p255
tp256
Rp257
g12
I3
F0.5
tp258
a(I50
F13059.335997104645
(dp259
I1537
F0.0
sI2
F0.0
sI771
F0.0
sI7425
F0.0
sI3848
F0.0
sI2064
F0.0
sI23
F0.0
sI280
F0.0
sI28
F0.0
sI31
F0.6200000000000003
sI32
F1.0200000000000007
sI1570
F0.0
sI35
F0.5000000000000002
sI1060
F0.0
sI1833
F0.0
sI45
F0.0
sI564
F0.0
sI1845
F0.0
sI1847
F0.0
sI1849
F0.0
sI1594
F0.0
sI1855
F0.0
sI6465
F0.0
sI67
F0.0
sI2116
F0.0
sI587
F0.0
sI591
F0.0
sI3922
F0.0
sI2702
F0.0
sI6487
F0.0
sI1624
F0.0
sI601
F0.0
sI1377
F0.0
sI1634
F0.0
sI1636
F0.0
sI5222
F0.0
sI2406
F0.0
sI4200
F0.0
sI5225
F0.0
sI6506
F0.0
sI146
F0.4000000000000002
sI5230
F0.0
sI6001
F0.0
sI1394
F0.0
sI6772
F0.0
sI630
F0.0
sI120
F0.5200000000000002
sI4927
F0.0
sI638
F0.0
sI1407
F0.0
sI1667
F0.0
sI7045
F0.0
sI646
F0.0
sI651
F0.0
sI653
F0.0
sI142
F1.0200000000000007
sI635
F0.0
sI1170
F0.0
sI662
F0.5100000000000002
sI2967
F0.0
sI664
F0.0
sI3232
F0.0
sI1441
F0.0
sI2978
F0.0
sI2727
F0.0
sI4008
F0.0
sI170
F0.0
sI427
F0.0
sI4015
F0.0
sI1718
F0.0
sI884
F0.0
sI2234
F0.0
sI444
F0.0
sI1725
F0.0
sI448
F0.0
sI705
F0.0
sI1474
F0.0
sI196
F0.0
sI3525
F0.0
sI1223
F0.0
sI825
F0.0
sI547
F0.0
sI1492
F0.0
sI71381
F0.0
sI726
F0.0
sI36
F0.0
sI1499
F0.0
sI6034
F0.0
sI71392
F0.0
sI738
F0.0
sI739
F0.0
sI2277
F0.0
sI1514
F0.0
sI493
F0.5100000000000002
sI3063
F0.0
sI1017
F0.0
sI4090
F0.0
sI1531
F0.0
sI764
F0.0
sI767
F0.0
sg2
(g6
S'\x1e\x04\xff\xea\xb2`\xc1?'
p260
tp261
Rp262
g12
I3
F0.5
tp263
a(I51
F13315.681603908539
(dp264
I1537
F0.0
sI2
F0.0
sI771
F0.0
sI7425
F0.0
sI3848
F0.0
sI2064
F0.0
sI23
F0.0
sI280
F0.0
sI28
F0.0
sI31
F0.6200000000000003
sI32
F1.0400000000000007
sI1570
F0.0
sI35
F0.5000000000000002
sI1060
F0.0
sI1833
F0.0
sI45
F0.0
sI564
F0.01
sI1845
F0.0
sI1847
F0.0
sI1849
F0.0
sI1594
F0.0
sI1855
F0.0
sI6465
F0.0
sI67
F0.0
sI2116
F0.0
sI587
F0.0
sI591
F0.0
sI3922
F0.0
sI2702
F0.0
sI6487
F0.0
sI1624
F0.0
sI601
F0.0
sI1377
F0.0
sI1634
F0.0
sI1636
F0.0
sI5222
F0.0
sI2406
F0.0
sI4200
F0.0
sI5225
F0.0
sI6506
F0.0
sI146
F0.4200000000000002
sI5230
F0.0
sI6001
F0.0
sI1394
F0.0
sI6772
F0.0
sI630
F0.0
sI120
F0.5400000000000003
sI4927
F0.0
sI638
F0.0
sI1407
F0.0
sI1667
F0.0
sI7045
F0.0
sI646
F0.0
sI651
F0.0
sI653
F0.0
sI142
F1.0200000000000007
sI635
F0.0
sI1170
F0.0
sI662
F0.5200000000000002
sI2967
F0.0
sI664
F0.0
sI3232
F0.0
sI1441
F0.0
sI2978
F0.0
sI2727
F0.0
sI4008
F0.0
sI170
F0.01
sI427
F0.0
sI4015
F0.0
sI1718
F0.0
sI884
F0.0
sI2234
F0.0
sI444
F0.0
sI1725
F0.0
sI448
F0.0
sI705
F0.0
sI1474
F0.0
sI196
F0.0
sI3525
F0.0
sI1223
F0.0
sI825
F0.0
sI547
F0.0
sI1492
F0.0
sI71381
F0.0
sI726
F0.0
sI36
F0.0
sI1499
F0.0
sI6034
F0.0
sI71392
F0.0
sI738
F0.0
sI739
F0.0
sI2277
F0.0
sI1514
F0.0
sI493
F0.5200000000000002
sI3063
F0.0
sI1017
F0.0
sI4090
F0.0
sI1531
F0.0
sI764
F0.0
sI767
F0.0
sg2
(g6
S'\xf4\xe5\xfbm\xc1\x8e\xc1?'
p265
tp266
Rp267
g12
I3
F0.5
tp268
a(I52
F13571.964818000793
(dp269
I1537
F0.0
sI2
F0.0
sI771
F0.0
sI7425
F0.0
sI3848
F0.0
sI2064
F0.0
sI23
F0.0
sI280
F0.0
sI28
F0.0
sI31
F0.6200000000000003
sI32
F1.0600000000000007
sI1570
F0.0
sI35
F0.5000000000000002
sI1060
F0.0
sI1833
F0.0
sI45
F0.0
sI564
F0.02
sI1845
F0.0
sI1847
F0.0
sI1849
F0.0
sI1594
F0.0
sI1855
F0.0
sI6465
F0.0
sI67
F0.0
sI2116
F0.0
sI587
F0.0
sI591
F0.0
sI3922
F0.0
sI2702
F0.0
sI6487
F0.0
sI1624
F0.0
sI601
F0.0
sI1377
F0.0
sI1634
F0.0
sI1636
F0.0
sI5222
F0.0
sI2406
F0.0
sI4200
F0.0
sI5225
F0.0
sI6506
F0.0
sI146
F0.4400000000000002
sI5230
F0.0
sI6001
F0.0
sI1394
F0.0
sI6772
F0.0
sI630
F0.0
sI120
F0.5600000000000003
sI4927
F0.0
sI638
F0.0
sI1407
F0.0
sI1667
F0.0
sI7045
F0.0
sI646
F0.0
sI651
F0.0
sI653
F0.0
sI142
F1.0200000000000007
sI635
F0.0
sI1170
F0.0
sI662
F0.5300000000000002
sI2967
F0.0
sI664
F0.0
sI3232
F0.0
sI1441
F0.0
sI2978
F0.0
sI2727
F0.0
sI4008
F0.0
sI170
F0.02
sI427
F0.0
sI4015
F0.0
sI1718
F0.0
sI884
F0.0
sI2234
F0.0
sI444
F0.0
sI1725
F0.0
sI448
F0.0
sI705
F0.0
sI1474
F0.0
sI196
F0.0
sI3525
F0.0
sI1223
F0.0
sI825
F0.0
sI547
F0.0
sI1492
F0.0
sI71381
F0.0
sI726
F0.0
sI36
F0.0
sI1499
F0.0
sI6034
F0.0
sI71392
F0.0
sI738
F0.0
sI739
F0.0
sI2277
F0.0
sI1514
F0.0
sI493
F0.5300000000000002
sI3063
F0.0
sI1017
F0.0
sI4090
F0.0
sI1531
F0.0
sI764
F0.0
sI767
F0.0
sg2
(g6
S'C\x1c)\xd6\xbf\xbc\xc1?'
p270
tp271
Rp272
g12
I3
F0.5
tp273
a(I53
F13827.71806693077
(dp274
I1537
F0.0
sI2
F0.0
sI771
F0.0
sI7425
F0.0
sI3848
F0.0
sI2064
F0.0
sI23
F0.0
sI280
F0.0
sI28
F0.0
sI31
F0.6200000000000003
sI32
F1.0800000000000007
sI1570
F0.0
sI35
F0.5000000000000002
sI1060
F0.0
sI1833
F0.0
sI45
F0.0
sI564
F0.03
sI1845
F0.0
sI1847
F0.0
sI1849
F0.0
sI1594
F0.0
sI1855
F0.0
sI6465
F0.0
sI67
F0.0
sI2116
F0.0
sI587
F0.0
sI591
F0.0
sI3922
F0.0
sI2702
F0.0
sI6487
F0.0
sI1624
F0.0
sI601
F0.0
sI1377
F0.0
sI1634
F0.0
sI1636
F0.0
sI5222
F0.0
sI2406
F0.0
sI4200
F0.0
sI5225
F0.0
sI6506
F0.0
sI146
F0.46000000000000024
sI5230
F0.0
sI6001
F0.0
sI1394
F0.0
sI6772
F0.0
sI630
F0.0
sI120
F0.5800000000000003
sI4927
F0.0
sI638
F0.0
sI1407
F0.0
sI1667
F0.0
sI7045
F0.0
sI646
F0.0
sI651
F0.0
sI653
F0.0
sI142
F1.0200000000000007
sI635
F0.0
sI1170
F0.0
sI662
F0.5400000000000003
sI2967
F0.0
sI664
F0.0
sI3232
F0.0
sI1441
F0.0
sI2978
F0.0
sI2727
F0.0
sI4008
F0.0
sI170
F0.03
sI427
F0.0
sI4015
F0.0
sI1718
F0.0
sI884
F0.0
sI2234
F0.0
sI444
F0.0
sI1725
F0.0
sI448
F0.0
sI705
F0.0
sI1474
F0.0
sI196
F0.0
sI3525
F0.0
sI1223
F0.0
sI825
F0.0
sI547
F0.0
sI1492
F0.0
sI71381
F0.0
sI726
F0.0
sI36
F0.0
sI1499
F0.0
sI6034
F0.0
sI71392
F0.0
sI738
F0.0
sI739
F0.0
sI2277
F0.0
sI1514
F0.0
sI493
F0.5400000000000003
sI3063
F0.0
sI1017
F0.0
sI4090
F0.0
sI1531
F0.0
sI764
F0.0
sI767
F0.0
sg2
(g6
S'\xad\x8d\xec.\xae\xea\xc1?'
p275
tp276
Rp277
g12
I3
F0.5
tp278
a(I54
F14086.057233095169
(dp279
I1537
F0.0
sI2
F0.0
sI771
F0.0
sI7425
F0.0
sI3848
F0.0
sI2064
F0.0
sI23
F0.0
sI280
F0.0
sI28
F0.0
sI31
F0.6200000000000003
sI32
F1.1000000000000008
sI1570
F0.0
sI35
F0.5000000000000002
sI1060
F0.0
sI1833
F0.0
sI45
F0.0
sI564
F0.04
sI1845
F0.0
sI1847
F0.0
sI1849
F0.0
sI1594
F0.0
sI1855
F0.0
sI6465
F0.0
sI67
F0.0
sI2116
F0.0
sI587
F0.0
sI591
F0.0
sI3922
F0.0
sI2702
F0.0
sI6487
F0.0
sI1624
F0.0
sI601
F0.0
sI1377
F0.0
sI1634
F0.0
sI1636
F0.0
sI5222
F0.0
sI2406
F0.0
sI4200
F0.0
sI5225
F0.0
sI6506
F0.0
sI146
F0.48000000000000026
sI5230
F0.0
sI6001
F0.0
sI1394
F0.0
sI6772
F0.0
sI630
F0.0
sI120
F0.6000000000000003
sI4927
F0.0
sI638
F0.0
sI1407
F0.0
sI1667
F0.0
sI7045
F0.0
sI646
F0.0
sI651
F0.0
sI653
F0.0
sI142
F1.0200000000000007
sI635
F0.0
sI1170
F0.0
sI662
F0.5500000000000003
sI2967
F0.0
sI664
F0.0
sI3232
F0.0
sI1441
F0.0
sI2978
F0.0
sI2727
F0.0
sI4008
F0.0
sI170
F0.04
sI427
F0.0
sI4015
F0.0
sI1718
F0.0
sI884
F0.0
sI2234
F0.0
sI444
F0.0
sI1725
F0.0
sI448
F0.0
sI705
F0.0
sI1474
F0.0
sI196
F0.0
sI3525
F0.0
sI1223
F0.0
sI825
F0.0
sI547
F0.0
sI1492
F0.0
sI71381
F0.0
sI726
F0.0
sI36
F0.0
sI1499
F0.0
sI6034
F0.0
sI71392
F0.0
sI738
F0.0
sI739
F0.0
sI2277
F0.0
sI1514
F0.0
sI493
F0.5500000000000003
sI3063
F0.0
sI1017
F0.0
sI4090
F0.0
sI1531
F0.0
sI764
F0.0
sI767
F0.0
sg2
(g6
S'\xe9\n\xa0\x83\x8c\x18\xc2?'
p280
tp281
Rp282
g12
I3
F0.5
tp283
a(I55
F14341.349875926971
(dp284
I1537
F0.0
sI2
F0.0
sI771
F0.0
sI7425
F0.0
sI3848
F0.0
sI2064
F0.0
sI23
F0.0
sI280
F0.0
sI28
F0.0
sI31
F0.6200000000000003
sI32
F1.1200000000000008
sI1570
F0.0
sI35
F0.5000000000000002
sI1060
F0.0
sI1833
F0.0
sI45
F0.0
sI564
F0.05
sI1845
F0.0
sI1847
F0.0
sI1849
F0.0
sI1594
F0.0
sI1855
F0.0
sI6465
F0.0
sI67
F0.0
sI2116
F0.0
sI587
F0.0
sI591
F0.0
sI3922
F0.0
sI2702
F0.0
sI6487
F0.0
sI1624
F0.0
sI601
F0.0
sI1377
F0.0
sI1634
F0.0
sI1636
F0.0
sI5222
F0.0
sI2406
F0.0
sI4200
F0.0
sI5225
F0.0
sI6506
F0.0
sI146
F0.5000000000000002
sI5230
F0.0
sI6001
F0.0
sI1394
F0.0
sI6772
F0.0
sI630
F0.0
sI120
F0.6200000000000003
sI4927
F0.0
sI638
F0.0
sI1407
F0.0
sI1667
F0.0
sI7045
F0.0
sI646
F0.0
sI651
F0.0
sI653
F0.0
sI142
F1.0200000000000007
sI635
F0.0
sI1170
F0.0
sI662
F0.5600000000000003
sI2967
F0.0
sI664
F0.0
sI3232
F0.0
sI1441
F0.0
sI2978
F0.0
sI2727
F0.0
sI4008
F0.0
sI170
F0.05
sI427
F0.0
sI4015
F0.0
sI1718
F0.0
sI884
F0.0
sI2234
F0.0
sI444
F0.0
sI1725
F0.0
sI448
F0.0
sI705
F0.0
sI1474
F0.0
sI196
F0.0
sI3525
F0.0
sI1223
F0.0
sI825
F0.0
sI547
F0.0
sI1492
F0.0
sI71381
F0.0
sI726
F0.0
sI36
F0.0
sI1499
F0.0
sI6034
F0.0
sI71392
F0.0
sI738
F0.0
sI739
F0.0
sI2277
F0.0
sI1514
F0.0
sI493
F0.5600000000000003
sI3063
F0.0
sI1017
F0.0
sI4090
F0.0
sI1531
F0.0
sI764
F0.0
sI767
F0.0
sg2
(g6
S'\xa4_\x91\xdfZF\xc2?'
p285
tp286
Rp287
g12
I3
F0.5
tp288
a(I56
F14596.69888806343
(dp289
I1537
F0.0
sI2
F0.0
sI771
F0.0
sI7425
F0.0
sI3848
F0.0
sI2064
F0.0
sI23
F0.0
sI280
F0.0
sI28
F0.0
sI31
F0.6200000000000003
sI32
F1.1400000000000008
sI1570
F0.0
sI35
F0.5000000000000002
sI1060
F0.0
sI1833
F0.0
sI45
F0.0
sI564
F0.060000000000000005
sI1845
F0.0
sI1847
F0.0
sI1849
F0.0
sI1594
F0.0
sI1855
F0.0
sI6465
F0.0
sI67
F0.0
sI2116
F0.0
sI587
F0.0
sI591
F0.0
sI3922
F0.0
sI2702
F0.0
sI6487
F0.0
sI1624
F0.0
sI601
F0.0
sI1377
F0.0
sI1634
F0.0
sI1636
F0.0
sI5222
F0.0
sI2406
F0.0
sI4200
F0.0
sI5225
F0.0
sI6506
F0.0
sI146
F0.5200000000000002
sI5230
F0.0
sI6001
F0.0
sI1394
F0.0
sI6772
F0.0
sI630
F0.0
sI120
F0.6400000000000003
sI4927
F0.0
sI638
F0.0
sI1407
F0.0
sI1667
F0.0
sI7045
F0.0
sI646
F0.0
sI651
F0.0
sI653
F0.0
sI142
F1.0200000000000007
sI635
F0.0
sI1170
F0.0
sI662
F0.5700000000000003
sI2967
F0.0
sI664
F0.0
sI3232
F0.0
sI1441
F0.0
sI2978
F0.0
sI2727
F0.0
sI4008
F0.0
sI170
F0.060000000000000005
sI427
F0.0
sI4015
F0.0
sI1718
F0.0
sI884
F0.0
sI2234
F0.0
sI444
F0.0
sI1725
F0.0
sI448
F0.0
sI705
F0.0
sI1474
F0.0
sI196
F0.0
sI3525
F0.0
sI1223
F0.0
sI825
F0.0
sI547
F0.0
sI1492
F0.0
sI71381
F0.0
sI726
F0.0
sI36
F0.0
sI1499
F0.0
sI6034
F0.0
sI71392
F0.0
sI738
F0.0
sI739
F0.0
sI2277
F0.0
sI1514
F0.0
sI493
F0.5700000000000003
sI3063
F0.0
sI1017
F0.0
sI4090
F0.0
sI1531
F0.0
sI764
F0.0
sI767
F0.0
sg2
(g6
S'\xa2c\x02N\x19t\xc2?'
p290
tp291
Rp292
g12
I3
F0.5
tp293
a(I57
F14853.876708984375
(dp294
I1537
F0.0
sI2
F0.0
sI771
F0.0
sI7425
F0.0
sI3848
F0.0
sI2064
F0.0
sI23
F0.0
sI280
F0.0
sI28
F0.0
sI31
F0.6200000000000003
sI32
F1.1600000000000008
sI1570
F0.0
sI35
F0.5000000000000002
sI1060
F0.0
sI1833
F0.0
sI45
F0.0
sI564
F0.07
sI1845
F0.0
sI1847
F0.0
sI1849
F0.0
sI1594
F0.0
sI1855
F0.0
sI6465
F0.0
sI67
F0.0
sI2116
F0.0
sI587
F0.0
sI591
F0.0
sI3922
F0.0
sI2702
F0.0
sI6487
F0.0
sI1624
F0.0
sI601
F0.0
sI1377
F0.0
sI1634
F0.0
sI1636
F0.0
sI5222
F0.0
sI2406
F0.0
sI4200
F0.0
sI5225
F0.0
sI6506
F0.0
sI146
F0.5400000000000003
sI5230
F0.0
sI6001
F0.0
sI1394
F0.0
sI6772
F0.0
sI630
F0.0
sI120
F0.6600000000000004
sI4927
F0.0
sI638
F0.0
sI1407
F0.0
sI1667
F0.0
sI7045
F0.0
sI646
F0.0
sI651
F0.0
sI653
F0.0
sI142
F1.0200000000000007
sI635
F0.0
sI1170
F0.0
sI662
F0.5800000000000003
sI2967
F0.0
sI664
F0.0
sI3232
F0.0
sI1441
F0.0
sI2978
F0.0
sI2727
F0.0
sI4008
F0.0
sI170
F0.07
sI427
F0.0
sI4015
F0.0
sI1718
F0.0
sI884
F0.0
sI2234
F0.0
sI444
F0.0
sI1725
F0.0
sI448
F0.0
sI705
F0.0
sI1474
F0.0
sI196
F0.0
sI3525
F0.0
sI1223
F0.0
sI825
F0.0
sI547
F0.0
sI1492
F0.0
sI71381
F0.0
sI726
F0.0
sI36
F0.0
sI1499
F0.0
sI6034
F0.0
sI71392
F0.0
sI738
F0.0
sI739
F0.0
sI2277
F0.0
sI1514
F0.0
sI493
F0.5800000000000003
sI3063
F0.0
sI1017
F0.0
sI4090
F0.0
sI1531
F0.0
sI764
F0.0
sI767
F0.0
sg2
(g6
S'\x83\x0b)\xda\xc7\xa1\xc2?'
p295
tp296
Rp297
g12
I3
F0.5
tp298
a(I58
F15107.865716934204
(dp299
I1537
F0.0
sI2
F0.0
sI771
F0.0
sI7425
F0.0
sI3848
F0.0
sI2064
F0.0
sI23
F0.0
sI280
F0.0
sI28
F0.0
sI31
F0.6200000000000003
sI32
F1.1800000000000008
sI1570
F0.0
sI35
F0.5000000000000002
sI1060
F0.0
sI1833
F0.0
sI45
F0.0
sI564
F0.08
sI1845
F0.0
sI1847
F0.0
sI1849
F0.0
sI1594
F0.0
sI1855
F0.0
sI6465
F0.0
sI67
F0.0
sI2116
F0.0
sI587
F0.0
sI591
F0.0
sI3922
F0.0
sI2702
F0.0
sI6487
F0.0
sI1624
F0.0
sI601
F0.0
sI1377
F0.0
sI1634
F0.0
sI1636
F0.0
sI5222
F0.0
sI2406
F0.0
sI4200
F0.0
sI5225
F0.0
sI6506
F0.0
sI146
F0.5600000000000003
sI5230
F0.0
sI6001
F0.0
sI1394
F0.0
sI6772
F0.0
sI630
F0.0
sI120
F0.6800000000000004
sI4927
F0.0
sI638
F0.0
sI1407
F0.0
sI1667
F0.0
sI7045
F0.0
sI646
F0.0
sI651
F0.0
sI653
F0.0
sI142
F1.0200000000000007
sI635
F0.0
sI1170
F0.0
sI662
F0.5900000000000003
sI2967
F0.0
sI664
F0.0
sI3232
F0.0
sI1441
F0.0
sI2978
F0.0
sI2727
F0.0
sI4008
F0.0
sI170
F0.08
sI427
F0.0
sI4015
F0.0
sI1718
F0.0
sI884
F0.0
sI2234
F0.0
sI444
F0.0
sI1725
F0.0
sI448
F0.0
sI705
F0.0
sI1474
F0.0
sI196
F0.0
sI3525
F0.0
sI1223
F0.0
sI825
F0.0
sI547
F0.0
sI1492
F0.0
sI71381
F0.0
sI726
F0.0
sI36
F0.0
sI1499
F0.0
sI6034
F0.0
sI71392
F0.0
sI738
F0.0
sI739
F0.0
sI2277
F0.0
sI1514
F0.0
sI493
F0.5900000000000003
sI3063
F0.0
sI1017
F0.0
sI4090
F0.0
sI1531
F0.0
sI764
F0.0
sI767
F0.0
sg2
(g6
S'iy/\x8ff\xcf\xc2?'
p300
tp301
Rp302
g12
I3
F0.5
tp303
a(I59
F15364.472822904587
(dp304
I1537
F0.0
sI2
F0.0
sI771
F0.0
sI7425
F0.0
sI3848
F0.0
sI2064
F0.0
sI23
F0.0
sI280
F0.0
sI28
F0.0
sI31
F0.6200000000000003
sI32
F1.2000000000000008
sI1570
F0.0
sI35
F0.5000000000000002
sI1060
F0.0
sI1833
F0.0
sI45
F0.0
sI564
F0.09
sI1845
F0.0
sI1847
F0.0
sI1849
F0.0
sI1594
F0.0
sI1855
F0.0
sI6465
F0.0
sI67
F0.0
sI2116
F0.0
sI587
F0.0
sI591
F0.0
sI3922
F0.0
sI2702
F0.0
sI6487
F0.0
sI1624
F0.0
sI601
F0.0
sI1377
F0.0
sI1634
F0.0
sI1636
F0.0
sI5222
F0.0
sI2406
F0.0
sI4200
F0.0
sI5225
F0.0
sI6506
F0.0
sI146
F0.5800000000000003
sI5230
F0.0
sI6001
F0.0
sI1394
F0.0
sI6772
F0.0
sI630
F0.0
sI120
F0.7000000000000004
sI4927
F0.0
sI638
F0.0
sI1407
F0.0
sI1667
F0.0
sI7045
F0.0
sI646
F0.0
sI651
F0.0
sI653
F0.0
sI142
F1.0200000000000007
sI635
F0.0
sI1170
F0.0
sI662
F0.6000000000000003
sI2967
F0.0
sI664
F0.0
sI3232
F0.0
sI1441
F0.0
sI2978
F0.0
sI2727
F0.0
sI4008
F0.0
sI170
F0.09
sI427
F0.0
sI4015
F0.0
sI1718
F0.0
sI884
F0.0
sI2234
F0.0
sI444
F0.0
sI1725
F0.0
sI448
F0.0
sI705
F0.0
sI1474
F0.0
sI196
F0.0
sI3525
F0.0
sI1223
F0.0
sI825
F0.0
sI547
F0.0
sI1492
F0.0
sI71381
F0.0
sI726
F0.0
sI36
F0.0
sI1499
F0.0
sI6034
F0.0
sI71392
F0.0
sI738
F0.0
sI739
F0.0
sI2277
F0.0
sI1514
F0.0
sI493
F0.6000000000000003
sI3063
F0.0
sI1017
F0.0
sI4090
F0.0
sI1531
F0.0
sI764
F0.0
sI767
F0.0
sg2
(g6
S'\xa6\r4x\xf5\xfc\xc2?'
p305
tp306
Rp307
g12
I3
F0.5
tp308
a(I60
F15620.24250793457
(dp309
I1537
F0.0
sI2
F0.0
sI771
F0.0
sI7425
F0.0
sI3848
F0.0
sI2064
F0.0
sI23
F0.0
sI280
F0.0
sI28
F0.0
sI31
F0.6200000000000003
sI32
F1.2200000000000009
sI1570
F0.0
sI35
F0.5000000000000002
sI1060
F0.0
sI1833
F0.0
sI45
F0.0
sI564
F0.09999999999999999
sI1845
F0.0
sI1847
F0.0
sI1849
F0.0
sI1594
F0.0
sI1855
F0.0
sI6465
F0.0
sI67
F0.0
sI2116
F0.0
sI587
F0.0
sI591
F0.0
sI3922
F0.0
sI2702
F0.0
sI6487
F0.0
sI1624
F0.0
sI601
F0.0
sI1377
F0.0
sI1634
F0.0
sI1636
F0.0
sI5222
F0.0
sI2406
F0.0
sI4200
F0.0
sI5225
F0.0
sI6506
F0.0
sI146
F0.6000000000000003
sI5230
F0.0
sI6001
F0.0
sI1394
F0.0
sI6772
F0.0
sI630
F0.0
sI120
F0.7200000000000004
sI4927
F0.0
sI638
F0.0
sI1407
F0.0
sI1667
F0.0
sI7045
F0.0
sI646
F0.0
sI651
F0.0
sI653
F0.0
sI142
F1.0200000000000007
sI635
F0.0
sI1170
F0.0
sI662
F0.6100000000000003
sI2967
F0.0
sI664
F0.0
sI3232
F0.0
sI1441
F0.0
sI2978
F0.0
sI2727
F0.0
sI4008
F0.0
sI170
F0.09999999999999999
sI427
F0.0
sI4015
F0.0
sI1718
F0.0
sI884
F0.0
sI2234
F0.0
sI444
F0.0
sI1725
F0.0
sI448
F0.0
sI705
F0.0
sI1474
F0.0
sI196
F0.0
sI3525
F0.0
sI1223
F0.0
sI825
F0.0
sI547
F0.0
sI1492
F0.0
sI71381
F0.0
sI726
F0.0
sI36
F0.0
sI1499
F0.0
sI6034
F0.0
sI71392
F0.0
sI738
F0.0
sI739
F0.0
sI2277
F0.0
sI1514
F0.0
sI493
F0.6100000000000003
sI3063
F0.0
sI1017
F0.0
sI4090
F0.0
sI1531
F0.0
sI764
F0.0
sI767
F0.0
sg2
(g6
S'4wI\xa0t*\xc3?'
p310
tp311
Rp312
g12
I3
F0.5
tp313
a(I61
F15875.910315990448
(dp314
I1537
F0.0
sI2
F0.0
sI771
F0.0
sI7425
F0.0
sI3848
F0.0
sI2064
F0.0
sI23
F0.0
sI280
F0.0
sI28
F0.0
sI31
F0.6200000000000003
sI32
F1.2400000000000009
sI1570
F0.0
sI35
F0.5000000000000002
sI1060
F0.0
sI1833
F0.0
sI45
F0.0
sI564
F0.10999999999999999
sI1845
F0.0
sI1847
F0.0
sI1849
F0.0
sI1594
F0.0
sI1855
F0.0
sI6465
F0.0
sI67
F0.0
sI2116
F0.0
sI587
F0.0
sI591
F0.0
sI3922
F0.0
sI2702
F0.0
sI6487
F0.0
sI1624
F0.0
sI601
F0.0
sI1377
F0.0
sI1634
F0.0
sI1636
F0.0
sI5222
F0.0
sI2406
F0.0
sI4200
F0.0
sI5225
F0.0
sI6506
F0.0
sI146
F0.6200000000000003
sI5230
F0.0
sI6001
F0.0
sI1394
F0.0
sI6772
F0.0
sI630
F0.0
sI120
F0.7400000000000004
sI4927
F0.0
sI638
F0.0
sI1407
F0.0
sI1667
F0.0
sI7045
F0.0
sI646
F0.0
sI651
F0.0
sI653
F0.0
sI142
F1.0200000000000007
sI635
F0.0
sI1170
F0.0
sI662
F0.6200000000000003
sI2967
F0.0
sI664
F0.0
sI3232
F0.0
sI1441
F0.0
sI2978
F0.0
sI2727
F0.0
sI4008
F0.0
sI170
F0.10999999999999999
sI427
F0.0
sI4015
F0.0
sI1718
F0.0
sI884
F0.0
sI2234
F0.0
sI444
F0.0
sI1725
F0.0
sI448
F0.0
sI705
F0.0
sI1474
F0.0
sI196
F0.0
sI3525
F0.0
sI1223
F0.0
sI825
F0.0
sI547
F0.0
sI1492
F0.0
sI71381
F0.0
sI726
F0.0
sI36
F0.0
sI1499
F0.0
sI6034
F0.0
sI71392
F0.0
sI738
F0.0
sI739
F0.0
sI2277
F0.0
sI1514
F0.0
sI493
F0.6200000000000003
sI3063
F0.0
sI1017
F0.0
sI4090
F0.0
sI1531
F0.0
sI764
F0.0
sI767
F0.0
sg2
(g6
S'\r\xc4v\x12\xe4W\xc3?'
p315
tp316
Rp317
g12
I3
F0.5
tp318
a(I62
F16129.999856948853
(dp319
I1537
F0.0
sI2
F0.0
sI771
F0.0
sI7425
F0.0
sI3848
F0.0
sI2064
F0.0
sI23
F0.0
sI280
F0.0
sI28
F0.0
sI31
F0.6200000000000003
sI32
F1.260000000000001
sI1570
F0.0
sI35
F0.5000000000000002
sI1060
F0.0
sI1833
F0.0
sI45
F0.0
sI564
F0.11999999999999998
sI1845
F0.0
sI1847
F0.0
sI1849
F0.0
sI1594
F0.0
sI1855
F0.0
sI6465
F0.0
sI67
F0.0
sI2116
F0.0
sI587
F0.0
sI591
F0.0
sI3922
F0.0
sI2702
F0.0
sI6487
F0.0
sI1624
F0.0
sI601
F0.0
sI1377
F0.0
sI1634
F0.0
sI1636
F0.0
sI5222
F0.0
sI2406
F0.0
sI4200
F0.0
sI5225
F0.0
sI6506
F0.0
sI146
F0.6400000000000003
sI5230
F0.0
sI6001
F0.0
sI1394
F0.0
sI6772
F0.0
sI630
F0.0
sI120
F0.7600000000000005
sI4927
F0.0
sI638
F0.0
sI1407
F0.0
sI1667
F0.0
sI7045
F0.0
sI646
F0.0
sI651
F0.0
sI653
F0.0
sI142
F1.0200000000000007
sI635
F0.0
sI1170
F0.0
sI662
F0.6300000000000003
sI2967
F0.0
sI664
F0.0
sI3232
F0.0
sI1441
F0.0
sI2978
F0.0
sI2727
F0.0
sI4008
F0.0
sI170
F0.11999999999999998
sI427
F0.0
sI4015
F0.0
sI1718
F0.0
sI884
F0.0
sI2234
F0.0
sI444
F0.0
sI1725
F0.0
sI448
F0.0
sI705
F0.0
sI1474
F0.0
sI196
F0.0
sI3525
F0.0
sI1223
F0.0
sI825
F0.0
sI547
F0.0
sI1492
F0.0
sI71381
F0.0
sI726
F0.0
sI36
F0.0
sI1499
F0.0
sI6034
F0.0
sI71392
F0.0
sI738
F0.0
sI739
F0.0
sI2277
F0.0
sI1514
F0.0
sI493
F0.6300000000000003
sI3063
F0.0
sI1017
F0.0
sI4090
F0.0
sI1531
F0.0
sI764
F0.0
sI767
F0.0
sg2
(g6
S'hq\xb7\xd9C\x85\xc3?'
p320
tp321
Rp322
g12
I3
F0.5
tp323
a(I63
F16385.438281059265
(dp324
I1537
F0.0
sI2
F0.0
sI771
F0.0
sI7425
F0.0
sI3848
F0.0
sI2064
F0.0
sI23
F0.0
sI280
F0.0
sI28
F0.0
sI31
F0.6200000000000003
sI32
F1.280000000000001
sI1570
F0.0
sI35
F0.5000000000000002
sI1060
F0.0
sI1833
F0.0
sI45
F0.0
sI564
F0.12999999999999998
sI1845
F0.0
sI1847
F0.0
sI1849
F0.0
sI1594
F0.0
sI1855
F0.0
sI6465
F0.0
sI67
F0.0
sI2116
F0.0
sI587
F0.0
sI591
F0.0
sI3922
F0.0
sI2702
F0.0
sI6487
F0.0
sI1624
F0.0
sI601
F0.0
sI1377
F0.0
sI1634
F0.0
sI1636
F0.0
sI5222
F0.0
sI2406
F0.0
sI4200
F0.0
sI5225
F0.0
sI6506
F0.0
sI146
F0.6600000000000004
sI5230
F0.0
sI6001
F0.0
sI1394
F0.0
sI6772
F0.0
sI630
F0.0
sI120
F0.7800000000000005
sI4927
F0.0
sI638
F0.0
sI1407
F0.0
sI1667
F0.0
sI7045
F0.0
sI646
F0.0
sI651
F0.0
sI653
F0.0
sI142
F1.0200000000000007
sI635
F0.0
sI1170
F0.0
sI662
F0.6400000000000003
sI2967
F0.0
sI664
F0.0
sI3232
F0.0
sI1441
F0.0
sI2978
F0.0
sI2727
F0.0
sI4008
F0.0
sI170
F0.12999999999999998
sI427
F0.0
sI4015
F0.0
sI1718
F0.0
sI884
F0.0
sI2234
F0.0
sI444
F0.0
sI1725
F0.0
sI448
F0.0
sI705
F0.0
sI1474
F0.0
sI196
F0.0
sI3525
F0.0
sI1223
F0.0
sI825
F0.0
sI547
F0.0
sI1492
F0.0
sI71381
F0.0
sI726
F0.0
sI36
F0.0
sI1499
F0.0
sI6034
F0.0
sI71392
F0.0
sI738
F0.0
sI739
F0.0
sI2277
F0.0
sI1514
F0.0
sI493
F0.6400000000000003
sI3063
F0.0
sI1017
F0.0
sI4090
F0.0
sI1531
F0.0
sI764
F0.0
sI767
F0.0
sg2
(g6
S'\x03|\xfb\x00\x94\xb2\xc3?'
p325
tp326
Rp327
g12
I3
F0.5
tp328
a(I64
F16640.39807009697
(dp329
I1537
F0.0
sI2
F0.0
sI771
F0.0
sI7425
F0.0
sI3848
F0.0
sI2064
F0.0
sI23
F0.0
sI280
F0.0
sI28
F0.0
sI31
F0.6200000000000003
sI32
F1.300000000000001
sI1570
F0.0
sI35
F0.5000000000000002
sI1060
F0.0
sI1833
F0.0
sI45
F0.0
sI564
F0.13999999999999999
sI1845
F0.0
sI1847
F0.0
sI1849
F0.0
sI1594
F0.0
sI1855
F0.0
sI6465
F0.0
sI67
F0.0
sI2116
F0.0
sI587
F0.0
sI591
F0.0
sI3922
F0.0
sI2702
F0.0
sI6487
F0.0
sI1624
F0.0
sI601
F0.0
sI1377
F0.0
sI1634
F0.0
sI1636
F0.0
sI5222
F0.0
sI2406
F0.0
sI4200
F0.0
sI5225
F0.0
sI6506
F0.0
sI146
F0.6800000000000004
sI5230
F0.0
sI6001
F0.0
sI1394
F0.0
sI6772
F0.0
sI630
F0.0
sI120
F0.8000000000000005
sI4927
F0.0
sI638
F0.0
sI1407
F0.0
sI1667
F0.0
sI7045
F0.0
sI646
F0.0
sI651
F0.0
sI653
F0.0
sI142
F1.0200000000000007
sI635
F0.0
sI1170
F0.0
sI662
F0.6500000000000004
sI2967
F0.0
sI664
F0.0
sI3232
F0.0
sI1441
F0.0
sI2978
F0.0
sI2727
F0.0
sI4008
F0.0
sI170
F0.13999999999999999
sI427
F0.0
sI4015
F0.0
sI1718
F0.0
sI884
F0.0
sI2234
F0.0
sI444
F0.0
sI1725
F0.0
sI448
F0.0
sI705
F0.0
sI1474
F0.0
sI196
F0.0
sI3525
F0.0
sI1223
F0.0
sI825
F0.0
sI547
F0.0
sI1492
F0.0
sI71381
F0.0
sI726
F0.0
sI36
F0.0
sI1499
F0.0
sI6034
F0.0
sI71392
F0.0
sI738
F0.0
sI739
F0.0
sI2277
F0.0
sI1514
F0.0
sI493
F0.6500000000000004
sI3063
F0.0
sI1017
F0.0
sI4090
F0.0
sI1531
F0.0
sI764
F0.0
sI767
F0.0
sg2
(g6
S"\x08p'\x93\xd4\xdf\xc3?"
p330
tp331
Rp332
g12
I3
F0.5
tp333
a(I65
F16896.306489944458
(dp334
I1537
F0.0
sI2
F0.0
sI771
F0.0
sI7425
F0.0
sI3848
F0.0
sI2064
F0.0
sI23
F0.0
sI280
F0.0
sI28
F0.0
sI31
F0.6200000000000003
sI32
F1.320000000000001
sI1570
F0.0
sI35
F0.5000000000000002
sI1060
F0.0
sI1833
F0.0
sI45
F0.0
sI564
F0.15
sI1845
F0.0
sI1847
F0.0
sI1849
F0.0
sI1594
F0.0
sI1855
F0.0
sI6465
F0.0
sI67
F0.0
sI2116
F0.0
sI587
F0.0
sI591
F0.0
sI3922
F0.0
sI2702
F0.0
sI6487
F0.0
sI1624
F0.0
sI601
F0.0
sI1377
F0.0
sI1634
F0.0
sI1636
F0.0
sI5222
F0.0
sI2406
F0.0
sI4200
F0.0
sI5225
F0.0
sI6506
F0.0
sI146
F0.7000000000000004
sI5230
F0.0
sI6001
F0.0
sI1394
F0.0
sI6772
F0.0
sI630
F0.0
sI120
F0.8200000000000005
sI4927
F0.0
sI638
F0.0
sI1407
F0.0
sI1667
F0.0
sI7045
F0.0
sI646
F0.0
sI651
F0.0
sI653
F0.0
sI142
F1.0200000000000007
sI635
F0.0
sI1170
F0.0
sI662
F0.6600000000000004
sI2967
F0.0
sI664
F0.0
sI3232
F0.0
sI1441
F0.0
sI2978
F0.0
sI2727
F0.0
sI4008
F0.0
sI170
F0.15
sI427
F0.0
sI4015
F0.0
sI1718
F0.0
sI884
F0.0
sI2234
F0.0
sI444
F0.0
sI1725
F0.0
sI448
F0.0
sI705
F0.0
sI1474
F0.0
sI196
F0.0
sI3525
F0.0
sI1223
F0.0
sI825
F0.0
sI547
F0.0
sI1492
F0.0
sI71381
F0.0
sI726
F0.0
sI36
F0.0
sI1499
F0.0
sI6034
F0.0
sI71392
F0.0
sI738
F0.0
sI739
F0.0
sI2277
F0.0
sI1514
F0.0
sI493
F0.6600000000000004
sI3063
F0.0
sI1017
F0.0
sI4090
F0.0
sI1531
F0.0
sI764
F0.0
sI767
F0.0
sg2
(g6
S'\xf1x\x14\x9b\x05\r\xc4?'
p335
tp336
Rp337
g12
I3
F0.5
tp338
a(I66
F17151.914416074753
(dp339
I1537
F0.0
sI2
F0.0
sI771
F0.0
sI7425
F0.0
sI3848
F0.0
sI2064
F0.0
sI23
F0.0
sI280
F0.0
sI28
F0.0
sI31
F0.6200000000000003
sI32
F1.340000000000001
sI1570
F0.0
sI35
F0.5000000000000002
sI1060
F0.0
sI1833
F0.0
sI45
F0.0
sI564
F0.16
sI1845
F0.0
sI1847
F0.0
sI1849
F0.0
sI1594
F0.0
sI1855
F0.0
sI6465
F0.0
sI67
F0.0
sI2116
F0.0
sI587
F0.0
sI591
F0.0
sI3922
F0.0
sI2702
F0.0
sI6487
F0.0
sI1624
F0.0
sI601
F0.0
sI1377
F0.0
sI1634
F0.0
sI1636
F0.0
sI5222
F0.0
sI2406
F0.0
sI4200
F0.0
sI5225
F0.0
sI6506
F0.0
sI146
F0.7200000000000004
sI5230
F0.0
sI6001
F0.0
sI1394
F0.0
sI6772
F0.0
sI630
F0.0
sI120
F0.8400000000000005
sI4927
F0.0
sI638
F0.0
sI1407
F0.0
sI1667
F0.0
sI7045
F0.0
sI646
F0.0
sI651
F0.0
sI653
F0.0
sI142
F1.0200000000000007
sI635
F0.0
sI1170
F0.0
sI662
F0.6700000000000004
sI2967
F0.0
sI664
F0.0
sI3232
F0.0
sI1441
F0.0
sI2978
F0.0
sI2727
F0.0
sI4008
F0.0
sI170
F0.16
sI427
F0.0
sI4015
F0.0
sI1718
F0.0
sI884
F0.0
sI2234
F0.0
sI444
F0.0
sI1725
F0.0
sI448
F0.0
sI705
F0.0
sI1474
F0.0
sI196
F0.0
sI3525
F0.0
sI1223
F0.0
sI825
F0.0
sI547
F0.0
sI1492
F0.0
sI71381
F0.0
sI726
F0.0
sI36
F0.0
sI1499
F0.0
sI6034
F0.0
sI71392
F0.0
sI738
F0.0
sI739
F0.0
sI2277
F0.0
sI1514
F0.0
sI493
F0.6700000000000004
sI3063
F0.0
sI1017
F0.0
sI4090
F0.0
sI1531
F0.0
sI764
F0.0
sI767
F0.0
sg2
(g6
S"\x93q\x90#':\xc4?"
p340
tp341
Rp342
g12
I3
F0.5
tp343
a(I67
F17406.391707897186
(dp344
I1537
F0.0
sI2
F0.0
sI771
F0.0
sI7425
F0.0
sI3848
F0.0
sI2064
F0.0
sI23
F0.0
sI280
F0.0
sI28
F0.0
sI31
F0.6200000000000003
sI32
F1.360000000000001
sI1570
F0.0
sI35
F0.5000000000000002
sI1060
F0.0
sI1833
F0.0
sI45
F0.0
sI564
F0.17
sI1845
F0.0
sI1847
F0.0
sI1849
F0.0
sI1594
F0.0
sI1855
F0.0
sI6465
F0.0
sI67
F0.0
sI2116
F0.0
sI587
F0.0
sI591
F0.0
sI3922
F0.0
sI2702
F0.0
sI6487
F0.0
sI1624
F0.0
sI601
F0.0
sI1377
F0.0
sI1634
F0.0
sI1636
F0.0
sI5222
F0.0
sI2406
F0.0
sI4200
F0.0
sI5225
F0.0
sI6506
F0.0
sI146
F0.7400000000000004
sI5230
F0.0
sI6001
F0.0
sI1394
F0.0
sI6772
F0.0
sI630
F0.0
sI120
F0.8600000000000005
sI4927
F0.0
sI638
F0.0
sI1407
F0.0
sI1667
F0.0
sI7045
F0.0
sI646
F0.0
sI651
F0.0
sI653
F0.0
sI142
F1.0200000000000007
sI635
F0.0
sI1170
F0.0
sI662
F0.6800000000000004
sI2967
F0.0
sI664
F0.0
sI3232
F0.0
sI1441
F0.0
sI2978
F0.0
sI2727
F0.0
sI4008
F0.0
sI170
F0.17
sI427
F0.0
sI4015
F0.0
sI1718
F0.0
sI884
F0.0
sI2234
F0.0
sI444
F0.0
sI1725
F0.0
sI448
F0.0
sI705
F0.0
sI1474
F0.0
sI196
F0.0
sI3525
F0.0
sI1223
F0.0
sI825
F0.0
sI547
F0.0
sI1492
F0.0
sI71381
F0.0
sI726
F0.0
sI36
F0.0
sI1499
F0.0
sI6034
F0.0
sI71392
F0.0
sI738
F0.0
sI739
F0.0
sI2277
F0.0
sI1514
F0.0
sI493
F0.6800000000000004
sI3063
F0.0
sI1017
F0.0
sI4090
F0.0
sI1531
F0.0
sI764
F0.0
sI767
F0.0
sg2
(g6
S'\xa8\xf3]79g\xc4?'
p345
tp346
Rp347
g12
I3
F0.5
tp348
a(I68
F17663.234184026718
(dp349
I1537
F0.0
sI2
F0.0
sI771
F0.0
sI7425
F0.0
sI3848
F0.0
sI2064
F0.0
sI23
F0.0
sI280
F0.0
sI28
F0.0
sI31
F0.6200000000000003
sI32
F1.380000000000001
sI1570
F0.0
sI35
F0.5000000000000002
sI1060
F0.0
sI1833
F0.0
sI45
F0.0
sI564
F0.17
sI1845
F0.0
sI1847
F0.0
sI1849
F0.0
sI1594
F0.0
sI1855
F0.0
sI6465
F0.0
sI67
F0.0
sI2116
F0.0
sI587
F0.0
sI591
F0.0
sI3922
F0.0
sI2702
F0.0
sI6487
F0.0
sI1624
F0.0
sI601
F0.0
sI1377
F0.0
sI1634
F0.0
sI1636
F0.0
sI5222
F0.0
sI2406
F0.0
sI4200
F0.0
sI5225
F0.0
sI6506
F0.0
sI146
F0.7600000000000005
sI5230
F0.0
sI6001
F0.0
sI1394
F0.0
sI6772
F0.0
sI630
F0.0
sI120
F0.8800000000000006
sI4927
F0.0
sI638
F0.0
sI1407
F0.0
sI1667
F0.0
sI7045
F0.0
sI646
F0.0
sI651
F0.0
sI653
F0.0
sI142
F1.0200000000000007
sI635
F0.0
sI1170
F0.0
sI662
F0.6900000000000004
sI2967
F0.0
sI664
F0.0
sI3232
F0.0
sI1441
F0.0
sI2978
F0.0
sI2727
F0.0
sI4008
F0.0
sI170
F0.19000000000000003
sI427
F0.0
sI4015
F0.0
sI1718
F0.0
sI884
F0.0
sI2234
F0.0
sI444
F0.0
sI1725
F0.0
sI448
F0.0
sI705
F0.0
sI1474
F0.0
sI196
F0.0
sI3525
F0.0
sI1223
F0.0
sI825
F0.0
sI547
F0.0
sI1492
F0.0
sI71381
F0.0
sI726
F0.0
sI36
F0.0
sI1499
F0.0
sI6034
F0.0
sI71392
F0.0
sI738
F0.0
sI739
F0.0
sI2277
F0.0
sI1514
F0.0
sI493
F0.6900000000000004
sI3063
F0.0
sI1017
F0.0
sI4090
F0.0
sI1531
F0.0
sI764
F0.0
sI767
F0.0
sg2
(g6
S'wg4\xe1;\x94\xc4?'
p350
tp351
Rp352
g12
I3
F0.5
tp353
a(I69
F17919.520348072052
(dp354
I1537
F0.0
sI2
F0.0
sI771
F0.0
sI7425
F0.0
sI3848
F0.0
sI2064
F0.0
sI23
F0.0
sI280
F0.0
sI28
F0.0
sI31
F0.6200000000000003
sI32
F1.400000000000001
sI1570
F0.0
sI35
F0.5000000000000002
sI1060
F0.0
sI1833
F0.0
sI45
F0.0
sI564
F0.17
sI1845
F0.0
sI1847
F0.0
sI1849
F0.0
sI1594
F0.0
sI1855
F0.0
sI6465
F0.0
sI67
F0.0
sI2116
F0.0
sI587
F0.0
sI591
F0.0
sI3922
F0.0
sI2702
F0.0
sI6487
F0.0
sI1624
F0.0
sI601
F0.0
sI1377
F0.0
sI1634
F0.0
sI1636
F0.0
sI5222
F0.0
sI2406
F0.0
sI4200
F0.0
sI5225
F0.0
sI6506
F0.0
sI146
F0.7800000000000005
sI5230
F0.0
sI6001
F0.0
sI1394
F0.0
sI6772
F0.0
sI630
F0.0
sI120
F0.9000000000000006
sI4927
F0.0
sI638
F0.0
sI1407
F0.0
sI1667
F0.0
sI7045
F0.0
sI646
F0.0
sI651
F0.0
sI653
F0.0
sI142
F1.0200000000000007
sI635
F0.0
sI1170
F0.0
sI662
F0.7000000000000004
sI2967
F0.0
sI664
F0.0
sI3232
F0.0
sI1441
F0.0
sI2978
F0.0
sI2727
F0.0
sI4008
F0.0
sI170
F0.21000000000000005
sI427
F0.0
sI4015
F0.0
sI1718
F0.0
sI884
F0.0
sI2234
F0.0
sI444
F0.0
sI1725
F0.0
sI448
F0.0
sI705
F0.0
sI1474
F0.0
sI196
F0.0
sI3525
F0.0
sI1223
F0.0
sI825
F0.0
sI547
F0.0
sI1492
F0.0
sI71381
F0.0
sI726
F0.0
sI36
F0.0
sI1499
F0.0
sI6034
F0.0
sI71392
F0.0
sI738
F0.0
sI739
F0.0
sI2277
F0.0
sI1514
F0.0
sI493
F0.7000000000000004
sI3063
F0.0
sI1017
F0.0
sI4090
F0.0
sI1531
F0.0
sI764
F0.0
sI767
F0.0
sg2
(g6
S'I\x13\xc0+/\xc1\xc4?'
p355
tp356
Rp357
g12
I3
F0.5
tp358
a(I70
F18174.53470301628
(dp359
I1537
F0.0
sI2
F0.0
sI771
F0.0
sI7425
F0.0
sI3848
F0.0
sI2064
F0.0
sI23
F0.0
sI280
F0.0
sI28
F0.0
sI31
F0.6200000000000003
sI32
F1.420000000000001
sI1570
F0.0
sI35
F0.5000000000000002
sI1060
F0.0
sI1833
F0.0
sI45
F0.0
sI564
F0.17
sI1845
F0.0
sI1847
F0.0
sI1849
F0.0
sI1594
F0.0
sI1855
F0.0
sI6465
F0.0
sI67
F0.0
sI2116
F0.0
sI587
F0.0
sI591
F0.0
sI3922
F0.0
sI2702
F0.0
sI6487
F0.0
sI1624
F0.0
sI601
F0.0
sI1377
F0.0
sI1634
F0.0
sI1636
F0.0
sI5222
F0.0
sI2406
F0.0
sI4200
F0.0
sI5225
F0.0
sI6506
F0.0
sI146
F0.8000000000000005
sI5230
F0.0
sI6001
F0.0
sI1394
F0.0
sI6772
F0.0
sI630
F0.0
sI120
F0.9200000000000006
sI4927
F0.0
sI638
F0.0
sI1407
F0.0
sI1667
F0.0
sI7045
F0.0
sI646
F0.0
sI651
F0.0
sI653
F0.0
sI142
F1.0200000000000007
sI635
F0.0
sI1170
F0.0
sI662
F0.7100000000000004
sI2967
F0.0
sI664
F0.0
sI3232
F0.0
sI1441
F0.0
sI2978
F0.0
sI2727
F0.0
sI4008
F0.0
sI170
F0.23000000000000007
sI427
F0.0
sI4015
F0.0
sI1718
F0.0
sI884
F0.0
sI2234
F0.0
sI444
F0.0
sI1725
F0.0
sI448
F0.0
sI705
F0.0
sI1474
F0.0
sI196
F0.0
sI3525
F0.0
sI1223
F0.0
sI825
F0.0
sI547
F0.0
sI1492
F0.0
sI71381
F0.0
sI726
F0.0
sI36
F0.0
sI1499
F0.0
sI6034
F0.0
sI71392
F0.0
sI738
F0.0
sI739
F0.0
sI2277
F0.0
sI1514
F0.0
sI493
F0.7100000000000004
sI3063
F0.0
sI1017
F0.0
sI4090
F0.0
sI1531
F0.0
sI764
F0.0
sI767
F0.0
sg2
(g6
S'\xe5*\xa2!\x13\xee\xc4?'
p360
tp361
Rp362
g12
I3
F0.5
tp363
a(I71
F18431.330226898193
(dp364
I1537
F0.0
sI2
F0.0
sI771
F0.0
sI7425
F0.0
sI3848
F0.0
sI2064
F0.0
sI23
F0.0
sI280
F0.0
sI28
F0.0
sI31
F0.6200000000000003
sI32
F1.440000000000001
sI1570
F0.0
sI35
F0.5000000000000002
sI1060
F0.0
sI1833
F0.0
sI45
F0.0
sI564
F0.17
sI1845
F0.0
sI1847
F0.0
sI1849
F0.0
sI1594
F0.0
sI1855
F0.0
sI6465
F0.0
sI67
F0.0
sI2116
F0.0
sI587
F0.0
sI591
F0.0
sI3922
F0.0
sI2702
F0.0
sI6487
F0.0
sI1624
F0.0
sI601
F0.0
sI1377
F0.0
sI1634
F0.0
sI1636
F0.0
sI5222
F0.0
sI2406
F0.0
sI4200
F0.0
sI5225
F0.0
sI6506
F0.0
sI146
F0.8200000000000005
sI5230
F0.0
sI6001
F0.0
sI1394
F0.0
sI6772
F0.0
sI630
F0.0
sI120
F0.9400000000000006
sI4927
F0.0
sI638
F0.0
sI1407
F0.0
sI1667
F0.0
sI7045
F0.0
sI646
F0.0
sI651
F0.0
sI653
F0.0
sI142
F1.0200000000000007
sI635
F0.0
sI1170
F0.0
sI662
F0.7200000000000004
sI2967
F0.0
sI664
F0.0
sI3232
F0.0
sI1441
F0.0
sI2978
F0.0
sI2727
F0.0
sI4008
F0.0
sI170
F0.25000000000000006
sI427
F0.0
sI4015
F0.0
sI1718
F0.0
sI884
F0.0
sI2234
F0.0
sI444
F0.0
sI1725
F0.0
sI448
F0.0
sI705
F0.0
sI1474
F0.0
sI196
F0.0
sI3525
F0.0
sI1223
F0.0
sI825
F0.0
sI547
F0.0
sI1492
F0.0
sI71381
F0.0
sI726
F0.0
sI36
F0.0
sI1499
F0.0
sI6034
F0.0
sI71392
F0.0
sI738
F0.0
sI739
F0.0
sI2277
F0.0
sI1514
F0.0
sI493
F0.7200000000000004
sI3063
F0.0
sI1017
F0.0
sI4090
F0.0
sI1531
F0.0
sI764
F0.0
sI767
F0.0
sg2
(g6
S'\xd7\xdep\xcd\xe7\x1a\xc5?'
p365
tp366
Rp367
g12
I3
F0.5
tp368
a(I72
F18687.45190000534
(dp369
I1537
F0.0
sI2
F0.0
sI771
F0.0
sI7425
F0.0
sI3848
F0.0
sI2064
F0.0
sI23
F0.0
sI280
F0.0
sI28
F0.0
sI31
F0.6200000000000003
sI32
F1.460000000000001
sI1570
F0.0
sI35
F0.5000000000000002
sI1060
F0.0
sI1833
F0.0
sI45
F0.0
sI564
F0.17
sI1845
F0.0
sI1847
F0.0
sI1849
F0.0
sI1594
F0.0
sI1855
F0.0
sI6465
F0.0
sI67
F0.0
sI2116
F0.0
sI587
F0.0
sI591
F0.0
sI3922
F0.0
sI2702
F0.0
sI6487
F0.0
sI1624
F0.0
sI601
F0.0
sI1377
F0.0
sI1634
F0.0
sI1636
F0.0
sI5222
F0.0
sI2406
F0.0
sI4200
F0.0
sI5225
F0.0
sI6506
F0.0
sI146
F0.8400000000000005
sI5230
F0.0
sI6001
F0.0
sI1394
F0.0
sI6772
F0.0
sI630
F0.0
sI120
F0.9600000000000006
sI4927
F0.0
sI638
F0.0
sI1407
F0.0
sI1667
F0.0
sI7045
F0.0
sI646
F0.0
sI651
F0.0
sI653
F0.0
sI142
F1.0200000000000007
sI635
F0.0
sI1170
F0.0
sI662
F0.7300000000000004
sI2967
F0.0
sI664
F0.0
sI3232
F0.0
sI1441
F0.0
sI2978
F0.0
sI2727
F0.0
sI4008
F0.0
sI170
F0.2700000000000001
sI427
F0.0
sI4015
F0.0
sI1718
F0.0
sI884
F0.0
sI2234
F0.0
sI444
F0.0
sI1725
F0.0
sI448
F0.0
sI705
F0.0
sI1474
F0.0
sI196
F0.0
sI3525
F0.0
sI1223
F0.0
sI825
F0.0
sI547
F0.0
sI1492
F0.0
sI71381
F0.0
sI726
F0.0
sI36
F0.0
sI1499
F0.0
sI6034
F0.0
sI71392
F0.0
sI738
F0.0
sI739
F0.0
sI2277
F0.0
sI1514
F0.0
sI493
F0.7300000000000004
sI3063
F0.0
sI1017
F0.0
sI4090
F0.0
sI1531
F0.0
sI764
F0.0
sI767
F0.0
sg2
(g6
S'\x93k\xb79\xadG\xc5?'
p370
tp371
Rp372
g12
I3
F0.5
tp373
a(I73
F18945.100474119186
(dp374
I1537
F0.0
sI2
F0.0
sI771
F0.0
sI7425
F0.0
sI3848
F0.0
sI2064
F0.0
sI23
F0.0
sI280
F0.0
sI28
F0.0
sI31
F0.6200000000000003
sI32
F1.480000000000001
sI1570
F0.0
sI35
F0.5000000000000002
sI1060
F0.0
sI1833
F0.0
sI45
F0.0
sI564
F0.17
sI1845
F0.0
sI1847
F0.0
sI1849
F0.0
sI1594
F0.0
sI1855
F0.0
sI6465
F0.0
sI67
F0.0
sI2116
F0.0
sI587
F0.0
sI591
F0.0
sI3922
F0.0
sI2702
F0.0
sI6487
F0.0
sI1624
F0.0
sI601
F0.0
sI1377
F0.0
sI1634
F0.0
sI1636
F0.0
sI5222
F0.0
sI2406
F0.0
sI4200
F0.0
sI5225
F0.0
sI6506
F0.0
sI146
F0.8600000000000005
sI5230
F0.0
sI6001
F0.0
sI1394
F0.0
sI6772
F0.0
sI630
F0.0
sI120
F0.9800000000000006
sI4927
F0.0
sI638
F0.0
sI1407
F0.0
sI1667
F0.0
sI7045
F0.0
sI646
F0.0
sI651
F0.0
sI653
F0.0
sI142
F1.0200000000000007
sI635
F0.0
sI1170
F0.0
sI662
F0.7400000000000004
sI2967
F0.0
sI664
F0.0
sI3232
F0.0
sI1441
F0.0
sI2978
F0.0
sI2727
F0.0
sI4008
F0.0
sI170
F0.2900000000000001
sI427
F0.0
sI4015
F0.0
sI1718
F0.0
sI884
F0.0
sI2234
F0.0
sI444
F0.0
sI1725
F0.0
sI448
F0.0
sI705
F0.0
sI1474
F0.0
sI196
F0.0
sI3525
F0.0
sI1223
F0.0
sI825
F0.0
sI547
F0.0
sI1492
F0.0
sI71381
F0.0
sI726
F0.0
sI36
F0.0
sI1499
F0.0
sI6034
F0.0
sI71392
F0.0
sI738
F0.0
sI739
F0.0
sI2277
F0.0
sI1514
F0.0
sI493
F0.7400000000000004
sI3063
F0.0
sI1017
F0.0
sI4090
F0.0
sI1531
F0.0
sI764
F0.0
sI767
F0.0
sg2
(g6
S'\x95(\xf6pct\xc5?'
p375
tp376
Rp377
g12
I3
F0.5
tp378
a(I74
F19201.414117097855
(dp379
I1537
F0.0
sI2
F0.0
sI771
F0.0
sI7425
F0.0
sI3848
F0.0
sI2064
F0.0
sI23
F0.0
sI280
F0.0
sI28
F0.0
sI31
F0.6200000000000003
sI32
F1.500000000000001
sI1570
F0.0
sI35
F0.5000000000000002
sI1060
F0.0
sI1833
F0.0
sI45
F0.0
sI564
F0.17
sI1845
F0.0
sI1847
F0.0
sI1849
F0.0
sI1594
F0.0
sI1855
F0.0
sI6465
F0.0
sI67
F0.0
sI2116
F0.0
sI587
F0.0
sI591
F0.0
sI3922
F0.0
sI2702
F0.0
sI6487
F0.0
sI1624
F0.0
sI601
F0.0
sI1377
F0.0
sI1634
F0.0
sI1636
F0.0
sI5222
F0.0
sI2406
F0.0
sI4200
F0.0
sI5225
F0.0
sI6506
F0.0
sI146
F0.8800000000000006
sI5230
F0.0
sI6001
F0.0
sI1394
F0.0
sI6772
F0.0
sI630
F0.0
sI120
F1.0000000000000007
sI4927
F0.0
sI638
F0.0
sI1407
F0.0
sI1667
F0.0
sI7045
F0.0
sI646
F0.0
sI651
F0.0
sI653
F0.0
sI142
F1.0200000000000007
sI635
F0.0
sI1170
F0.0
sI662
F0.7500000000000004
sI2967
F0.0
sI664
F0.0
sI3232
F0.0
sI1441
F0.0
sI2978
F0.0
sI2727
F0.0
sI4008
F0.0
sI170
F0.3100000000000001
sI427
F0.0
sI4015
F0.0
sI1718
F0.0
sI884
F0.0
sI2234
F0.0
sI444
F0.0
sI1725
F0.0
sI448
F0.0
sI705
F0.0
sI1474
F0.0
sI196
F0.0
sI3525
F0.0
sI1223
F0.0
sI825
F0.0
sI547
F0.0
sI1492
F0.0
sI71381
F0.0
sI726
F0.0
sI36
F0.0
sI1499
F0.0
sI6034
F0.0
sI71392
F0.0
sI738
F0.0
sI739
F0.0
sI2277
F0.0
sI1514
F0.0
sI493
F0.7500000000000004
sI3063
F0.0
sI1017
F0.0
sI4090
F0.0
sI1531
F0.0
sI764
F0.0
sI767
F0.0
sg2
(g6
S'k\x97\xa2}\n\xa1\xc5?'
p380
tp381
Rp382
g12
I3
F0.5
tp383
a(I75
F19458.16798210144
(dp384
I1537
F0.0
sI2
F0.0
sI771
F0.0
sI7425
F0.0
sI3848
F0.0
sI2064
F0.0
sI23
F0.0
sI280
F0.0
sI28
F0.0
sI31
F0.6200000000000003
sI32
F1.5200000000000011
sI1570
F0.0
sI35
F0.5000000000000002
sI1060
F0.0
sI1833
F0.0
sI45
F0.0
sI564
F0.17
sI1845
F0.0
sI1847
F0.0
sI1849
F0.0
sI1594
F0.0
sI1855
F0.0
sI6465
F0.0
sI67
F0.0
sI2116
F0.0
sI587
F0.0
sI591
F0.0
sI3922
F0.0
sI2702
F0.0
sI6487
F0.0
sI1624
F0.0
sI601
F0.0
sI1377
F0.0
sI1634
F0.0
sI1636
F0.0
sI5222
F0.0
sI2406
F0.0
sI4200
F0.0
sI5225
F0.0
sI6506
F0.0
sI146
F0.9000000000000006
sI5230
F0.0
sI6001
F0.0
sI1394
F0.0
sI6772
F0.0
sI630
F0.0
sI120
F1.0200000000000007
sI4927
F0.0
sI638
F0.0
sI1407
F0.0
sI1667
F0.0
sI7045
F0.0
sI646
F0.0
sI651
F0.0
sI653
F0.0
sI142
F1.0200000000000007
sI635
F0.0
sI1170
F0.0
sI662
F0.7600000000000005
sI2967
F0.0
sI664
F0.0
sI3232
F0.0
sI1441
F0.0
sI2978
F0.0
sI2727
F0.0
sI4008
F0.0
sI170
F0.3300000000000001
sI427
F0.0
sI4015
F0.0
sI1718
F0.0
sI884
F0.0
sI2234
F0.0
sI444
F0.0
sI1725
F0.0
sI448
F0.0
sI705
F0.0
sI1474
F0.0
sI196
F0.0
sI3525
F0.0
sI1223
F0.0
sI825
F0.0
sI547
F0.0
sI1492
F0.0
sI71381
F0.0
sI726
F0.0
sI36
F0.0
sI1499
F0.0
sI6034
F0.0
sI71392
F0.0
sI738
F0.0
sI739
F0.0
sI2277
F0.0
sI1514
F0.0
sI493
F0.7600000000000005
sI3063
F0.0
sI1017
F0.0
sI4090
F0.0
sI1531
F0.0
sI764
F0.0
sI767
F0.0
sg2
(g6
S"kr'j\xa2\xcd\xc5?"
p385
tp386
Rp387
g12
I3
F0.5
tp388
a(I76
F19714.52369904518
(dp389
I1537
F0.0
sI2
F0.0
sI771
F0.0
sI7425
F0.0
sI3848
F0.0
sI2064
F0.0
sI23
F0.0
sI280
F0.0
sI28
F0.0
sI31
F0.6200000000000003
sI32
F1.5400000000000011
sI1570
F0.0
sI35
F0.5000000000000002
sI1060
F0.0
sI1833
F0.0
sI45
F0.0
sI564
F0.17
sI1845
F0.0
sI1847
F0.0
sI1849
F0.0
sI1594
F0.0
sI1855
F0.0
sI6465
F0.0
sI67
F0.0
sI2116
F0.0
sI587
F0.0
sI591
F0.0
sI3922
F0.0
sI2702
F0.0
sI6487
F0.0
sI1624
F0.0
sI601
F0.0
sI1377
F0.0
sI1634
F0.0
sI1636
F0.0
sI5222
F0.0
sI2406
F0.0
sI4200
F0.0
sI5225
F0.0
sI6506
F0.0
sI146
F0.9200000000000006
sI5230
F0.0
sI6001
F0.0
sI1394
F0.0
sI6772
F0.0
sI630
F0.0
sI120
F1.0400000000000007
sI4927
F0.0
sI638
F0.0
sI1407
F0.0
sI1667
F0.0
sI7045
F0.0
sI646
F0.0
sI651
F0.0
sI653
F0.0
sI142
F1.0200000000000007
sI635
F0.0
sI1170
F0.0
sI662
F0.7700000000000005
sI2967
F0.0
sI664
F0.0
sI3232
F0.0
sI1441
F0.0
sI2978
F0.0
sI2727
F0.0
sI4008
F0.0
sI170
F0.35000000000000014
sI427
F0.0
sI4015
F0.0
sI1718
F0.0
sI884
F0.0
sI2234
F0.0
sI444
F0.0
sI1725
F0.0
sI448
F0.0
sI705
F0.0
sI1474
F0.0
sI196
F0.0
sI3525
F0.0
sI1223
F0.0
sI825
F0.0
sI547
F0.0
sI1492
F0.0
sI71381
F0.0
sI726
F0.0
sI36
F0.0
sI1499
F0.0
sI6034
F0.0
sI71392
F0.0
sI738
F0.0
sI739
F0.0
sI2277
F0.0
sI1514
F0.0
sI493
F0.7700000000000005
sI3063
F0.0
sI1017
F0.0
sI4090
F0.0
sI1531
F0.0
sI764
F0.0
sI767
F0.0
sg2
(g6
S'\xb7\xbb\xe4@+\xfa\xc5?'
p390
tp391
Rp392
g12
I3
F0.5
tp393
a(I77
F19971.60396003723
(dp394
I1537
F0.0
sI2
F0.0
sI771
F0.0
sI7425
F0.0
sI3848
F0.0
sI2064
F0.0
sI23
F0.0
sI280
F0.0
sI28
F0.0
sI31
F0.6200000000000003
sI32
F1.5600000000000012
sI1570
F0.0
sI35
F0.5000000000000002
sI1060
F0.0
sI1833
F0.0
sI45
F0.0
sI564
F0.17
sI1845
F0.0
sI1847
F0.0
sI1849
F0.0
sI1594
F0.0
sI1855
F0.0
sI6465
F0.0
sI67
F0.0
sI2116
F0.0
sI587
F0.0
sI591
F0.0
sI3922
F0.0
sI2702
F0.0
sI6487
F0.0
sI1624
F0.0
sI601
F0.0
sI1377
F0.0
sI1634
F0.0
sI1636
F0.0
sI5222
F0.0
sI2406
F0.0
sI4200
F0.0
sI5225
F0.0
sI6506
F0.0
sI146
F0.9400000000000006
sI5230
F0.0
sI6001
F0.0
sI1394
F0.0
sI6772
F0.0
sI630
F0.0
sI120
F1.0600000000000007
sI4927
F0.0
sI638
F0.0
sI1407
F0.0
sI1667
F0.0
sI7045
F0.0
sI646
F0.0
sI651
F0.0
sI653
F0.0
sI142
F1.0200000000000007
sI635
F0.0
sI1170
F0.0
sI662
F0.7800000000000005
sI2967
F0.0
sI664
F0.0
sI3232
F0.0
sI1441
F0.0
sI2978
F0.0
sI2727
F0.0
sI4008
F0.0
sI170
F0.37000000000000016
sI427
F0.0
sI4015
F0.0
sI1718
F0.0
sI884
F0.0
sI2234
F0.0
sI444
F0.0
sI1725
F0.0
sI448
F0.0
sI705
F0.0
sI1474
F0.0
sI196
F0.0
sI3525
F0.0
sI1223
F0.0
sI825
F0.0
sI547
F0.0
sI1492
F0.0
sI71381
F0.0
sI726
F0.0
sI36
F0.0
sI1499
F0.0
sI6034
F0.0
sI71392
F0.0
sI738
F0.0
sI739
F0.0
sI2277
F0.0
sI1514
F0.0
sI493
F0.7800000000000005
sI3063
F0.0
sI1017
F0.0
sI4090
F0.0
sI1531
F0.0
sI764
F0.0
sI767
F0.0
sg2
(g6
S'\xdb\xcb/\x0c\xa5&\xc6?'
p395
tp396
Rp397
g12
I3
F0.5
tp398
a(I78
F20228.30380511284
(dp399
I1537
F0.0
sI2
F0.0
sI771
F0.0
sI7425
F0.0
sI3848
F0.0
sI2064
F0.0
sI23
F0.0
sI280
F0.0
sI28
F0.0
sI31
F0.6200000000000003
sI32
F1.5800000000000012
sI1570
F0.0
sI35
F0.5000000000000002
sI1060
F0.0
sI1833
F0.0
sI45
F0.0
sI564
F0.17
sI1845
F0.0
sI1847
F0.0
sI1849
F0.0
sI1594
F0.0
sI1855
F0.0
sI6465
F0.0
sI67
F0.0
sI2116
F0.0
sI587
F0.0
sI591
F0.0
sI3922
F0.0
sI2702
F0.0
sI6487
F0.0
sI1624
F0.0
sI601
F0.0
sI1377
F0.0
sI1634
F0.0
sI1636
F0.0
sI5222
F0.0
sI2406
F0.0
sI4200
F0.0
sI5225
F0.0
sI6506
F0.0
sI146
F0.9600000000000006
sI5230
F0.0
sI6001
F0.0
sI1394
F0.0
sI6772
F0.0
sI630
F0.0
sI120
F1.0800000000000007
sI4927
F0.0
sI638
F0.0
sI1407
F0.0
sI1667
F0.0
sI7045
F0.0
sI646
F0.0
sI651
F0.0
sI653
F0.0
sI142
F1.0200000000000007
sI635
F0.0
sI1170
F0.0
sI662
F0.7900000000000005
sI2967
F0.0
sI664
F0.0
sI3232
F0.0
sI1441
F0.0
sI2978
F0.0
sI2727
F0.0
sI4008
F0.0
sI170
F0.3900000000000002
sI427
F0.0
sI4015
F0.0
sI1718
F0.0
sI884
F0.0
sI2234
F0.0
sI444
F0.0
sI1725
F0.0
sI448
F0.0
sI705
F0.0
sI1474
F0.0
sI196
F0.0
sI3525
F0.0
sI1223
F0.0
sI825
F0.0
sI547
F0.0
sI1492
F0.0
sI71381
F0.0
sI726
F0.0
sI36
F0.0
sI1499
F0.0
sI6034
F0.0
sI71392
F0.0
sI738
F0.0
sI739
F0.0
sI2277
F0.0
sI1514
F0.0
sI493
F0.7900000000000005
sI3063
F0.0
sI1017
F0.0
sI4090
F0.0
sI1531
F0.0
sI764
F0.0
sI767
F0.0
sg2
(g6
S'E`S\xd6\x0fS\xc6?'
p400
tp401
Rp402
g12
I3
F0.5
tp403
a(I79
F20484.627502918243
(dp404
I1537
F0.0
sI2
F0.0
sI771
F0.0
sI7425
F0.0
sI3848
F0.0
sI2064
F0.0
sI23
F0.0
sI280
F0.0
sI28
F0.0
sI31
F0.6200000000000003
sI32
F1.6000000000000012
sI1570
F0.0
sI35
F0.5000000000000002
sI1060
F0.0
sI1833
F0.0
sI45
F0.0
sI564
F0.17
sI1845
F0.0
sI1847
F0.0
sI1849
F0.0
sI1594
F0.0
sI1855
F0.0
sI6465
F0.0
sI67
F0.0
sI2116
F0.0
sI587
F0.0
sI591
F0.0
sI3922
F0.0
sI2702
F0.0
sI6487
F0.0
sI1624
F0.0
sI601
F0.0
sI1377
F0.0
sI1634
F0.0
sI1636
F0.0
sI5222
F0.0
sI2406
F0.0
sI4200
F0.0
sI5225
F0.0
sI6506
F0.0
sI146
F0.9800000000000006
sI5230
F0.0
sI6001
F0.0
sI1394
F0.0
sI6772
F0.0
sI630
F0.0
sI120
F1.1000000000000008
sI4927
F0.0
sI638
F0.0
sI1407
F0.0
sI1667
F0.0
sI7045
F0.0
sI646
F0.0
sI651
F0.0
sI653
F0.0
sI142
F1.0200000000000007
sI635
F0.0
sI1170
F0.0
sI662
F0.8000000000000005
sI2967
F0.0
sI664
F0.0
sI3232
F0.0
sI1441
F0.0
sI2978
F0.0
sI2727
F0.0
sI4008
F0.0
sI170
F0.4100000000000002
sI427
F0.0
sI4015
F0.0
sI1718
F0.0
sI884
F0.0
sI2234
F0.0
sI444
F0.0
sI1725
F0.0
sI448
F0.0
sI705
F0.0
sI1474
F0.0
sI196
F0.0
sI3525
F0.0
sI1223
F0.0
sI825
F0.0
sI547
F0.0
sI1492
F0.0
sI71381
F0.0
sI726
F0.0
sI36
F0.0
sI1499
F0.0
sI6034
F0.0
sI71392
F0.0
sI738
F0.0
sI739
F0.0
sI2277
F0.0
sI1514
F0.0
sI493
F0.8000000000000005
sI3063
F0.0
sI1017
F0.0
sI4090
F0.0
sI1531
F0.0
sI764
F0.0
sI767
F0.0
sg2
(g6
S'\xe5\xa9\x8f\xa9k\x7f\xc6?'
p405
tp406
Rp407
g12
I3
F0.5
tp408
a(I80
F20740.118510961533
(dp409
I1537
F0.0
sI2
F0.0
sI771
F0.0
sI7425
F0.0
sI3848
F0.0
sI2064
F0.0
sI23
F0.0
sI280
F0.0
sI28
F0.0
sI31
F0.6200000000000003
sI32
F1.6200000000000012
sI1570
F0.0
sI35
F0.5000000000000002
sI1060
F0.0
sI1833
F0.0
sI45
F0.0
sI564
F0.17
sI1845
F0.0
sI1847
F0.0
sI1849
F0.0
sI1594
F0.0
sI1855
F0.0
sI6465
F0.0
sI67
F0.0
sI2116
F0.0
sI587
F0.0
sI591
F0.0
sI3922
F0.0
sI2702
F0.0
sI6487
F0.0
sI1624
F0.0
sI601
F0.0
sI1377
F0.0
sI1634
F0.0
sI1636
F0.0
sI5222
F0.0
sI2406
F0.0
sI4200
F0.0
sI5225
F0.0
sI6506
F0.0
sI146
F1.0000000000000007
sI5230
F0.0
sI6001
F0.0
sI1394
F0.0
sI6772
F0.0
sI630
F0.0
sI120
F1.1200000000000008
sI4927
F0.0
sI638
F0.0
sI1407
F0.0
sI1667
F0.0
sI7045
F0.0
sI646
F0.0
sI651
F0.0
sI653
F0.0
sI142
F1.0200000000000007
sI635
F0.0
sI1170
F0.0
sI662
F0.8100000000000005
sI2967
F0.0
sI664
F0.0
sI3232
F0.0
sI1441
F0.0
sI2978
F0.0
sI2727
F0.0
sI4008
F0.0
sI170
F0.4300000000000002
sI427
F0.0
sI4015
F0.0
sI1718
F0.0
sI884
F0.0
sI2234
F0.0
sI444
F0.0
sI1725
F0.0
sI448
F0.0
sI705
F0.0
sI1474
F0.0
sI196
F0.0
sI3525
F0.0
sI1223
F0.0
sI825
F0.0
sI547
F0.0
sI1492
F0.0
sI71381
F0.0
sI726
F0.0
sI36
F0.0
sI1499
F0.0
sI6034
F0.0
sI71392
F0.0
sI738
F0.0
sI739
F0.0
sI2277
F0.0
sI1514
F0.0
sI493
F0.8100000000000005
sI3063
F0.0
sI1017
F0.0
sI4090
F0.0
sI1531
F0.0
sI764
F0.0
sI767
F0.0
sg2
(g6
S'\x95[\x1a\x90\xb8\xab\xc6?'
p410
tp411
Rp412
g12
I3
F0.5
tp413
a(I81
F20995.594041109085
(dp414
I1537
F0.0
sI2
F0.0
sI771
F0.0
sI7425
F0.0
sI3848
F0.0
sI2064
F0.0
sI23
F0.0
sI280
F0.0
sI28
F0.0
sI31
F0.6200000000000003
sI32
F1.6400000000000012
sI1570
F0.0
sI35
F0.5000000000000002
sI1060
F0.0
sI1833
F0.0
sI45
F0.0
sI564
F0.17
sI1845
F0.0
sI1847
F0.0
sI1849
F0.0
sI1594
F0.0
sI1855
F0.0
sI6465
F0.0
sI67
F0.0
sI2116
F0.0
sI587
F0.0
sI591
F0.0
sI3922
F0.0
sI2702
F0.0
sI6487
F0.0
sI1624
F0.0
sI601
F0.0
sI1377
F0.0
sI1634
F0.0
sI1636
F0.0
sI5222
F0.0
sI2406
F0.0
sI4200
F0.0
sI5225
F0.0
sI6506
F0.0
sI146
F1.0200000000000007
sI5230
F0.0
sI6001
F0.0
sI1394
F0.0
sI6772
F0.0
sI630
F0.0
sI120
F1.1400000000000008
sI4927
F0.0
sI638
F0.0
sI1407
F0.0
sI1667
F0.0
sI7045
F0.0
sI646
F0.0
sI651
F0.0
sI653
F0.0
sI142
F1.0200000000000007
sI635
F0.0
sI1170
F0.0
sI662
F0.8200000000000005
sI2967
F0.0
sI664
F0.0
sI3232
F0.0
sI1441
F0.0
sI2978
F0.0
sI2727
F0.0
sI4008
F0.0
sI170
F0.45000000000000023
sI427
F0.0
sI4015
F0.0
sI1718
F0.0
sI884
F0.0
sI2234
F0.0
sI444
F0.0
sI1725
F0.0
sI448
F0.0
sI705
F0.0
sI1474
F0.0
sI196
F0.0
sI3525
F0.0
sI1223
F0.0
sI825
F0.0
sI547
F0.0
sI1492
F0.0
sI71381
F0.0
sI726
F0.0
sI36
F0.0
sI1499
F0.0
sI6034
F0.0
sI71392
F0.0
sI738
F0.0
sI739
F0.0
sI2277
F0.0
sI1514
F0.0
sI493
F0.8200000000000005
sI3063
F0.0
sI1017
F0.0
sI4090
F0.0
sI1531
F0.0
sI764
F0.0
sI767
F0.0
sg2
(g6
S'=\xb8\x1e\x94\xf6\xd7\xc6?'
p415
tp416
Rp417
g12
I3
F0.5
tp418
a(I82
F21251.09343099594
(dp419
I1537
F0.0
sI2
F0.0
sI771
F0.0
sI7425
F0.0
sI3848
F0.0
sI2064
F0.0
sI23
F0.0
sI280
F0.0
sI28
F0.0
sI31
F0.6200000000000003
sI32
F1.6600000000000013
sI1570
F0.0
sI35
F0.5000000000000002
sI1060
F0.0
sI1833
F0.0
sI45
F0.0
sI564
F0.17
sI1845
F0.0
sI1847
F0.0
sI1849
F0.0
sI1594
F0.0
sI1855
F0.0
sI6465
F0.0
sI67
F0.0
sI2116
F0.0
sI587
F0.0
sI591
F0.0
sI3922
F0.0
sI2702
F0.0
sI6487
F0.0
sI1624
F0.0
sI601
F0.0
sI1377
F0.0
sI1634
F0.0
sI1636
F0.0
sI5222
F0.0
sI2406
F0.0
sI4200
F0.0
sI5225
F0.0
sI6506
F0.0
sI146
F1.0400000000000007
sI5230
F0.0
sI6001
F0.0
sI1394
F0.0
sI6772
F0.0
sI630
F0.0
sI120
F1.1600000000000008
sI4927
F0.0
sI638
F0.0
sI1407
F0.0
sI1667
F0.0
sI7045
F0.0
sI646
F0.0
sI651
F0.0
sI653
F0.0
sI142
F1.0200000000000007
sI635
F0.0
sI1170
F0.0
sI662
F0.8300000000000005
sI2967
F0.0
sI664
F0.0
sI3232
F0.0
sI1441
F0.0
sI2978
F0.0
sI2727
F0.0
sI4008
F0.0
sI170
F0.47000000000000025
sI427
F0.0
sI4015
F0.0
sI1718
F0.0
sI884
F0.0
sI2234
F0.0
sI444
F0.0
sI1725
F0.0
sI448
F0.0
sI705
F0.0
sI1474
F0.0
sI196
F0.0
sI3525
F0.0
sI1223
F0.0
sI825
F0.0
sI547
F0.0
sI1492
F0.0
sI71381
F0.0
sI726
F0.0
sI36
F0.0
sI1499
F0.0
sI6034
F0.0
sI71392
F0.0
sI738
F0.0
sI739
F0.0
sI2277
F0.0
sI1514
F0.0
sI493
F0.8300000000000005
sI3063
F0.0
sI1017
F0.0
sI4090
F0.0
sI1531
F0.0
sI764
F0.0
sI767
F0.0
sg2
(g6
S'E\xa1\xbd\xbf%\x04\xc7?'
p420
tp421
Rp422
g12
I3
F0.5
tp423
a(I83
F21505.586920022964
(dp424
I1537
F0.0
sI2
F0.0
sI771
F0.0
sI7425
F0.0
sI3848
F0.0
sI2064
F0.0
sI23
F0.0
sI280
F0.0
sI28
F0.0
sI31
F0.6200000000000003
sI32
F1.6800000000000013
sI1570
F0.0
sI35
F0.5000000000000002
sI1060
F0.0
sI1833
F0.0
sI45
F0.0
sI564
F0.17
sI1845
F0.0
sI1847
F0.0
sI1849
F0.0
sI1594
F0.0
sI1855
F0.0
sI6465
F0.0
sI67
F0.0
sI2116
F0.0
sI587
F0.0
sI591
F0.0
sI3922
F0.0
sI2702
F0.0
sI6487
F0.0
sI1624
F0.0
sI601
F0.0
sI1377
F0.0
sI1634
F0.0
sI1636
F0.0
sI5222
F0.0
sI2406
F0.0
sI4200
F0.0
sI5225
F0.0
sI6506
F0.0
sI146
F1.0600000000000007
sI5230
F0.0
sI6001
F0.0
sI1394
F0.0
sI6772
F0.0
sI630
F0.0
sI120
F1.1800000000000008
sI4927
F0.0
sI638
F0.0
sI1407
F0.0
sI1667
F0.0
sI7045
F0.0
sI646
F0.0
sI651
F0.0
sI653
F0.0
sI142
F1.0200000000000007
sI635
F0.0
sI1170
F0.0
sI662
F0.8400000000000005
sI2967
F0.0
sI664
F0.0
sI3232
F0.0
sI1441
F0.0
sI2978
F0.0
sI2727
F0.0
sI4008
F0.0
sI170
F0.49000000000000027
sI427
F0.0
sI4015
F0.0
sI1718
F0.0
sI884
F0.0
sI2234
F0.0
sI444
F0.0
sI1725
F0.0
sI448
F0.0
sI705
F0.0
sI1474
F0.0
sI196
F0.0
sI3525
F0.0
sI1223
F0.0
sI825
F0.0
sI547
F0.0
sI1492
F0.0
sI71381
F0.0
sI726
F0.0
sI36
F0.0
sI1499
F0.0
sI6034
F0.0
sI71392
F0.0
sI738
F0.0
sI739
F0.0
sI2277
F0.0
sI1514
F0.0
sI493
F0.8400000000000005
sI3063
F0.0
sI1017
F0.0
sI4090
F0.0
sI1531
F0.0
sI764
F0.0
sI767
F0.0
sg2
(g6
S'\x81\xa4\r\x1dF0\xc7?'
p425
tp426
Rp427
g12
I3
F0.5
tp428
a(I84
F21760.555638074875
(dp429
I1537
F0.0
sI2
F0.0
sI771
F0.0
sI7425
F0.0
sI3848
F0.0
sI2064
F0.0
sI23
F0.0
sI280
F0.0
sI28
F0.0
sI31
F0.6200000000000003
sI32
F1.7000000000000013
sI1570
F0.0
sI35
F0.5000000000000002
sI1060
F0.0
sI1833
F0.0
sI45
F0.0
sI564
F0.17
sI1845
F0.0
sI1847
F0.0
sI1849
F0.0
sI1594
F0.0
sI1855
F0.0
sI6465
F0.0
sI67
F0.0
sI2116
F0.0
sI587
F0.0
sI591
F0.0
sI3922
F0.0
sI2702
F0.0
sI6487
F0.0
sI1624
F0.0
sI601
F0.0
sI1377
F0.0
sI1634
F0.0
sI1636
F0.0
sI5222
F0.0
sI2406
F0.0
sI4200
F0.0
sI5225
F0.0
sI6506
F0.0
sI146
F1.0800000000000007
sI5230
F0.0
sI6001
F0.0
sI1394
F0.0
sI6772
F0.0
sI630
F0.0
sI120
F1.2000000000000008
sI4927
F0.0
sI638
F0.0
sI1407
F0.0
sI1667
F0.0
sI7045
F0.0
sI646
F0.0
sI651
F0.0
sI653
F0.0
sI142
F1.0200000000000007
sI635
F0.0
sI1170
F0.0
sI662
F0.8500000000000005
sI2967
F0.0
sI664
F0.0
sI3232
F0.0
sI1441
F0.0
sI2978
F0.0
sI2727
F0.0
sI4008
F0.0
sI170
F0.5100000000000002
sI427
F0.0
sI4015
F0.0
sI1718
F0.0
sI884
F0.0
sI2234
F0.0
sI444
F0.0
sI1725
F0.0
sI448
F0.0
sI705
F0.0
sI1474
F0.0
sI196
F0.0
sI3525
F0.0
sI1223
F0.0
sI825
F0.0
sI547
F0.0
sI1492
F0.0
sI71381
F0.0
sI726
F0.0
sI36
F0.0
sI1499
F0.0
sI6034
F0.0
sI71392
F0.0
sI738
F0.0
sI739
F0.0
sI2277
F0.0
sI1514
F0.0
sI493
F0.8500000000000005
sI3063
F0.0
sI1017
F0.0
sI4090
F0.0
sI1531
F0.0
sI764
F0.0
sI767
F0.0
sg2
(g6
S'P\n\x1b\xb6W\\\xc7?'
p430
tp431
Rp432
g12
I3
F0.5
tp433
a(I85
F22016.21747803688
(dp434
I1537
F0.0
sI2
F0.0
sI771
F0.0
sI7425
F0.0
sI3848
F0.0
sI2064
F0.0
sI23
F0.0
sI280
F0.0
sI28
F0.0
sI31
F0.6200000000000003
sI32
F1.7200000000000013
sI1570
F0.0
sI35
F0.5000000000000002
sI1060
F0.0
sI1833
F0.0
sI45
F0.0
sI564
F0.17
sI1845
F0.0
sI1847
F0.0
sI1849
F0.0
sI1594
F0.0
sI1855
F0.0
sI6465
F0.0
sI67
F0.0
sI2116
F0.0
sI587
F0.0
sI591
F0.0
sI3922
F0.0
sI2702
F0.0
sI6487
F0.0
sI1624
F0.0
sI601
F0.0
sI1377
F0.0
sI1634
F0.0
sI1636
F0.0
sI5222
F0.0
sI2406
F0.0
sI4200
F0.0
sI5225
F0.0
sI6506
F0.0
sI146
F1.1000000000000008
sI5230
F0.0
sI6001
F0.0
sI1394
F0.0
sI6772
F0.0
sI630
F0.0
sI120
F1.2200000000000009
sI4927
F0.0
sI638
F0.0
sI1407
F0.0
sI1667
F0.0
sI7045
F0.0
sI646
F0.0
sI651
F0.0
sI653
F0.0
sI142
F1.0200000000000007
sI635
F0.0
sI1170
F0.0
sI662
F0.8600000000000005
sI2967
F0.0
sI664
F0.0
sI3232
F0.0
sI1441
F0.0
sI2978
F0.0
sI2727
F0.0
sI4008
F0.0
sI170
F0.5300000000000002
sI427
F0.0
sI4015
F0.0
sI1718
F0.0
sI884
F0.0
sI2234
F0.0
sI444
F0.0
sI1725
F0.0
sI448
F0.0
sI705
F0.0
sI1474
F0.0
sI196
F0.0
sI3525
F0.0
sI1223
F0.0
sI825
F0.0
sI547
F0.0
sI1492
F0.0
sI71381
F0.0
sI726
F0.0
sI36
F0.0
sI1499
F0.0
sI6034
F0.0
sI71392
F0.0
sI738
F0.0
sI739
F0.0
sI2277
F0.0
sI1514
F0.0
sI493
F0.8600000000000005
sI3063
F0.0
sI1017
F0.0
sI4090
F0.0
sI1531
F0.0
sI764
F0.0
sI767
F0.0
sg2
(g6
S'e\xe3\xe7\x94Z\x88\xc7?'
p435
tp436
Rp437
g12
I3
F0.5
tp438
a(I86
F22271.854460000992
(dp439
I1537
F0.0
sI2
F0.0
sI771
F0.0
sI7425
F0.0
sI3848
F0.0
sI2064
F0.0
sI23
F0.0
sI280
F0.0
sI28
F0.0
sI31
F0.6200000000000003
sI32
F1.7400000000000013
sI1570
F0.0
sI35
F0.5000000000000002
sI1060
F0.0
sI1833
F0.0
sI45
F0.0
sI564
F0.17
sI1845
F0.0
sI1847
F0.0
sI1849
F0.0
sI1594
F0.0
sI1855
F0.0
sI6465
F0.0
sI67
F0.0
sI2116
F0.0
sI587
F0.0
sI591
F0.0
sI3922
F0.0
sI2702
F0.0
sI6487
F0.0
sI1624
F0.0
sI601
F0.0
sI1377
F0.0
sI1634
F0.0
sI1636
F0.0
sI5222
F0.0
sI2406
F0.0
sI4200
F0.0
sI5225
F0.0
sI6506
F0.0
sI146
F1.1200000000000008
sI5230
F0.0
sI6001
F0.0
sI1394
F0.0
sI6772
F0.0
sI630
F0.0
sI120
F1.2400000000000009
sI4927
F0.0
sI638
F0.0
sI1407
F0.0
sI1667
F0.0
sI7045
F0.0
sI646
F0.0
sI651
F0.0
sI653
F0.0
sI142
F1.0200000000000007
sI635
F0.0
sI1170
F0.0
sI662
F0.8700000000000006
sI2967
F0.0
sI664
F0.0
sI3232
F0.0
sI1441
F0.0
sI2978
F0.0
sI2727
F0.0
sI4008
F0.0
sI170
F0.5500000000000003
sI427
F0.0
sI4015
F0.0
sI1718
F0.0
sI884
F0.0
sI2234
F0.0
sI444
F0.0
sI1725
F0.0
sI448
F0.0
sI705
F0.0
sI1474
F0.0
sI196
F0.0
sI3525
F0.0
sI1223
F0.0
sI825
F0.0
sI547
F0.0
sI1492
F0.0
sI71381
F0.0
sI726
F0.0
sI36
F0.0
sI1499
F0.0
sI6034
F0.0
sI71392
F0.0
sI738
F0.0
sI739
F0.0
sI2277
F0.0
sI1514
F0.0
sI493
F0.8700000000000006
sI3063
F0.0
sI1017
F0.0
sI4090
F0.0
sI1531
F0.0
sI764
F0.0
sI767
F0.0
sg2
(g6
S'\xd0\x16l\xc3N\xb4\xc7?'
p440
tp441
Rp442
g12
I3
F0.5
tp443
a(I87
F22527.87573504448
(dp444
I1537
F0.0
sI2
F0.0
sI771
F0.0
sI7425
F0.0
sI3848
F0.0
sI2064
F0.0
sI23
F0.0
sI280
F0.0
sI28
F0.0
sI31
F0.6200000000000003
sI32
F1.7600000000000013
sI1570
F0.0
sI35
F0.5000000000000002
sI1060
F0.0
sI1833
F0.0
sI45
F0.0
sI564
F0.17
sI1845
F0.0
sI1847
F0.0
sI1849
F0.0
sI1594
F0.0
sI1855
F0.0
sI6465
F0.0
sI67
F0.0
sI2116
F0.0
sI587
F0.0
sI591
F0.0
sI3922
F0.0
sI2702
F0.0
sI6487
F0.0
sI1624
F0.0
sI601
F0.0
sI1377
F0.0
sI1634
F0.0
sI1636
F0.0
sI5222
F0.0
sI2406
F0.0
sI4200
F0.0
sI5225
F0.0
sI6506
F0.0
sI146
F1.1400000000000008
sI5230
F0.0
sI6001
F0.0
sI1394
F0.0
sI6772
F0.0
sI630
F0.0
sI120
F1.260000000000001
sI4927
F0.0
sI638
F0.0
sI1407
F0.0
sI1667
F0.0
sI7045
F0.0
sI646
F0.0
sI651
F0.0
sI653
F0.0
sI142
F1.0200000000000007
sI635
F0.0
sI1170
F0.0
sI662
F0.8800000000000006
sI2967
F0.0
sI664
F0.0
sI3232
F0.0
sI1441
F0.0
sI2978
F0.0
sI2727
F0.0
sI4008
F0.0
sI170
F0.5700000000000003
sI427
F0.0
sI4015
F0.0
sI1718
F0.0
sI884
F0.0
sI2234
F0.0
sI444
F0.0
sI1725
F0.0
sI448
F0.0
sI705
F0.0
sI1474
F0.0
sI196
F0.0
sI3525
F0.0
sI1223
F0.0
sI825
F0.0
sI547
F0.0
sI1492
F0.0
sI71381
F0.0
sI726
F0.0
sI36
F0.0
sI1499
F0.0
sI6034
F0.0
sI71392
F0.0
sI738
F0.0
sI739
F0.0
sI2277
F0.0
sI1514
F0.0
sI493
F0.8800000000000006
sI3063
F0.0
sI1017
F0.0
sI4090
F0.0
sI1531
F0.0
sI764
F0.0
sI767
F0.0
sg2
(g6
S'\xa7o\x95K4\xe0\xc7?'
p445
tp446
Rp447
g12
I3
F0.5
tp448
a(I88
F22781.793262958527
(dp449
I1537
F0.0
sI2
F0.0
sI771
F0.0
sI7425
F0.0
sI3848
F0.0
sI2064
F0.0
sI23
F0.0
sI280
F0.0
sI28
F0.0
sI31
F0.6200000000000003
sI32
F1.7800000000000014
sI1570
F0.0
sI35
F0.5000000000000002
sI1060
F0.0
sI1833
F0.0
sI45
F0.0
sI564
F0.17
sI1845
F0.0
sI1847
F0.0
sI1849
F0.0
sI1594
F0.0
sI1855
F0.0
sI6465
F0.0
sI67
F0.0
sI2116
F0.0
sI587
F0.0
sI591
F0.0
sI3922
F0.0
sI2702
F0.0
sI6487
F0.0
sI1624
F0.0
sI601
F0.0
sI1377
F0.0
sI1634
F0.0
sI1636
F0.0
sI5222
F0.0
sI2406
F0.0
sI4200
F0.0
sI5225
F0.0
sI6506
F0.0
sI146
F1.1600000000000008
sI5230
F0.0
sI6001
F0.0
sI1394
F0.0
sI6772
F0.0
sI630
F0.0
sI120
F1.280000000000001
sI4927
F0.0
sI638
F0.0
sI1407
F0.0
sI1667
F0.0
sI7045
F0.0
sI646
F0.0
sI651
F0.0
sI653
F0.0
sI142
F1.0200000000000007
sI635
F0.0
sI1170
F0.0
sI662
F0.8900000000000006
sI2967
F0.0
sI664
F0.0
sI3232
F0.0
sI1441
F0.0
sI2978
F0.0
sI2727
F0.0
sI4008
F0.0
sI170
F0.5900000000000003
sI427
F0.0
sI4015
F0.0
sI1718
F0.0
sI884
F0.0
sI2234
F0.0
sI444
F0.0
sI1725
F0.0
sI448
F0.0
sI705
F0.0
sI1474
F0.0
sI196
F0.0
sI3525
F0.0
sI1223
F0.0
sI825
F0.0
sI547
F0.0
sI1492
F0.0
sI71381
F0.0
sI726
F0.0
sI36
F0.0
sI1499
F0.0
sI6034
F0.0
sI71392
F0.0
sI738
F0.0
sI739
F0.0
sI2277
F0.0
sI1514
F0.0
sI493
F0.8900000000000006
sI3063
F0.0
sI1017
F0.0
sI4090
F0.0
sI1531
F0.0
sI764
F0.0
sI767
F0.0
sg2
(g6
S'\x97\xaaG7\x0b\x0c\xc8?'
p450
tp451
Rp452
g12
I3
F0.5
tp453
a(I89
F23036.8255879879
(dp454
I1537
F0.0
sI2
F0.0
sI771
F0.0
sI7425
F0.0
sI3848
F0.0
sI2064
F0.0
sI23
F0.0
sI280
F0.0
sI28
F0.0
sI31
F0.6200000000000003
sI32
F1.8000000000000014
sI1570
F0.0
sI35
F0.5000000000000002
sI1060
F0.0
sI1833
F0.0
sI45
F0.0
sI564
F0.17
sI1845
F0.0
sI1847
F0.0
sI1849
F0.0
sI1594
F0.0
sI1855
F0.0
sI6465
F0.0
sI67
F0.0
sI2116
F0.0
sI587
F0.0
sI591
F0.0
sI3922
F0.0
sI2702
F0.0
sI6487
F0.0
sI1624
F0.0
sI601
F0.0
sI1377
F0.0
sI1634
F0.0
sI1636
F0.0
sI5222
F0.0
sI2406
F0.0
sI4200
F0.0
sI5225
F0.0
sI6506
F0.0
sI146
F1.1800000000000008
sI5230
F0.0
sI6001
F0.0
sI1394
F0.0
sI6772
F0.0
sI630
F0.0
sI120
F1.300000000000001
sI4927
F0.0
sI638
F0.0
sI1407
F0.0
sI1667
F0.0
sI7045
F0.0
sI646
F0.0
sI651
F0.0
sI653
F0.0
sI142
F1.0200000000000007
sI635
F0.0
sI1170
F0.0
sI662
F0.9000000000000006
sI2967
F0.0
sI664
F0.0
sI3232
F0.0
sI1441
F0.0
sI2978
F0.0
sI2727
F0.0
sI4008
F0.0
sI170
F0.6100000000000003
sI427
F0.0
sI4015
F0.0
sI1718
F0.0
sI884
F0.0
sI2234
F0.0
sI444
F0.0
sI1725
F0.0
sI448
F0.0
sI705
F0.0
sI1474
F0.0
sI196
F0.0
sI3525
F0.0
sI1223
F0.0
sI825
F0.0
sI547
F0.0
sI1492
F0.0
sI71381
F0.0
sI726
F0.0
sI36
F0.0
sI1499
F0.0
sI6034
F0.0
sI71392
F0.0
sI738
F0.0
sI739
F0.0
sI2277
F0.0
sI1514
F0.0
sI493
F0.9000000000000006
sI3063
F0.0
sI1017
F0.0
sI4090
F0.0
sI1531
F0.0
sI764
F0.0
sI767
F0.0
sg2
(g6
S'\x8a\x83\\\x90\xd37\xc8?'
p455
tp456
Rp457
g12
I3
F0.5
tp458
a(I90
F23293.112721920013
(dp459
I1537
F0.0
sI2
F0.0
sI771
F0.0
sI7425
F0.0
sI3848
F0.0
sI2064
F0.0
sI23
F0.0
sI280
F0.0
sI28
F0.0
sI31
F0.6200000000000003
sI32
F1.8200000000000014
sI1570
F0.0
sI35
F0.5000000000000002
sI1060
F0.0
sI1833
F0.0
sI45
F0.0
sI564
F0.17
sI1845
F0.0
sI1847
F0.0
sI1849
F0.0
sI1594
F0.0
sI1855
F0.0
sI6465
F0.0
sI67
F0.0
sI2116
F0.0
sI587
F0.0
sI591
F0.0
sI3922
F0.0
sI2702
F0.0
sI6487
F0.0
sI1624
F0.0
sI601
F0.0
sI1377
F0.0
sI1634
F0.0
sI1636
F0.0
sI5222
F0.0
sI2406
F0.0
sI4200
F0.0
sI5225
F0.0
sI6506
F0.0
sI146
F1.2000000000000008
sI5230
F0.0
sI6001
F0.0
sI1394
F0.0
sI6772
F0.0
sI630
F0.0
sI120
F1.320000000000001
sI4927
F0.0
sI638
F0.0
sI1407
F0.0
sI1667
F0.0
sI7045
F0.0
sI646
F0.0
sI651
F0.0
sI653
F0.0
sI142
F1.0200000000000007
sI635
F0.0
sI1170
F0.0
sI662
F0.9100000000000006
sI2967
F0.0
sI664
F0.0
sI3232
F0.0
sI1441
F0.0
sI2978
F0.0
sI2727
F0.0
sI4008
F0.0
sI170
F0.6300000000000003
sI427
F0.0
sI4015
F0.0
sI1718
F0.0
sI884
F0.0
sI2234
F0.0
sI444
F0.0
sI1725
F0.0
sI448
F0.0
sI705
F0.0
sI1474
F0.0
sI196
F0.0
sI3525
F0.0
sI1223
F0.0
sI825
F0.0
sI547
F0.0
sI1492
F0.0
sI71381
F0.0
sI726
F0.0
sI36
F0.0
sI1499
F0.0
sI6034
F0.0
sI71392
F0.0
sI738
F0.0
sI739
F0.0
sI2277
F0.0
sI1514
F0.0
sI493
F0.9100000000000006
sI3063
F0.0
sI1017
F0.0
sI4090
F0.0
sI1531
F0.0
sI764
F0.0
sI767
F0.0
sg2
(g6
S'*\xc3\xa3`\x8dc\xc8?'
p460
tp461
Rp462
g12
I3
F0.5
tp463
a(I91
F23548.35235309601
(dp464
I1537
F0.0
sI2
F0.0
sI771
F0.0
sI7425
F0.0
sI3848
F0.0
sI2064
F0.0
sI23
F0.0
sI280
F0.0
sI28
F0.0
sI31
F0.6200000000000003
sI32
F1.8400000000000014
sI1570
F0.0
sI35
F0.5000000000000002
sI1060
F0.0
sI1833
F0.0
sI45
F0.0
sI564
F0.17
sI1845
F0.0
sI1847
F0.0
sI1849
F0.0
sI1594
F0.0
sI1855
F0.0
sI6465
F0.0
sI67
F0.0
sI2116
F0.0
sI587
F0.0
sI591
F0.0
sI3922
F0.0
sI2702
F0.0
sI6487
F0.0
sI1624
F0.0
sI601
F0.0
sI1377
F0.0
sI1634
F0.0
sI1636
F0.0
sI5222
F0.0
sI2406
F0.0
sI4200
F0.0
sI5225
F0.0
sI6506
F0.0
sI146
F1.2200000000000009
sI5230
F0.0
sI6001
F0.0
sI1394
F0.0
sI6772
F0.0
sI630
F0.0
sI120
F1.340000000000001
sI4927
F0.0
sI638
F0.0
sI1407
F0.0
sI1667
F0.0
sI7045
F0.0
sI646
F0.0
sI651
F0.0
sI653
F0.0
sI142
F1.0200000000000007
sI635
F0.0
sI1170
F0.0
sI662
F0.9200000000000006
sI2967
F0.0
sI664
F0.0
sI3232
F0.0
sI1441
F0.0
sI2978
F0.0
sI2727
F0.0
sI4008
F0.0
sI170
F0.6500000000000004
sI427
F0.0
sI4015
F0.0
sI1718
F0.0
sI884
F0.0
sI2234
F0.0
sI444
F0.0
sI1725
F0.0
sI448
F0.0
sI705
F0.0
sI1474
F0.0
sI196
F0.0
sI3525
F0.0
sI1223
F0.0
sI825
F0.0
sI547
F0.0
sI1492
F0.0
sI71381
F0.0
sI726
F0.0
sI36
F0.0
sI1499
F0.0
sI6034
F0.0
sI71392
F0.0
sI738
F0.0
sI739
F0.0
sI2277
F0.0
sI1514
F0.0
sI493
F0.9200000000000006
sI3063
F0.0
sI1017
F0.0
sI4090
F0.0
sI1531
F0.0
sI764
F0.0
sI767
F0.0
sg2
(g6
S'\x1cL\xe3\xb18\x8f\xc8?'
p465
tp466
Rp467
g12
I3
F0.5
tp468
a(I92
F23802.59374308586
(dp469
I1537
F0.0
sI2
F0.0
sI771
F0.0
sI7425
F0.0
sI3848
F0.0
sI2064
F0.0
sI23
F0.0
sI280
F0.0
sI28
F0.0
sI31
F0.6200000000000003
sI32
F1.8600000000000014
sI1570
F0.0
sI35
F0.5000000000000002
sI1060
F0.0
sI1833
F0.0
sI45
F0.0
sI564
F0.17
sI1845
F0.0
sI1847
F0.0
sI1849
F0.0
sI1594
F0.0
sI1855
F0.0
sI6465
F0.0
sI67
F0.0
sI2116
F0.0
sI587
F0.0
sI591
F0.0
sI3922
F0.0
sI2702
F0.0
sI6487
F0.0
sI1624
F0.0
sI601
F0.0
sI1377
F0.0
sI1634
F0.0
sI1636
F0.0
sI5222
F0.0
sI2406
F0.0
sI4200
F0.0
sI5225
F0.0
sI6506
F0.0
sI146
F1.2400000000000009
sI5230
F0.0
sI6001
F0.0
sI1394
F0.0
sI6772
F0.0
sI630
F0.0
sI120
F1.360000000000001
sI4927
F0.0
sI638
F0.0
sI1407
F0.0
sI1667
F0.0
sI7045
F0.0
sI646
F0.0
sI651
F0.0
sI653
F0.0
sI142
F1.0200000000000007
sI635
F0.0
sI1170
F0.0
sI662
F0.9300000000000006
sI2967
F0.0
sI664
F0.0
sI3232
F0.0
sI1441
F0.0
sI2978
F0.0
sI2727
F0.0
sI4008
F0.0
sI170
F0.6700000000000004
sI427
F0.0
sI4015
F0.0
sI1718
F0.0
sI884
F0.0
sI2234
F0.0
sI444
F0.0
sI1725
F0.0
sI448
F0.0
sI705
F0.0
sI1474
F0.0
sI196
F0.0
sI3525
F0.0
sI1223
F0.0
sI825
F0.0
sI547
F0.0
sI1492
F0.0
sI71381
F0.0
sI726
F0.0
sI36
F0.0
sI1499
F0.0
sI6034
F0.0
sI71392
F0.0
sI738
F0.0
sI739
F0.0
sI2277
F0.0
sI1514
F0.0
sI493
F0.9300000000000006
sI3063
F0.0
sI1017
F0.0
sI4090
F0.0
sI1531
F0.0
sI764
F0.0
sI767
F0.0
sg2
(g6
S'\x7f(\xd7\x8d\xd5\xba\xc8?'
p470
tp471
Rp472
g12
I3
F0.5
tp473
a(I93
F24057.739934921265
(dp474
I1537
F0.0
sI2
F0.0
sI771
F0.0
sI7425
F0.0
sI3848
F0.0
sI2064
F0.0
sI23
F0.0
sI280
F0.0
sI28
F0.0
sI31
F0.6200000000000003
sI32
F1.8800000000000014
sI1570
F0.0
sI35
F0.5000000000000002
sI1060
F0.0
sI1833
F0.0
sI45
F0.0
sI564
F0.17
sI1845
F0.0
sI1847
F0.0
sI1849
F0.0
sI1594
F0.0
sI1855
F0.0
sI6465
F0.0
sI67
F0.0
sI2116
F0.0
sI587
F0.0
sI591
F0.0
sI3922
F0.0
sI2702
F0.0
sI6487
F0.0
sI1624
F0.0
sI601
F0.0
sI1377
F0.0
sI1634
F0.0
sI1636
F0.0
sI5222
F0.0
sI2406
F0.0
sI4200
F0.0
sI5225
F0.0
sI6506
F0.0
sI146
F1.260000000000001
sI5230
F0.0
sI6001
F0.0
sI1394
F0.0
sI6772
F0.0
sI630
F0.0
sI120
F1.380000000000001
sI4927
F0.0
sI638
F0.0
sI1407
F0.0
sI1667
F0.0
sI7045
F0.0
sI646
F0.0
sI651
F0.0
sI653
F0.0
sI142
F1.0200000000000007
sI635
F0.0
sI1170
F0.0
sI662
F0.9400000000000006
sI2967
F0.0
sI664
F0.0
sI3232
F0.0
sI1441
F0.0
sI2978
F0.0
sI2727
F0.0
sI4008
F0.0
sI170
F0.6900000000000004
sI427
F0.0
sI4015
F0.0
sI1718
F0.0
sI884
F0.0
sI2234
F0.0
sI444
F0.0
sI1725
F0.0
sI448
F0.0
sI705
F0.0
sI1474
F0.0
sI196
F0.0
sI3525
F0.0
sI1223
F0.0
sI825
F0.0
sI547
F0.0
sI1492
F0.0
sI71381
F0.0
sI726
F0.0
sI36
F0.0
sI1499
F0.0
sI6034
F0.0
sI71392
F0.0
sI738
F0.0
sI739
F0.0
sI2277
F0.0
sI1514
F0.0
sI493
F0.9400000000000006
sI3063
F0.0
sI1017
F0.0
sI4090
F0.0
sI1531
F0.0
sI764
F0.0
sI767
F0.0
sg2
(g6
S'\xf8\x961\xfec\xe6\xc8?'
p475
tp476
Rp477
g12
I3
F0.5
tp478
a(I94
F24313.861846923828
(dp479
I1537
F0.0
sI2
F0.0
sI771
F0.0
sI7425
F0.0
sI3848
F0.0
sI2064
F0.0
sI23
F0.0
sI280
F0.0
sI28
F0.0
sI31
F0.6200000000000003
sI32
F1.9000000000000015
sI1570
F0.0
sI35
F0.5000000000000002
sI1060
F0.0
sI1833
F0.0
sI45
F0.0
sI564
F0.17
sI1845
F0.0
sI1847
F0.0
sI1849
F0.0
sI1594
F0.0
sI1855
F0.0
sI6465
F0.0
sI67
F0.0
sI2116
F0.0
sI587
F0.0
sI591
F0.0
sI3922
F0.0
sI2702
F0.0
sI6487
F0.0
sI1624
F0.0
sI601
F0.0
sI1377
F0.0
sI1634
F0.0
sI1636
F0.0
sI5222
F0.0
sI2406
F0.0
sI4200
F0.0
sI5225
F0.0
sI6506
F0.0
sI146
F1.280000000000001
sI5230
F0.0
sI6001
F0.0
sI1394
F0.0
sI6772
F0.0
sI630
F0.0
sI120
F1.400000000000001
sI4927
F0.0
sI638
F0.0
sI1407
F0.0
sI1667
F0.0
sI7045
F0.0
sI646
F0.0
sI651
F0.0
sI653
F0.0
sI142
F1.0200000000000007
sI635
F0.0
sI1170
F0.0
sI662
F0.9500000000000006
sI2967
F0.0
sI664
F0.0
sI3232
F0.0
sI1441
F0.0
sI2978
F0.0
sI2727
F0.0
sI4008
F0.0
sI170
F0.7100000000000004
sI427
F0.0
sI4015
F0.0
sI1718
F0.0
sI884
F0.0
sI2234
F0.0
sI444
F0.0
sI1725
F0.0
sI448
F0.0
sI705
F0.0
sI1474
F0.0
sI196
F0.0
sI3525
F0.0
sI1223
F0.0
sI825
F0.0
sI547
F0.0
sI1492
F0.0
sI71381
F0.0
sI726
F0.0
sI36
F0.0
sI1499
F0.0
sI6034
F0.0
sI71392
F0.0
sI738
F0.0
sI739
F0.0
sI2277
F0.0
sI1514
F0.0
sI493
F0.9500000000000006
sI3063
F0.0
sI1017
F0.0
sI4090
F0.0
sI1531
F0.0
sI764
F0.0
sI767
F0.0
sg2
(g6
S'\xe5\x17\x9b\x0c\xe4\x11\xc9?'
p480
tp481
Rp482
g12
I3
F0.5
tp483
a(I95
F24569.094231128693
(dp484
I1537
F0.0
sI2
F0.0
sI771
F0.0
sI7425
F0.0
sI3848
F0.0
sI2064
F0.0
sI23
F0.0
sI280
F0.0
sI28
F0.0
sI31
F0.6200000000000003
sI32
F1.9200000000000015
sI1570
F0.0
sI35
F0.5000000000000002
sI1060
F0.0
sI1833
F0.0
sI45
F0.0
sI564
F0.17
sI1845
F0.0
sI1847
F0.0
sI1849
F0.0
sI1594
F0.0
sI1855
F0.0
sI6465
F0.0
sI67
F0.0
sI2116
F0.0
sI587
F0.0
sI591
F0.0
sI3922
F0.0
sI2702
F0.0
sI6487
F0.0
sI1624
F0.0
sI601
F0.0
sI1377
F0.0
sI1634
F0.0
sI1636
F0.0
sI5222
F0.0
sI2406
F0.0
sI4200
F0.0
sI5225
F0.0
sI6506
F0.0
sI146
F1.300000000000001
sI5230
F0.0
sI6001
F0.0
sI1394
F0.0
sI6772
F0.0
sI630
F0.0
sI120
F1.420000000000001
sI4927
F0.0
sI638
F0.0
sI1407
F0.0
sI1667
F0.0
sI7045
F0.0
sI646
F0.0
sI651
F0.0
sI653
F0.0
sI142
F1.0200000000000007
sI635
F0.0
sI1170
F0.0
sI662
F0.9600000000000006
sI2967
F0.0
sI664
F0.0
sI3232
F0.0
sI1441
F0.0
sI2978
F0.0
sI2727
F0.0
sI4008
F0.0
sI170
F0.7300000000000004
sI427
F0.0
sI4015
F0.0
sI1718
F0.0
sI884
F0.0
sI2234
F0.0
sI444
F0.0
sI1725
F0.0
sI448
F0.0
sI705
F0.0
sI1474
F0.0
sI196
F0.0
sI3525
F0.0
sI1223
F0.0
sI825
F0.0
sI547
F0.0
sI1492
F0.0
sI71381
F0.0
sI726
F0.0
sI36
F0.0
sI1499
F0.0
sI6034
F0.0
sI71392
F0.0
sI738
F0.0
sI739
F0.0
sI2277
F0.0
sI1514
F0.0
sI493
F0.9600000000000006
sI3063
F0.0
sI1017
F0.0
sI4090
F0.0
sI1531
F0.0
sI764
F0.0
sI767
F0.0
sg2
(g6
S'Tz\xb2\xc2U=\xc9?'
p485
tp486
Rp487
g12
I3
F0.5
tp488
a(I96
F24827.693268060684
(dp489
I1537
F0.0
sI2
F0.0
sI771
F0.0
sI7425
F0.0
sI3848
F0.0
sI2064
F0.0
sI23
F0.0
sI280
F0.0
sI28
F0.0
sI31
F0.6200000000000003
sI32
F1.9400000000000015
sI1570
F0.0
sI35
F0.5000000000000002
sI1060
F0.0
sI1833
F0.0
sI45
F0.0
sI564
F0.17
sI1845
F0.0
sI1847
F0.0
sI1849
F0.0
sI1594
F0.0
sI1855
F0.0
sI6465
F0.0
sI67
F0.0
sI2116
F0.0
sI587
F0.0
sI591
F0.0
sI3922
F0.0
sI2702
F0.0
sI6487
F0.0
sI1624
F0.0
sI601
F0.0
sI1377
F0.0
sI1634
F0.0
sI1636
F0.0
sI5222
F0.0
sI2406
F0.0
sI4200
F0.0
sI5225
F0.0
sI6506
F0.0
sI146
F1.320000000000001
sI5230
F0.0
sI6001
F0.0
sI1394
F0.0
sI6772
F0.0
sI630
F0.0
sI120
F1.440000000000001
sI4927
F0.0
sI638
F0.0
sI1407
F0.0
sI1667
F0.0
sI7045
F0.0
sI646
F0.0
sI651
F0.0
sI653
F0.0
sI142
F1.0200000000000007
sI635
F0.0
sI1170
F0.0
sI662
F0.9700000000000006
sI2967
F0.0
sI664
F0.0
sI3232
F0.0
sI1441
F0.0
sI2978
F0.0
sI2727
F0.0
sI4008
F0.0
sI170
F0.7500000000000004
sI427
F0.0
sI4015
F0.0
sI1718
F0.0
sI884
F0.0
sI2234
F0.0
sI444
F0.0
sI1725
F0.0
sI448
F0.0
sI705
F0.0
sI1474
F0.0
sI196
F0.0
sI3525
F0.0
sI1223
F0.0
sI825
F0.0
sI547
F0.0
sI1492
F0.0
sI71381
F0.0
sI726
F0.0
sI36
F0.0
sI1499
F0.0
sI6034
F0.0
sI71392
F0.0
sI738
F0.0
sI739
F0.0
sI2277
F0.0
sI1514
F0.0
sI493
F0.9700000000000006
sI3063
F0.0
sI1017
F0.0
sI4090
F0.0
sI1531
F0.0
sI764
F0.0
sI767
F0.0
sg2
(g6
S'"\xe9\x0c*\xb9h\xc9?'
p490
tp491
Rp492
g12
I3
F0.5
tp493
a(I97
F25083.849735975266
(dp494
I1537
F0.0
sI2
F0.0
sI771
F0.0
sI7425
F0.0
sI3848
F0.0
sI2064
F0.0
sI23
F0.0
sI280
F0.0
sI28
F0.0
sI31
F0.6200000000000003
sI32
F1.9600000000000015
sI1570
F0.0
sI35
F0.5000000000000002
sI1060
F0.0
sI1833
F0.0
sI45
F0.0
sI564
F0.17
sI1845
F0.0
sI1847
F0.0
sI1849
F0.0
sI1594
F0.0
sI1855
F0.0
sI6465
F0.0
sI67
F0.0
sI2116
F0.0
sI587
F0.0
sI591
F0.0
sI3922
F0.0
sI2702
F0.0
sI6487
F0.0
sI1624
F0.0
sI601
F0.0
sI1377
F0.0
sI1634
F0.0
sI1636
F0.0
sI5222
F0.0
sI2406
F0.0
sI4200
F0.0
sI5225
F0.0
sI6506
F0.0
sI146
F1.340000000000001
sI5230
F0.0
sI6001
F0.0
sI1394
F0.0
sI6772
F0.0
sI630
F0.0
sI120
F1.460000000000001
sI4927
F0.0
sI638
F0.0
sI1407
F0.0
sI1667
F0.0
sI7045
F0.0
sI646
F0.0
sI651
F0.0
sI653
F0.0
sI142
F1.0200000000000007
sI635
F0.0
sI1170
F0.0
sI662
F0.9800000000000006
sI2967
F0.0
sI664
F0.0
sI3232
F0.0
sI1441
F0.0
sI2978
F0.0
sI2727
F0.0
sI4008
F0.0
sI170
F0.7700000000000005
sI427
F0.0
sI4015
F0.0
sI1718
F0.0
sI884
F0.0
sI2234
F0.0
sI444
F0.0
sI1725
F0.0
sI448
F0.0
sI705
F0.0
sI1474
F0.0
sI196
F0.0
sI3525
F0.0
sI1223
F0.0
sI825
F0.0
sI547
F0.0
sI1492
F0.0
sI71381
F0.0
sI726
F0.0
sI36
F0.0
sI1499
F0.0
sI6034
F0.0
sI71392
F0.0
sI738
F0.0
sI739
F0.0
sI2277
F0.0
sI1514
F0.0
sI493
F0.9800000000000006
sI3063
F0.0
sI1017
F0.0
sI4090
F0.0
sI1531
F0.0
sI764
F0.0
sI767
F0.0
sg2
(g6
S'\xa2\xf75L\x0e\x94\xc9?'
p495
tp496
Rp497
g12
I3
F0.5
tp498
a(I98
F25337.95387005806
(dp499
I1537
F0.0
sI2
F0.0
sI771
F0.0
sI7425
F0.0
sI3848
F0.0
sI2064
F0.0
sI23
F0.0
sI280
F0.0
sI28
F0.0
sI31
F0.6200000000000003
sI32
F1.9800000000000015
sI1570
F0.0
sI35
F0.5000000000000002
sI1060
F0.0
sI1833
F0.0
sI45
F0.0
sI564
F0.17
sI1845
F0.0
sI1847
F0.0
sI1849
F0.0
sI1594
F0.0
sI1855
F0.0
sI6465
F0.0
sI67
F0.0
sI2116
F0.0
sI587
F0.0
sI591
F0.0
sI3922
F0.0
sI2702
F0.0
sI6487
F0.0
sI1624
F0.0
sI601
F0.0
sI1377
F0.0
sI1634
F0.0
sI1636
F0.0
sI5222
F0.0
sI2406
F0.0
sI4200
F0.0
sI5225
F0.0
sI6506
F0.0
sI146
F1.360000000000001
sI5230
F0.0
sI6001
F0.0
sI1394
F0.0
sI6772
F0.0
sI630
F0.0
sI120
F1.480000000000001
sI4927
F0.0
sI638
F0.0
sI1407
F0.0
sI1667
F0.0
sI7045
F0.0
sI646
F0.0
sI651
F0.0
sI653
F0.0
sI142
F1.0200000000000007
sI635
F0.0
sI1170
F0.0
sI662
F0.9900000000000007
sI2967
F0.0
sI664
F0.0
sI3232
F0.0
sI1441
F0.0
sI2978
F0.0
sI2727
F0.0
sI4008
F0.0
sI170
F0.7900000000000005
sI427
F0.0
sI4015
F0.0
sI1718
F0.0
sI884
F0.0
sI2234
F0.0
sI444
F0.0
sI1725
F0.0
sI448
F0.0
sI705
F0.0
sI1474
F0.0
sI196
F0.0
sI3525
F0.0
sI1223
F0.0
sI825
F0.0
sI547
F0.0
sI1492
F0.0
sI71381
F0.0
sI726
F0.0
sI36
F0.0
sI1499
F0.0
sI6034
F0.0
sI71392
F0.0
sI738
F0.0
sI739
F0.0
sI2277
F0.0
sI1514
F0.0
sI493
F0.9900000000000007
sI3063
F0.0
sI1017
F0.0
sI4090
F0.0
sI1531
F0.0
sI764
F0.0
sI767
F0.0
sg2
(g6
S'\x93\xae\xaf2U\xbf\xc9?'
p500
tp501
Rp502
g12
I3
F0.5
tp503
a(I99
F25593.26053595543
(dp504
I1537
F0.0
sI2
F0.0
sI771
F0.0
sI7425
F0.0
sI3848
F0.0
sI2064
F0.0
sI23
F0.0
sI280
F0.0
sI28
F0.0
sI31
F0.6200000000000003
sI32
F2.0000000000000013
sI1570
F0.0
sI35
F0.5000000000000002
sI1060
F0.0
sI1833
F0.0
sI45
F0.0
sI564
F0.17
sI1845
F0.0
sI1847
F0.0
sI1849
F0.0
sI1594
F0.0
sI1855
F0.0
sI6465
F0.0
sI67
F0.0
sI2116
F0.0
sI587
F0.0
sI591
F0.0
sI3922
F0.0
sI2702
F0.0
sI6487
F0.0
sI1624
F0.0
sI601
F0.0
sI1377
F0.0
sI1634
F0.0
sI1636
F0.0
sI5222
F0.0
sI2406
F0.0
sI4200
F0.0
sI5225
F0.0
sI6506
F0.0
sI146
F1.380000000000001
sI5230
F0.0
sI6001
F0.0
sI1394
F0.0
sI6772
F0.0
sI630
F0.0
sI120
F1.500000000000001
sI4927
F0.0
sI638
F0.0
sI1407
F0.0
sI1667
F0.0
sI7045
F0.0
sI646
F0.0
sI651
F0.0
sI653
F0.0
sI142
F1.0200000000000007
sI635
F0.0
sI1170
F0.0
sI662
F1.0000000000000007
sI2967
F0.0
sI664
F0.0
sI3232
F0.0
sI1441
F0.0
sI2978
F0.0
sI2727
F0.0
sI4008
F0.0
sI170
F0.8100000000000005
sI427
F0.0
sI4015
F0.0
sI1718
F0.0
sI884
F0.0
sI2234
F0.0
sI444
F0.0
sI1725
F0.0
sI448
F0.0
sI705
F0.0
sI1474
F0.0
sI196
F0.0
sI3525
F0.0
sI1223
F0.0
sI825
F0.0
sI547
F0.0
sI1492
F0.0
sI71381
F0.0
sI726
F0.0
sI36
F0.0
sI1499
F0.0
sI6034
F0.0
sI71392
F0.0
sI738
F0.0
sI739
F0.0
sI2277
F0.0
sI1514
F0.0
sI493
F1.0000000000000007
sI3063
F0.0
sI1017
F0.0
sI4090
F0.0
sI1531
F0.0
sI764
F0.0
sI767
F0.0
sg2
(g6
S'\xb4\x98\xf2\xe6\x8d\xea\xc9?'
p505
tp506
Rp507
g12
I3
F0.5
tp508
a.