(lp0
(I0
F0.7476060390472412
(dp1
I1
F0.01
sI2
F0.01
sI3
F0.0
sI4
F0.01
sI5
F0.0
sI6
F0.0
sI7
F0.0
sI8
F0.0
sI9
F0.0
sI10
F0.01
scnumpy.core.multiarray
scalar
p2
(cnumpy
dtype
p3
(S'f8'
p4
I0
I1
tp5
Rp6
(I3
S'<'
p7
NNNI-1
I-1
I0
tp8
bS'\xc6\x1e\xb88Y6\x85?'
p9
tp10
Rp11
S'sampler'
p12
I200
tp13
a(I1
F1.5331330299377441
(dp14
I1
F0.02
sI2
F0.01
sI3
F0.0
sI4
F0.02
sI5
F0.0
sI6
F0.0
sI7
F0.01
sI8
F0.0
sI9
F0.0
sI10
F0.02
sg2
(g6
S'\x13\xd2,\xdc\x9c\x1b\x95?'
p15
tp16
Rp17
g12
I200
tp18
a(I2
F2.3129780292510986
(dp19
I1
F0.03
sI2
F0.01
sI3
F0.0
sI4
F0.03
sI5
F0.0
sI6
F0.0
sI7
F0.02
sI8
F0.0
sI9
F0.0
sI10
F0.03
sg2
(g6
S'\x04\xd8A\xf8Q\x82\x9f?'
p20
tp21
Rp22
g12
I200
tp23
a(I3
F3.093423843383789
(dp24
I1
F0.04
sI2
F0.01
sI3
F0.0
sI4
F0.04
sI5
F0.0
sI6
F0.0
sI7
F0.03
sI8
F0.0
sI9
F0.0
sI10
F0.04
sg2
(g6
S'\x81lo\xe9\xc7\xe7\xa4?'
p25
tp26
Rp27
g12
I200
tp28
a(I4
F3.8822150230407715
(dp29
I1
F0.05
sI2
F0.01
sI3
F0.0
sI4
F0.05
sI5
F0.0
sI6
F0.0
sI7
F0.04
sI8
F0.0
sI9
F0.0
sI10
F0.05
sg2
(g6
S'\xf75w\x02\xcd\x01\xaa?'
p30
tp31
Rp32
g12
I200
tp33
a(I5
F4.6663830280303955
(dp34
I1
F0.060000000000000005
sI2
F0.01
sI3
F0.0
sI4
F0.060000000000000005
sI5
F0.0
sI6
F0.0
sI7
F0.05
sI8
F0.0
sI9
F0.0
sI10
F0.060000000000000005
sg2
(g6
S'S\x03\x01\xefY\x0f\xaf?'
p35
tp36
Rp37
g12
I200
tp38
a(I6
F5.445533037185669
(dp39
I1
F0.07
sI2
F0.01
sI3
F0.0
sI4
F0.07
sI5
F0.0
sI6
F0.0
sI7
F0.060000000000000005
sI8
F0.0
sI9
F0.0
sI10
F0.07
sg2
(g6
S'\x92\x7f\x14\x19H\x08\xb2?'
p40
tp41
Rp42
g12
I200
tp43
a(I7
F6.224400043487549
(dp44
I1
F0.08
sI2
F0.01
sI3
F0.0
sI4
F0.08
sI5
F0.0
sI6
F0.0
sI7
F0.07
sI8
F0.0
sI9
F0.0
sI10
F0.08
sg2
(g6
S'\xc0a/\x95\xc8\x82\xb4?'
p45
tp46
Rp47
g12
I200
tp48
a(I8
F7.005986928939819
(dp49
I1
F0.09
sI2
F0.01
sI3
F0.0
sI4
F0.09
sI5
F0.0
sI6
F0.0
sI7
F0.08
sI8
F0.0
sI9
F0.0
sI10
F0.09
sg2
(g6
S'\xfd\xac\xb2\x08?\xf7\xb6?'
p50
tp51
Rp52
g12
I200
tp53
a(I9
F7.786897897720337
(dp54
I1
F0.09999999999999999
sI2
F0.01
sI3
F0.0
sI4
F0.09999999999999999
sI5
F0.0
sI6
F0.0
sI7
F0.09
sI8
F0.0
sI9
F0.0
sI10
F0.09999999999999999
sg2
(g6
S'\xdc\x9d)\xfe\xbbe\xb9?'
p55
tp56
Rp57
g12
I200
tp58
a(I10
F8.567101001739502
(dp59
I1
F0.10999999999999999
sI2
F0.01
sI3
F0.0
sI4
F0.10999999999999999
sI5
F0.0
sI6
F0.0
sI7
F0.09999999999999999
sI8
F0.0
sI9
F0.0
sI10
F0.10999999999999999
sg2
(g6
S'\xbb(\xc9\xedO\xce\xbb?'
p60
tp61
Rp62
g12
I200
tp63
a(I11
F9.340857028961182
(dp64
I1
F0.11999999999999998
sI2
F0.01
sI3
F0.0
sI4
F0.11999999999999998
sI5
F0.0
sI6
F0.0
sI7
F0.10999999999999999
sI8
F0.0
sI9
F0.0
sI10
F0.11999999999999998
sg2
(g6
S'\xb8\xf9o=\x0b1\xbe?'
p65
tp66
Rp67
g12
I200
tp68
a(I12
F10.116926908493042
(dp69
I1
F0.12999999999999998
sI2
F0.01
sI3
F0.0
sI4
F0.12999999999999998
sI5
F0.0
sI6
F0.0
sI7
F0.11999999999999998
sI8
F0.0
sI9
F0.0
sI10
F0.12999999999999998
sg2
(g6
S'Y:S \xffF\xc0?'
p70
tp71
Rp72
g12
I200
tp73
a(I13
F10.896345853805542
(dp74
I1
F0.13999999999999999
sI2
F0.01
sI3
F0.0
sI4
F0.13999999999999999
sI5
F0.0
sI6
F0.0
sI7
F0.12999999999999998
sI8
F0.0
sI9
F0.0
sI10
F0.13999999999999999
sg2
(g6
S'\xadZO\x9c\x9cr\xc1?'
p75
tp76
Rp77
g12
I200
tp78
a(I14
F11.689032077789307
(dp79
I1
F0.15
sI2
F0.01
sI3
F0.0
sI4
F0.15
sI5
F0.0
sI6
F0.0
sI7
F0.13999999999999999
sI8
F0.0
sI9
F0.0
sI10
F0.15
sg2
(g6
S'\x93G\x1a*f\x9b\xc2?'
p80
tp81
Rp82
g12
I200
tp83
a(I15
F12.49697995185852
(dp84
I1
F0.16
sI2
F0.01
sI3
F0.0
sI4
F0.16
sI5
F0.0
sI6
F0.0
sI7
F0.15
sI8
F0.0
sI9
F0.0
sI10
F0.16
sg2
(g6
S'\x9b\xc6\xf6\xd7c\xc1\xc3?'
p85
tp86
Rp87
g12
I200
tp88
a(I16
F13.312247037887573
(dp89
I1
F0.17
sI2
F0.01
sI3
F0.0
sI4
F0.17
sI5
F0.0
sI6
F0.0
sI7
F0.16
sI8
F0.0
sI9
F0.0
sI10
F0.17
sg2
(g6
S'Ny\xfc\xaa\x9d\xe4\xc4?'
p90
tp91
Rp92
g12
I200
tp93
a(I17
F14.098628044128418
(dp94
I1
F0.18000000000000002
sI2
F0.01
sI3
F0.0
sI4
F0.18000000000000002
sI5
F0.0
sI6
F0.0
sI7
F0.17
sI8
F0.0
sI9
F0.0
sI10
F0.18000000000000002
sg2
(g6
S'\n\xdd\x17\x9f\x1b\x05\xc6?'
p95
tp96
Rp97
g12
I200
tp98
a(I18
F14.887166976928711
(dp99
I1
F0.19000000000000003
sI2
F0.01
sI3
F0.0
sI4
F0.19000000000000003
sI5
F0.0
sI6
F0.0
sI7
F0.18000000000000002
sI8
F0.0
sI9
F0.0
sI10
F0.19000000000000003
sg2
(g6
S'\x0fK\n\xa7\xe5"\xc7?'
p100
tp101
Rp102
g12
I200
tp103
a(I19
F15.66957402229309
(dp104
I1
F0.20000000000000004
sI2
F0.01
sI3
F0.0
sI4
F0.20000000000000004
sI5
F0.0
sI6
F0.0
sI7
F0.19000000000000003
sI8
F0.0
sI9
F0.0
sI10
F0.20000000000000004
sg2
(g6
S'\x87\xf8i\xac\x03>\xc8?'
p105
tp106
Rp107
g12
I200
tp108
a(I20
F16.448551893234253
(dp109
I1
F0.21000000000000005
sI2
F0.01
sI3
F0.0
sI4
F0.21000000000000005
sI5
F0.0
sI6
F0.0
sI7
F0.20000000000000004
sI8
F0.0
sI9
F0.0
sI10
F0.21000000000000005
sg2
(g6
S'v\xf6\xa1\x8f}V\xc9?'
p110
tp111
Rp112
g12
I200
tp113
a(I21
F17.227207899093628
(dp114
I1
F0.22000000000000006
sI2
F0.01
sI3
F0.0
sI4
F0.22000000000000006
sI5
F0.0
sI6
F0.0
sI7
F0.21000000000000005
sI8
F0.0
sI9
F0.0
sI10
F0.22000000000000006
sg2
(g6
S"\xce1\xf2'[l\xca?"
p115
tp116
Rp117
g12
I200
tp118
a(I22
F18.007794857025146
(dp119
I1
F0.23000000000000007
sI2
F0.01
sI3
F0.0
sI4
F0.23000000000000007
sI5
F0.0
sI6
F0.0
sI7
F0.22000000000000006
sI8
F0.0
sI9
F0.0
sI10
F0.23000000000000007
sg2
(g6
S'WsoC\xa4\x7f\xcb?'
p120
tp121
Rp122
g12
I200
tp123
a(I23
F18.790616035461426
(dp124
I1
F0.24000000000000007
sI2
F0.01
sI3
F0.0
sI4
F0.24000000000000007
sI5
F0.0
sI6
F0.0
sI7
F0.23000000000000007
sI8
F0.0
sI9
F0.0
sI10
F0.24000000000000007
sg2
(g6
S'\xc9_\x03\xa7`\x90\xcc?'
p125
tp126
Rp127
g12
I200
tp128
a(I24
F19.574043035507202
(dp129
I1
F0.25000000000000006
sI2
F0.01
sI3
F0.0
sI4
F0.25000000000000006
sI5
F0.0
sI6
F0.0
sI7
F0.24000000000000007
sI8
F0.0
sI9
F0.0
sI10
F0.25000000000000006
sg2
(g6
S'\xb7wl\x0e\x98\x9e\xcd?'
p130
tp131
Rp132
g12
I200
tp133
a(I25
F20.351104974746704
(dp134
I1
F0.26000000000000006
sI2
F0.01
sI3
F0.0
sI4
F0.26000000000000006
sI5
F0.0
sI6
F0.0
sI7
F0.25000000000000006
sI8
F0.0
sI9
F0.0
sI10
F0.26000000000000006
sg2
(g6
S'\x9a\x17>,R\xaa\xce?'
p135
tp136
Rp137
g12
I200
tp138
a(I26
F21.13197898864746
(dp139
I1
F0.2700000000000001
sI2
F0.01
sI3
F0.0
sI4
F0.2700000000000001
sI5
F0.0
sI6
F0.0
sI7
F0.26000000000000006
sI8
F0.0
sI9
F0.0
sI10
F0.2700000000000001
sg2
(g6
S'\xc6w\xe0\xa9\x96\xb3\xcf?'
p140
tp141
Rp142
g12
I200
tp143
a(I27
F21.909337043762207
(dp144
I1
F0.2800000000000001
sI2
F0.01
sI3
F0.0
sI4
F0.2800000000000001
sI5
F0.0
sI6
F0.0
sI7
F0.2700000000000001
sI8
F0.0
sI9
F0.0
sI10
F0.2800000000000001
sg2
(g6
S'?V\xc8\x936]\xd0?'
p145
tp146
Rp147
g12
I200
tp148
a(I28
F22.69267702102661
(dp149
I1
F0.2900000000000001
sI2
F0.01
sI3
F0.0
sI4
F0.2900000000000001
sI5
F0.0
sI6
F0.0
sI7
F0.2800000000000001
sI8
F0.0
sI9
F0.0
sI10
F0.2900000000000001
sg2
(g6
S'\xedR0\x9en\xdf\xd0?'
p150
tp151
Rp152
g12
I200
tp153
a(I29
F23.471844911575317
(dp154
I1
F0.3000000000000001
sI2
F0.01
sI3
F0.0
sI4
F0.3000000000000001
sI5
F0.0
sI6
F0.0
sI7
F0.2900000000000001
sI8
F0.0
sI9
F0.0
sI10
F0.3000000000000001
sg2
(g6
S'\xf4\x97\x1b;w`\xd1?'
p155
tp156
Rp157
g12
I200
tp158
a(I30
F24.256628036499023
(dp159
I1
F0.3100000000000001
sI2
F0.01
sI3
F0.0
sI4
F0.3100000000000001
sI5
F0.0
sI6
F0.0
sI7
F0.3000000000000001
sI8
F0.0
sI9
F0.0
sI10
F0.3100000000000001
sg2
(g6
S'A\xf9\xe7,T\xe0\xd1?'
p160
tp161
Rp162
g12
I200
tp163
a(I31
F25.039407968521118
(dp164
I1
F0.3200000000000001
sI2
F0.01
sI3
F0.0
sI4
F0.3200000000000001
sI5
F0.0
sI6
F0.0
sI7
F0.3100000000000001
sI8
F0.0
sI9
F0.0
sI10
F0.3200000000000001
sg2
(g6
S'\xbf\xb8]1\t_\xd2?'
p165
tp166
Rp167
g12
I200
tp168
a(I32
F25.824481964111328
(dp169
I1
F0.3300000000000001
sI2
F0.01
sI3
F0.0
sI4
F0.3300000000000001
sI5
F0.0
sI6
F0.0
sI7
F0.3200000000000001
sI8
F0.0
sI9
F0.0
sI10
F0.3300000000000001
sg2
(g6
S'>\x86\xaf\x01\x9a\xdc\xd2?'
p170
tp171
Rp172
g12
I200
tp173
a(I33
F26.601003885269165
(dp174
I1
F0.34000000000000014
sI2
F0.01
sI3
F0.0
sI4
F0.34000000000000014
sI5
F0.0
sI6
F0.0
sI7
F0.3300000000000001
sI8
F0.0
sI9
F0.0
sI10
F0.34000000000000014
sg2
(g6
S'\x86\x7fzR\nY\xd3?'
p175
tp176
Rp177
g12
I200
tp178
a(I34
F27.37735104560852
(dp179
I1
F0.35000000000000014
sI2
F0.01
sI3
F0.0
sI4
F0.35000000000000014
sI5
F0.0
sI6
F0.0
sI7
F0.34000000000000014
sI8
F0.0
sI9
F0.0
sI10
F0.35000000000000014
sg2
(g6
S'P0\xc6\xd3]\xd4\xd3?'
p180
tp181
Rp182
g12
I200
tp183
a(I35
F28.162206888198853
(dp184
I1
F0.36000000000000015
sI2
F0.01
sI3
F0.0
sI4
F0.36000000000000015
sI5
F0.0
sI6
F0.0
sI7
F0.35000000000000014
sI8
F0.0
sI9
F0.0
sI10
F0.36000000000000015
sg2
(g6
S'D\x92\x041\x98N\xd4?'
p185
tp186
Rp187
g12
I200
tp188
a(I36
F28.949090003967285
(dp189
I1
F0.37000000000000016
sI2
F0.01
sI3
F0.0
sI4
F0.37000000000000016
sI5
F0.0
sI6
F0.0
sI7
F0.36000000000000015
sI8
F0.0
sI9
F0.0
sI10
F0.37000000000000016
sg2
(g6
S'\x01\r\x12\x11\xbd\xc7\xd4?'
p190
tp191
Rp192
g12
I200
tp193
a(I37
F29.730910062789917
(dp194
I1
F0.38000000000000017
sI2
F0.01
sI3
F0.0
sI4
F0.38000000000000017
sI5
F0.0
sI6
F0.0
sI7
F0.37000000000000016
sI8
F0.0
sI9
F0.0
sI10
F0.38000000000000017
sg2
(g6
S'\x12v5\x16\xd0?\xd5?'
p195
tp196
Rp197
g12
I200
tp198
a(I38
F30.51059103012085
(dp199
I1
F0.3900000000000002
sI2
F0.01
sI3
F0.0
sI4
F0.3900000000000002
sI5
F0.0
sI6
F0.0
sI7
F0.38000000000000017
sI8
F0.0
sI9
F0.0
sI10
F0.3900000000000002
sg2
(g6
S'\xf6\x10 \xde\xd4\xb6\xd5?'
p200
tp201
Rp202
g12
I200
tp203
a(I39
F31.289538860321045
(dp204
I1
F0.4000000000000002
sI2
F0.01
sI3
F0.0
sI4
F0.4000000000000002
sI5
F0.0
sI6
F0.0
sI7
F0.3900000000000002
sI8
F0.0
sI9
F0.0
sI10
F0.4000000000000002
sg2
(g6
S'\x16\x8f\xed\x01\xcf,\xd6?'
p205
tp206
Rp207
g12
I200
tp208
a(I40
F32.07713294029236
(dp209
I1
F0.4100000000000002
sI2
F0.01
sI3
F0.0
sI4
F0.4100000000000002
sI5
F0.0
sI6
F0.0
sI7
F0.4000000000000002
sI8
F0.0
sI9
F0.0
sI10
F0.4100000000000002
sg2
(g6
S'\xdf\x0f$\x16\xc2\xa1\xd6?'
p210
tp211
Rp212
g12
I200
tp213
a(I41
F32.856626987457275
(dp214
I1
F0.4200000000000002
sI2
F0.01
sI3
F0.0
sI4
F0.4200000000000002
sI5
F0.0
sI6
F0.0
sI7
F0.4100000000000002
sI8
F0.0
sI9
F0.0
sI10
F0.4200000000000002
sg2
(g6
S'\x98 \xb4\xaa\xb1\x15\xd7?'
p215
tp216
Rp217
g12
I200
tp218
a(I42
F33.63658404350281
(dp219
I1
F0.4300000000000002
sI2
F0.01
sI3
F0.0
sI4
F0.4300000000000002
sI5
F0.0
sI6
F0.0
sI7
F0.4200000000000002
sI8
F0.0
sI9
F0.0
sI10
F0.4300000000000002
sg2
(g6
S'\x8b\xbc\xf8J\xa1\x88\xd7?'
p220
tp221
Rp222
g12
I200
tp223
a(I43
F34.41106200218201
(dp224
I1
F0.4400000000000002
sI2
F0.01
sI3
F0.0
sI4
F0.4400000000000002
sI5
F0.0
sI6
F0.0
sI7
F0.4300000000000002
sI8
F0.0
sI9
F0.0
sI10
F0.4400000000000002
sg2
(g6
S'\xedL\xb7}\x94\xfa\xd7?'
p225
tp226
Rp227
g12
I200
tp228
a(I44
F35.18948006629944
(dp229
I1
F0.45000000000000023
sI2
F0.01
sI3
F0.0
sI4
F0.45000000000000023
sI5
F0.0
sI6
F0.0
sI7
F0.4400000000000002
sI8
F0.0
sI9
F0.0
sI10
F0.45000000000000023
sg2
(g6
S'\xe2\xa8\x1f\xc5\x8ek\xd8?'
p230
tp231
Rp232
g12
I200
tp233
a(I45
F35.96812987327576
(dp234
I1
F0.46000000000000024
sI2
F0.01
sI3
F0.0
sI4
F0.46000000000000024
sI5
F0.0
sI6
F0.0
sI7
F0.45000000000000023
sI8
F0.0
sI9
F0.0
sI10
F0.46000000000000024
sg2
(g6
S'\x86\x15\xcc\x9e\x93\xdb\xd8?'
p235
tp236
Rp237
g12
I200
tp238
a(I46
F36.74776601791382
(dp239
I1
F0.47000000000000025
sI2
F0.01
sI3
F0.0
sI4
F0.47000000000000025
sI5
F0.0
sI6
F0.0
sI7
F0.46000000000000024
sI8
F0.0
sI9
F0.0
sI10
F0.47000000000000025
sg2
(g6
S'\xdfE\xc1\x83\xa6J\xd9?'
p240
tp241
Rp242
g12
I200
tp243
a(I47
F37.52770495414734
(dp244
I1
F0.48000000000000026
sI2
F0.01
sI3
F0.0
sI4
F0.48000000000000026
sI5
F0.0
sI6
F0.0
sI7
F0.47000000000000025
sI8
F0.0
sI9
F0.0
sI10
F0.48000000000000026
sg2
(g6
S'\xe6Zn\xe8\xca\xb8\xd9?'
p245
tp246
Rp247
g12
I200
tp248
a(I48
F38.30741906166077
(dp249
I1
F0.49000000000000027
sI2
F0.01
sI3
F0.0
sI4
F0.49000000000000027
sI5
F0.0
sI6
F0.0
sI7
F0.48000000000000026
sI8
F0.0
sI9
F0.0
sI10
F0.49000000000000027
sg2
(g6
S'\x8c\xe3\xac<\x04&\xda?'
p250
tp251
Rp252
g12
I200
tp253
a(I49
F39.09236407279968
(dp254
I1
F0.5000000000000002
sI2
F0.01
sI3
F0.0
sI4
F0.5000000000000002
sI5
F0.0
sI6
F0.0
sI7
F0.49000000000000027
sI8
F0.0
sI9
F0.0
sI10
F0.5000000000000002
sg2
(g6
S'\xaa\xdc\xc0\xebU\x92\xda?'
p255
tp256
Rp257
g12
I200
tp258
a(I50
F39.88107204437256
(dp259
I1
F0.5100000000000002
sI2
F0.01
sI3
F0.0
sI4
F0.5100000000000002
sI5
F0.0
sI6
F0.0
sI7
F0.5000000000000002
sI8
F0.0
sI9
F0.0
sI10
F0.5100000000000002
sg2
(g6
S'\x14\xb1X\\\xc3\xfd\xda?'
p260
tp261
Rp262
g12
I200
tp263
a(I51
F40.661072969436646
(dp264
I1
F0.5200000000000002
sI2
F0.01
sI3
F0.0
sI4
F0.5200000000000002
sI5
F0.0
sI6
F0.0
sI7
F0.5100000000000002
sI8
F0.0
sI9
F0.0
sI10
F0.5200000000000002
sg2
(g6
S'\x879\x8d\xf0Oh\xdb?'
p265
tp266
Rp267
g12
I200
tp268
a(I52
F41.44841694831848
(dp269
I1
F0.5300000000000002
sI2
F0.01
sI3
F0.0
sI4
F0.5300000000000002
sI5
F0.0
sI6
F0.0
sI7
F0.5200000000000002
sI8
F0.0
sI9
F0.0
sI10
F0.5300000000000002
sg2
(g6
S'\xb9\xbc\xe1\x05\xff\xd1\xdb?'
p270
tp271
Rp272
g12
I200
tp273
a(I53
F42.237669944763184
(dp274
I1
F0.5400000000000003
sI2
F0.01
sI3
F0.0
sI4
F0.5400000000000003
sI5
F0.0
sI6
F0.0
sI7
F0.5300000000000002
sI8
F0.0
sI9
F0.0
sI10
F0.5400000000000003
sg2
(g6
S'K\xefC\xf5\xd3:\xdc?'
p275
tp276
Rp277
g12
I200
tp278
a(I54
F43.04670596122742
(dp279
I1
F0.5500000000000003
sI2
F0.01
sI3
F0.0
sI4
F0.5500000000000003
sI5
F0.0
sI6
F0.0
sI7
F0.5400000000000003
sI8
F0.0
sI9
F0.0
sI10
F0.5500000000000003
sg2
(g6
S'\xd0\xf3\x0b\x13\xd2\xa2\xdc?'
p280
tp281
Rp282
g12
I200
tp283
a(I55
F43.83682203292847
(dp284
I1
F0.5600000000000003
sI2
F0.01
sI3
F0.0
sI4
F0.5600000000000003
sI5
F0.0
sI6
F0.0
sI7
F0.5500000000000003
sI8
F0.0
sI9
F0.0
sI10
F0.5600000000000003
sg2
(g6
S'\xcfZ\xfc\xae\xfc\t\xdd?'
p285
tp286
Rp287
g12
I200
tp288
a(I56
F44.61951184272766
(dp289
I1
F0.5700000000000003
sI2
F0.01
sI3
F0.0
sI4
F0.5700000000000003
sI5
F0.0
sI6
F0.0
sI7
F0.5600000000000003
sI8
F0.0
sI9
F0.0
sI10
F0.5700000000000003
sg2
(g6
S'\xc2"B\x14Wp\xdd?'
p290
tp291
Rp292
g12
I200
tp293
a(I57
F45.402108907699585
(dp294
I1
F0.5800000000000003
sI2
F0.01
sI3
F0.0
sI4
F0.5800000000000003
sI5
F0.0
sI6
F0.0
sI7
F0.5700000000000003
sI8
F0.0
sI9
F0.0
sI10
F0.5800000000000003
sg2
(g6
S'\x10\xb8t\x89\xe4\xd5\xdd?'
p295
tp296
Rp297
g12
I200
tp298
a(I58
F46.17998290061951
(dp299
I1
F0.5900000000000003
sI2
F0.01
sI3
F0.0
sI4
F0.5900000000000003
sI5
F0.0
sI6
F0.0
sI7
F0.5800000000000003
sI8
F0.0
sI9
F0.0
sI10
F0.5900000000000003
sg2
(g6
S'\x16\xf5\x95P\xa8:\xde?'
p300
tp301
Rp302
g12
I200
tp303
a(I59
F46.95674395561218
(dp304
I1
F0.6000000000000003
sI2
F0.01
sI3
F0.0
sI4
F0.6000000000000003
sI5
F0.0
sI6
F0.0
sI7
F0.5900000000000003
sI8
F0.0
sI9
F0.0
sI10
F0.6000000000000003
sg2
(g6
S'\x1a"\x12\xa7\xa5\x9e\xde?'
p305
tp306
Rp307
g12
I200
tp308
a(I60
F47.73737406730652
(dp309
I1
F0.6100000000000003
sI2
F0.01
sI3
F0.0
sI4
F0.6100000000000003
sI5
F0.0
sI6
F0.0
sI7
F0.6000000000000003
sI8
F0.0
sI9
F0.0
sI10
F0.6100000000000003
sg2
(g6
S'`\xf5\xbf\xc5\xdf\x01\xdf?'
p310
tp311
Rp312
g12
I200
tp313
a(I61
F48.52122902870178
(dp314
I1
F0.6200000000000003
sI2
F0.01
sI3
F0.0
sI4
F0.6200000000000003
sI5
F0.0
sI6
F0.0
sI7
F0.6100000000000003
sI8
F0.0
sI9
F0.0
sI10
F0.6200000000000003
sg2
(g6
S'\x14\x93\xe0\xe0Yd\xdf?'
p315
tp316
Rp317
g12
I200
tp318
a(I62
F49.30412006378174
(dp319
I1
F0.6300000000000003
sI2
F0.01
sI3
F0.0
sI4
F0.6300000000000003
sI5
F0.0
sI6
F0.0
sI7
F0.6200000000000003
sI8
F0.0
sI9
F0.0
sI10
F0.6300000000000003
sg2
(g6
S'W\x8d\x1f(\x17\xc6\xdf?'
p320
tp321
Rp322
g12
I200
tp323
a(I63
F50.09271597862244
(dp324
I1
F0.6400000000000003
sI2
F0.01
sI3
F0.0
sI4
F0.6400000000000003
sI5
F0.0
sI6
F0.0
sI7
F0.6300000000000003
sI8
F0.0
sI9
F0.0
sI10
F0.6400000000000003
sg2
(g6
S'\x1crIc\x8d\x13\xe0?'
p325
tp326
Rp327
g12
I200
tp328
a(I64
F50.869844913482666
(dp329
I1
F0.6500000000000004
sI2
F0.01
sI3
F0.0
sI4
F0.6500000000000004
sI5
F0.0
sI6
F0.0
sI7
F0.6400000000000003
sI8
F0.0
sI9
F0.0
sI10
F0.6500000000000004
sg2
(g6
S'\xdd\x82]\xf1\xb3C\xe0?'
p330
tp331
Rp332
g12
I200
tp333
a(I65
F51.65540385246277
(dp334
I1
F0.6600000000000004
sI2
F0.01
sI3
F0.0
sI4
F0.6600000000000004
sI5
F0.0
sI6
F0.0
sI7
F0.6500000000000004
sI8
F0.0
sI9
F0.0
sI10
F0.6600000000000004
sg2
(g6
S'\xebfA\xcf\x80s\xe0?'
p335
tp336
Rp337
g12
I200
tp338
a(I66
F52.42820191383362
(dp339
I1
F0.6700000000000004
sI2
F0.01
sI3
F0.0
sI4
F0.6700000000000004
sI5
F0.0
sI6
F0.0
sI7
F0.6600000000000004
sI8
F0.0
sI9
F0.0
sI10
F0.6700000000000004
sg2
(g6
S'9\xc3\x9f\x8b\xf5\xa2\xe0?'
p340
tp341
Rp342
g12
I200
tp343
a(I67
F53.20251703262329
(dp344
I1
F0.6800000000000004
sI2
F0.01
sI3
F0.0
sI4
F0.6800000000000004
sI5
F0.0
sI6
F0.0
sI7
F0.6700000000000004
sI8
F0.0
sI9
F0.0
sI10
F0.6800000000000004
sg2
(g6
S'\xafs\xd8\xb2\x13\xd2\xe0?'
p345
tp346
Rp347
g12
I200
tp348
a(I68
F53.98052096366882
(dp349
I1
F0.6900000000000004
sI2
F0.01
sI3
F0.0
sI4
F0.6900000000000004
sI5
F0.0
sI6
F0.0
sI7
F0.6800000000000004
sI8
F0.0
sI9
F0.0
sI10
F0.6900000000000004
sg2
(g6
S'4\x8b\x00\xcf\xdc\x00\xe1?'
p350
tp351
Rp352
g12
I200
tp353
a(I69
F54.77294397354126
(dp354
I1
F0.7000000000000004
sI2
F0.01
sI3
F0.0
sI4
F0.7000000000000004
sI5
F0.0
sI6
F0.0
sI7
F0.6900000000000004
sI8
F0.0
sI9
F0.0
sI10
F0.7000000000000004
sg2
(g6
S'\xa2S\xe2gR/\xe1?'
p355
tp356
Rp357
g12
I200
tp358
a(I70
F55.54763197898865
(dp359
I1
F0.7100000000000004
sI2
F0.01
sI3
F0.0
sI4
F0.7100000000000004
sI5
F0.0
sI6
F0.0
sI7
F0.7000000000000004
sI8
F0.0
sI9
F0.0
sI10
F0.7100000000000004
sg2
(g6
S'\xd5M\xfd\x02v]\xe1?'
p360
tp361
Rp362
g12
I200
tp363
a(I71
F56.32409405708313
(dp364
I1
F0.7200000000000004
sI2
F0.01
sI3
F0.0
sI4
F0.7200000000000004
sI5
F0.0
sI6
F0.0
sI7
F0.7100000000000004
sI8
F0.0
sI9
F0.0
sI10
F0.7200000000000004
sg2
(g6
S'\x951\x86#I\x8b\xe1?'
p365
tp366
Rp367
g12
I200
tp368
a(I72
F57.07544493675232
(dp369
I1
F0.7300000000000004
sI2
F0.01
sI3
F0.0
sI4
F0.7300000000000004
sI5
F0.0
sI6
F0.0
sI7
F0.7200000000000004
sI8
F0.0
sI9
F0.0
sI10
F0.7300000000000004
sg2
(g6
S'\xae\xedfJ\xcd\xb8\xe1?'
p370
tp371
Rp372
g12
I200
tp373
a(I73
F57.820720911026
(dp374
I1
F0.7400000000000004
sI2
F0.01
sI3
F0.0
sI4
F0.7400000000000004
sI5
F0.0
sI6
F0.0
sI7
F0.7300000000000004
sI8
F0.0
sI9
F0.0
sI10
F0.7400000000000004
sg2
(g6
S'\xde\xa7>\xf6\x03\xe6\xe1?'
p375
tp376
Rp377
g12
I200
tp378
a(I74
F58.5702760219574
(dp379
I1
F0.7500000000000004
sI2
F0.01
sI3
F0.0
sI4
F0.7500000000000004
sI5
F0.0
sI6
F0.0
sI7
F0.7400000000000004
sI8
F0.0
sI9
F0.0
sI10
F0.7500000000000004
sg2
(g6
S'\xdd\xbca\xa3\xee\x12\xe2?'
p380
tp381
Rp382
g12
I200
tp383
a(I75
F59.31275987625122
(dp384
I1
F0.7600000000000005
sI2
F0.01
sI3
F0.0
sI4
F0.7600000000000005
sI5
F0.0
sI6
F0.0
sI7
F0.7500000000000004
sI8
F0.0
sI9
F0.0
sI10
F0.7600000000000005
sg2
(g6
S']\xc0\xd9\xcb\x8e?\xe2?'
p385
tp386
Rp387
g12
I200
tp388
a(I76
F60.06737303733826
(dp389
I1
F0.7700000000000005
sI2
F0.01
sI3
F0.0
sI4
F0.7700000000000005
sI5
F0.0
sI6
F0.0
sI7
F0.7600000000000005
sI8
F0.0
sI9
F0.0
sI10
F0.7700000000000005
sg2
(g6
S'\t}e\xe7\xe5k\xe2?'
p390
tp391
Rp392
g12
I200
tp393
a(I77
F60.800724029541016
(dp394
I1
F0.7800000000000005
sI2
F0.01
sI3
F0.0
sI4
F0.7800000000000005
sI5
F0.0
sI6
F0.0
sI7
F0.7700000000000005
sI8
F0.0
sI9
F0.0
sI10
F0.7800000000000005
sg2
(g6
S'\x7f\xf4xk\xf5\x97\xe2?'
p395
tp396
Rp397
g12
I200
tp398
a(I78
F61.537384033203125
(dp399
I1
F0.7900000000000005
sI2
F0.01
sI3
F0.0
sI4
F0.7900000000000005
sI5
F0.0
sI6
F0.0
sI7
F0.7800000000000005
sI8
F0.0
sI9
F0.0
sI10
F0.7900000000000005
sg2
(g6
S'`_=\xcb\xbe\xc3\xe2?'
p400
tp401
Rp402
g12
I200
tp403
a(I79
F62.266587018966675
(dp404
I1
F0.8000000000000005
sI2
F0.01
sI3
F0.0
sI4
F0.8000000000000005
sI5
F0.0
sI6
F0.0
sI7
F0.7900000000000005
sI8
F0.0
sI9
F0.0
sI10
F0.8000000000000005
sg2
(g6
S'>-\x91wC\xef\xe2?'
p405
tp406
Rp407
g12
I200
tp408
a(I80
F62.99862098693848
(dp409
I1
F0.8100000000000005
sI2
F0.01
sI3
F0.0
sI4
F0.8100000000000005
sI5
F0.0
sI6
F0.0
sI7
F0.8000000000000005
sI8
F0.0
sI9
F0.0
sI10
F0.8100000000000005
sg2
(g6
S'\xa5\x04\x08\xdf\x84\x1a\xe3?'
p410
tp411
Rp412
g12
I200
tp413
a(I81
F63.73373007774353
(dp414
I1
F0.8200000000000005
sI2
F0.01
sI3
F0.0
sI4
F0.8200000000000005
sI5
F0.0
sI6
F0.0
sI7
F0.8100000000000005
sI8
F0.0
sI9
F0.0
sI10
F0.8200000000000005
sg2
(g6
S'\x1c\xc3\xeam\x84E\xe3?'
p415
tp416
Rp417
g12
I200
tp418
a(I82
F64.4687569141388
(dp419
I1
F0.8300000000000005
sI2
F0.01
sI3
F0.0
sI4
F0.8300000000000005
sI5
F0.0
sI6
F0.0
sI7
F0.8200000000000005
sI8
F0.0
sI9
F0.0
sI10
F0.8300000000000005
sg2
(g6
S'!}7\x8eCp\xe3?'
p420
tp421
Rp422
g12
I200
tp423
a(I83
F65.20238184928894
(dp424
I1
F0.8400000000000005
sI2
F0.01
sI3
F0.0
sI4
F0.8400000000000005
sI5
F0.0
sI6
F0.0
sI7
F0.8300000000000005
sI8
F0.0
sI9
F0.0
sI10
F0.8400000000000005
sg2
(g6
S',~\xa1\xa7\xc3\x9a\xe3?'
p425
tp426
Rp427
g12
I200
tp428
a(I84
F65.93652391433716
(dp429
I1
F0.8500000000000005
sI2
F0.01
sI3
F0.0
sI4
F0.8500000000000005
sI5
F0.0
sI6
F0.0
sI7
F0.8400000000000005
sI8
F0.0
sI9
F0.0
sI10
F0.8500000000000005
sg2
(g6
S'\xa8H\x91\x1f\x06\xc5\xe3?'
p430
tp431
Rp432
g12
I200
tp433
a(I85
F66.66695785522461
(dp434
I1
F0.8600000000000005
sI2
F0.01
sI3
F0.0
sI4
F0.8600000000000005
sI5
F0.0
sI6
F0.0
sI7
F0.8500000000000005
sI8
F0.0
sI9
F0.0
sI10
F0.8600000000000005
sg2
(g6
S'\x03\x96$Y\x0c\xef\xe3?'
p435
tp436
Rp437
g12
I200
tp438
a(I86
F67.4012360572815
(dp439
I1
F0.8700000000000006
sI2
F0.01
sI3
F0.0
sI4
F0.8700000000000006
sI5
F0.0
sI6
F0.0
sI7
F0.8600000000000005
sI8
F0.0
sI9
F0.0
sI10
F0.8700000000000006
sg2
(g6
S'\x9dV.\xb5\xd7\x18\xe4?'
p440
tp441
Rp442
g12
I200
tp443
a(I87
F68.13414788246155
(dp444
I1
F0.8800000000000006
sI2
F0.01
sI3
F0.0
sI4
F0.8800000000000006
sI5
F0.0
sI6
F0.0
sI7
F0.8700000000000006
sI8
F0.0
sI9
F0.0
sI10
F0.8800000000000006
sg2
(g6
S'\xce\xb16\x92iB\xe4?'
p445
tp446
Rp447
g12
I200
tp448
a(I88
F68.86815595626831
(dp449
I1
F0.8900000000000006
sI2
F0.01
sI3
F0.0
sI4
F0.8900000000000006
sI5
F0.0
sI6
F0.0
sI7
F0.8800000000000006
sI8
F0.0
sI9
F0.0
sI10
F0.8900000000000006
sg2
(g6
S'\xe9\x05{L\xc3k\xe4?'
p450
tp451
Rp452
g12
I200
tp453
a(I89
F69.60244107246399
(dp454
I1
F0.9000000000000006
sI2
F0.01
sI3
F0.0
sI4
F0.9000000000000006
sI5
F0.0
sI6
F0.0
sI7
F0.8900000000000006
sI8
F0.0
sI9
F0.0
sI10
F0.9000000000000006
sg2
(g6
S':\xe8\xed=\xe6\x94\xe4?'
p455
tp456
Rp457
g12
I200
tp458
a(I90
F70.3382179737091
(dp459
I1
F0.9100000000000006
sI2
F0.01
sI3
F0.0
sI4
F0.9100000000000006
sI5
F0.0
sI6
F0.0
sI7
F0.9000000000000006
sI8
F0.0
sI9
F0.0
sI10
F0.9100000000000006
sg2
(g6
S'\x05%7\xbe\xd3\xbd\xe4?'
p460
tp461
Rp462
g12
I200
tp463
a(I91
F71.07486987113953
(dp464
I1
F0.9200000000000006
sI2
F0.01
sI3
F0.0
sI4
F0.9200000000000006
sI5
F0.0
sI6
F0.0
sI7
F0.9100000000000006
sI8
F0.0
sI9
F0.0
sI10
F0.9200000000000006
sg2
(g6
S'\x84\xbf\xb3"\x8d\xe6\xe4?'
p465
tp466
Rp467
g12
I200
tp468
a(I92
F71.80854392051697
(dp469
I1
F0.9300000000000006
sI2
F0.01
sI3
F0.0
sI4
F0.9300000000000006
sI5
F0.0
sI6
F0.0
sI7
F0.9200000000000006
sI8
F0.0
sI9
F0.0
sI10
F0.9300000000000006
sg2
(g6
S'\xf0\xf1u\xbe\x13\x0f\xe5?'
p470
tp471
Rp472
g12
I200
tp473
a(I93
F72.58560085296631
(dp474
I1
F0.9400000000000006
sI2
F0.01
sI3
F0.0
sI4
F0.9400000000000006
sI5
F0.0
sI6
F0.0
sI7
F0.9300000000000006
sI8
F0.0
sI9
F0.0
sI10
F0.9400000000000006
sg2
(g6
S'u-E\xe2h7\xe5?'
p475
tp476
Rp477
g12
I200
tp478
a(I94
F73.33710098266602
(dp479
I1
F0.9500000000000006
sI2
F0.01
sI3
F0.0
sI4
F0.9500000000000006
sI5
F0.0
sI6
F0.0
sI7
F0.9400000000000006
sI8
F0.0
sI9
F0.0
sI10
F0.9500000000000006
sg2
(g6
S';\x1a\x9e\xdc\x8d_\xe5?'
p480
tp481
Rp482
g12
I200
tp483
a(I95
F74.07493805885315
(dp484
I1
F0.9600000000000006
sI2
F0.01
sI3
F0.0
sI4
F0.9600000000000006
sI5
F0.0
sI6
F0.0
sI7
F0.9500000000000006
sI8
F0.0
sI9
F0.0
sI10
F0.9600000000000006
sg2
(g6
S'b\x97\xb2\xf9\x83\x87\xe5?'
p485
tp486
Rp487
g12
I200
tp488
a(I96
F74.8115029335022
(dp489
I1
F0.9700000000000006
sI2
F0.01
sI3
F0.0
sI4
F0.9700000000000006
sI5
F0.0
sI6
F0.0
sI7
F0.9600000000000006
sI8
F0.0
sI9
F0.0
sI10
F0.9700000000000006
sg2
(g6
S'\x00\xbbi\x83L\xaf\xe5?'
p490
tp491
Rp492
g12
I200
tp493
a(I97
F75.54896807670593
(dp494
I1
F0.9800000000000006
sI2
F0.01
sI3
F0.0
sI4
F0.9800000000000006
sI5
F0.0
sI6
F0.0
sI7
F0.9700000000000006
sI8
F0.0
sI9
F0.0
sI10
F0.9800000000000006
sg2
(g6
S'&\xd2_\xc1\xe8\xd6\xe5?'
p495
tp496
Rp497
g12
I200
tp498
a(I98
F76.28365993499756
(dp499
I1
F0.9900000000000007
sI2
F0.01
sI3
F0.0
sI4
F0.9900000000000007
sI5
F0.0
sI6
F0.0
sI7
F0.9800000000000006
sI8
F0.0
sI9
F0.0
sI10
F0.9900000000000007
sg2
(g6
S'\xe1`\xe6\xf8Y\xfe\xe5?'
p500
tp501
Rp502
g12
I200
tp503
a(I99
F77.01498484611511
(dp504
I1
F1.0000000000000007
sI2
F0.01
sI3
F0.0
sI4
F1.0000000000000007
sI5
F0.0
sI6
F0.0
sI7
F0.9900000000000007
sI8
F0.0
sI9
F0.0
sI10
F1.0000000000000007
sg2
(g6
S'."\x04m\xa1%\xe6?'
p505
tp506
Rp507
g12
I200
tp508
a.